 BugSplat

 Timestamp is 635959d4 (Wed Oct 26 16:01:24 2022)

 Preferred load address is 10000000

 Start         Length     Name                   Class
 0001:00000000 00000170H .text$di                CODE
 0001:00000170 0005bcbaH .text$mn                CODE
 0001:0005be2a 00000eabH .text$x                 CODE
 0001:0005ccd5 000000e4H .text$yd                CODE
 0002:00000000 000002b0H .idata$5                DATA
 0002:000002b0 00000008H .00cfg                  DATA
 0002:000002b8 00000004H .CRT$XCA                DATA
 0002:000002bc 00000004H .CRT$XCL                DATA
 0002:000002c0 00000028H .CRT$XCU                DATA
 0002:000002e8 00000004H .CRT$XCZ                DATA
 0002:000002ec 00000004H .CRT$XIA                DATA
 0002:000002f0 00000018H .CRT$XIC                DATA
 0002:00000308 00000004H .CRT$XIZ                DATA
 0002:0000030c 00000004H .CRT$XLA                DATA
 0002:00000310 00000004H .CRT$XLZ                DATA
 0002:00000314 00000004H .CRT$XPA                DATA
 0002:00000318 00000008H .CRT$XPX                DATA
 0002:00000320 00000004H .CRT$XPXA               DATA
 0002:00000324 00000004H .CRT$XPZ                DATA
 0002:00000328 00000004H .CRT$XTA                DATA
 0002:0000032c 00000004H .CRT$XTZ                DATA
 0002:00000330 00000000H .gfids$y                DATA
 0002:00000330 0000ac50H .rdata                  DATA
 0002:0000af80 00000004H .rdata$CastGuardVftablesA DATA
 0002:0000af84 00000004H .rdata$CastGuardVftablesC DATA
 0002:0000af88 00000018H .rdata$T                DATA
 0002:0000afa0 000009b4H .rdata$r                DATA
 0002:0000b954 00000140H .rdata$sxdata           DATA
 0002:0000ba94 000002a8H .rdata$voltmd           DATA
 0002:0000bd3c 00000460H .rdata$zzzdbg           DATA
 0002:0000c19c 00000004H .rtc$IAA                DATA
 0002:0000c1a0 00000004H .rtc$IZZ                DATA
 0002:0000c1a4 00000004H .rtc$TAA                DATA
 0002:0000c1a8 00000008H .rtc$TZZ                DATA
 0002:0000c1b0 00000008H .tls                    DATA
 0002:0000c1b8 00000014H .tls$                   DATA
 0002:0000c1cc 00000004H .tls$ZZZ                DATA
 0002:0000c1d0 00001e0cH .xdata$x                DATA
 0002:0000dfdc 00000004H ATL$__a                 DATA
 0002:0000dfe0 00000010H ATL$__z                 DATA
 0002:0000dff0 0000097cH .edata                  DATA
 0002:0000e96c 000000a0H .idata$2                DATA
 0002:0000ea0c 00000014H .idata$3                DATA
 0002:0000ea20 000002b0H .idata$4                DATA
 0002:0000ecd0 00000c02H .idata$6                DATA
 0003:00000000 00000a80H .data                   DATA
 0003:00000a80 000001b8H .data$r                 DATA
 0003:00000c38 00000298H .data$rs                DATA
 0003:00000ed0 000048ecH .bss                    DATA
 0004:00000000 00000120H .rsrc$01                DATA
 0004:00000120 00000b30H .rsrc$02                DATA

  Address         Publics by Value              Rva+Base       Lib:Object

 0000:00000000       ___guard_check_icall_a64n_fptr 00000000     <absolute>
 0000:00000000       ___guard_longjmp_table     00000000     <absolute>
 0000:00000000       ___dynamic_value_reloc_table 00000000     <absolute>
 0000:00000000       ___hybrid_auxiliary_iat    00000000     <absolute>
 0000:00000000       ___x64_code_ranges_to_entry_points 00000000     <absolute>
 0000:00000000       ___guard_iat_table         00000000     <absolute>
 0000:00000000       ___arm64x_extra_rfe_table_size 00000000     <absolute>
 0000:00000000       __except_list              00000000     <absolute>
 0000:00000000       ___x64_code_ranges_to_entry_points_count 00000000     <absolute>
 0000:00000000       ___arm64x_extra_rfe_table  00000000     <absolute>
 0000:00000000       ___guard_fids_count        00000000     <absolute>
 0000:00000000       ___enclave_config          00000000     <absolute>
 0000:00000000       ___AbsoluteZero            00000000     <absolute>
 0000:00000000       ___hybrid_code_map         00000000     <absolute>
 0000:00000000       ___hybrid_code_map_count   00000000     <absolute>
 0000:00000000       ___guard_fids_table        00000000     <absolute>
 0000:00000000       ___guard_iat_count         00000000     <absolute>
 0000:00000000       ___arm64x_redirection_metadata 00000000     <absolute>
 0000:00000000       ___arm64x_native_entrypoint 00000000     <absolute>
 0000:00000000       ___hybrid_auxiliary_iat_copy 00000000     <absolute>
 0000:00000000       ___arm64x_redirection_metadata_count 00000000     <absolute>
 0000:00000000       ___guard_eh_cont_table     00000000     <absolute>
 0000:00000000       ___guard_eh_cont_count     00000000     <absolute>
 0000:00000000       ___guard_longjmp_count     00000000     <absolute>
 0000:0000002c       __tls_array                0000002c     <absolute>
 0000:00000050       ___safe_se_handler_count   00000050     <absolute>
 0000:00000100       ___guard_flags             00000100     <absolute>
 0000:00000000       ___ImageBase               10000000     <linker-defined>
 0001:00000170       ??$AtlAdd@H@ATL@@YAJPAHHH@Z 10001170 f i GenericHTTPClient.obj
 0001:00000196       ??$AtlAdd@I@ATL@@YAJPAIII@Z 10001196 f i GenericHTTPClient.obj
 0001:000001b9       ??$AtlAdd@K@ATL@@YAJPAKKK@Z 100011b9 f i GenericHTTPClient.obj
 0001:000001dc       ??$AtlMultiply@I@ATL@@YAJPAIII@Z 100011dc f i GenericHTTPClient.obj
 0001:000001fe       ??$AtlMultiply@K@ATL@@YAJPAKKK@Z 100011fe f i GenericHTTPClient.obj
 0001:00000220       ??$_Allocate@$07U_Default_allocate_traits@std@@$0A@@std@@YAPAXI@Z 10001220 f i GenericHTTPClient.obj
 0001:00000246       ??$_Allocate_manually_vector_aligned@U_Default_allocate_traits@std@@@std@@YAPAXI@Z 10001246 f i GenericHTTPClient.obj
 0001:00000274       ??$_Copy_memmove@PAU__GENERIC_HTTP_ARGUMENT@GenericHTTPClient@@PAU12@@std@@YAPAU__GENERIC_HTTP_ARGUMENT@GenericHTTPClient@@PAU12@00@Z 10001274 f i GenericHTTPClient.obj
 0001:00000296       ??$_Deallocate@$07$0A@@std@@YAXPAXI@Z 10001296 f i GenericHTTPClient.obj
 0001:000002c2       ??$_Emplace_reallocate@ABU__GENERIC_HTTP_ARGUMENT@GenericHTTPClient@@@?$vector@U__GENERIC_HTTP_ARGUMENT@GenericHTTPClient@@V?$allocator@U__GENERIC_HTTP_ARGUMENT@GenericHTTPClient@@@std@@@std@@QAEPAU__GENERIC_HTTP_ARGUMENT@GenericHTTPClient@@QAU23@ABU23@@Z 100012c2 f i GenericHTTPClient.obj
 0001:0000037f       ??$_Get_size_of_n@$0KAE@@std@@YAII@Z 1000137f f i GenericHTTPClient.obj
 0001:00000398       ??$_Uninitialized_move@PAU__GENERIC_HTTP_ARGUMENT@GenericHTTPClient@@V?$allocator@U__GENERIC_HTTP_ARGUMENT@GenericHTTPClient@@@std@@@std@@YAPAU__GENERIC_HTTP_ARGUMENT@GenericHTTPClient@@QAU12@0PAU12@AAV?$allocator@U__GENERIC_HTTP_ARGUMENT@GenericHTTPClient@@@0@@Z 10001398 f i GenericHTTPClient.obj
 0001:000003c7       ??$emplace_back@ABU__GENERIC_HTTP_ARGUMENT@GenericHTTPClient@@@?$vector@U__GENERIC_HTTP_ARGUMENT@GenericHTTPClient@@V?$allocator@U__GENERIC_HTTP_ARGUMENT@GenericHTTPClient@@@std@@@std@@QAE?A_TABU__GENERIC_HTTP_ARGUMENT@GenericHTTPClient@@@Z 100013c7 f i GenericHTTPClient.obj
 0001:000003fa       ??0?$CStringT@_WV?$StrTraitATL@_WV?$ChTraitsCRT@_W@ATL@@@ATL@@@ATL@@QAE@PBD@Z 100013fa f i GenericHTTPClient.obj
 0001:00000451       ??0?$CStringT@_WV?$StrTraitATL@_WV?$ChTraitsCRT@_W@ATL@@@ATL@@@ATL@@QAE@PB_W@Z 10001451 f i GenericHTTPClient.obj
 0001:000004b6       ??0CAtlException@ATL@@QAE@J@Z 100014b6 f i GenericHTTPClient.obj
 0001:000004c4       ??0CAtlStringMgr@ATL@@QAE@PAUIAtlMemMgr@1@@Z 100014c4 f i GenericHTTPClient.obj
 0001:000004f0       ??0GenericHTTPClient@@QAE@XZ 100014f0 f   GenericHTTPClient.obj
 0001:0000051e       ??0bad_alloc@std@@QAE@ABV01@@Z 1000151e f i GenericHTTPClient.obj
 0001:00000539       ??0bad_array_new_length@std@@QAE@ABV01@@Z 10001539 f i GenericHTTPClient.obj
 0001:00000554       ??0bad_array_new_length@std@@QAE@XZ 10001554 f i GenericHTTPClient.obj
 0001:0000056c       ??0exception@std@@QAE@ABV01@@Z 1000156c f i GenericHTTPClient.obj
 0001:00000598       ??1?$CSimpleStringT@_W$0A@@ATL@@QAE@XZ 10001598 f i GenericHTTPClient.obj
 0001:000005a2       ??1?$CStringT@_WV?$StrTraitATL@_WV?$ChTraitsCRT@_W@ATL@@@ATL@@@ATL@@QAE@XZ 100015a2 f i GenericHTTPClient.obj
 0001:000005ac       ??1CAtlStringMgr@ATL@@UAE@XZ 100015ac f i GenericHTTPClient.obj
 0001:000005ba       ??1CWin32Heap@ATL@@UAE@XZ  100015ba f i GenericHTTPClient.obj
 0001:000005d6       ??1GenericHTTPClient@@UAE@XZ 100015d6 f   GenericHTTPClient.obj
 0001:000005f8       ??1bad_array_new_length@std@@UAE@XZ 100015f8 f i GenericHTTPClient.obj
 0001:00000609       ??1exception@std@@UAE@XZ   10001609 f i GenericHTTPClient.obj
 0001:0000061a       ??4?$CStringT@_WV?$StrTraitATL@_WV?$ChTraitsCRT@_W@ATL@@@ATL@@@ATL@@QAEAAV01@PBD@Z 1000161a f i GenericHTTPClient.obj
 0001:00000668       ??_ECAtlStringMgr@ATL@@UAEPAXI@Z 10001668 f i GenericHTTPClient.obj
 0001:00000668       ??_GCAtlStringMgr@ATL@@UAEPAXI@Z 10001668 f i GenericHTTPClient.obj
 0001:00000692       ??_ECWin32Heap@ATL@@UAEPAXI@Z 10001692 f i GenericHTTPClient.obj
 0001:00000692       ??_GCWin32Heap@ATL@@UAEPAXI@Z 10001692 f i GenericHTTPClient.obj
 0001:000006b4       ??_EGenericHTTPClient@@UAEPAXI@Z 100016b4 f i GenericHTTPClient.obj
 0001:000006b4       ??_GGenericHTTPClient@@UAEPAXI@Z 100016b4 f i GenericHTTPClient.obj
 0001:000006d9       ??_Gbad_alloc@std@@UAEPAXI@Z 100016d9 f i GenericHTTPClient.obj
 0001:000006d9       ??_Ebad_alloc@std@@UAEPAXI@Z 100016d9 f i GenericHTTPClient.obj
 0001:00000706       ??_Gbad_array_new_length@std@@UAEPAXI@Z 10001706 f i GenericHTTPClient.obj
 0001:00000706       ??_Ebad_array_new_length@std@@UAEPAXI@Z 10001706 f i GenericHTTPClient.obj
 0001:00000733       ??_Eexception@std@@UAEPAXI@Z 10001733 f i GenericHTTPClient.obj
 0001:00000733       ??_Gexception@std@@UAEPAXI@Z 10001733 f i GenericHTTPClient.obj
 0001:00000760       ?AddPutPostArguments@GenericHTTPClient@@QAEXPB_W0H@Z 10001760 f   GenericHTTPClient.obj
 0001:000007e4       ?AddPutPostArguments@GenericHTTPClient@@QAEXPB_WK@Z 100017e4 f   GenericHTTPClient.obj
 0001:00000865       ?Allocate@CAtlStringMgr@ATL@@UAEPAUCStringData@2@HH@Z 10001865 f i GenericHTTPClient.obj
 0001:000008e8       ?Allocate@CWin32Heap@ATL@@UAEPAXI@Z 100018e8 f i GenericHTTPClient.obj
 0001:000008fd       ?AtlCrtErrorCheck@ATL@@YAHH@Z 100018fd f i GenericHTTPClient.obj
 0001:00000938       ?AtlFindStringResourceInstance@ATL@@YAPAUHINSTANCE__@@IG@Z 10001938 f i GenericHTTPClient.obj
 0001:0000097c       ?AtlGetStringResourceImage@ATL@@YAPBUATLSTRINGRESOURCEIMAGE@1@PAUHINSTANCE__@@I@Z 1000197c f i GenericHTTPClient.obj
 0001:000009ac       ?AtlGetStringResourceImage@ATL@@YAPBUATLSTRINGRESOURCEIMAGE@1@PAUHINSTANCE__@@IG@Z 100019ac f i GenericHTTPClient.obj
 0001:000009df       ?AtlThrowImpl@ATL@@YGXJ@Z  100019df f i GenericHTTPClient.obj
 0001:000009fc       ?CheckImplicitLoad@?$CStringT@_WV?$StrTraitATL@_WV?$ChTraitsCRT@_W@ATL@@@ATL@@@ATL@@AAE_NPBX@Z 100019fc f i GenericHTTPClient.obj
 0001:00000a20       ?Clone@CAtlStringMgr@ATL@@UAEPAUIAtlStringMgr@2@XZ 10001a20 f i GenericHTTPClient.obj
 0001:00000a23       ?CloneData@?$CSimpleStringT@_W$0A@@ATL@@CAPAUCStringData@2@PAU32@@Z 10001a23 f i GenericHTTPClient.obj
 0001:00000a7e       ?Close@GenericHTTPClient@@QAEHXZ 10001a7e f   GenericHTTPClient.obj
 0001:00000ab5       ?Connect@GenericHTTPClient@@QAEHV?$CStringT@_WV?$StrTraitATL@_WV?$ChTraitsCRT@_W@ATL@@@ATL@@@ATL@@0G00@Z 10001ab5 f   GenericHTTPClient.obj
 0001:00000cb0       ?ConvertToBaseType@?$ChTraitsCRT@_W@ATL@@SAXPA_WHPB_WH@Z 10001cb0 f i GenericHTTPClient.obj
 0001:00000ce3       ?CopyChars@?$CSimpleStringT@_W$0A@@ATL@@SAXPA_WIPB_WH@Z 10001ce3 f i GenericHTTPClient.obj
 0001:00000d02       ?CopyCharsOverlapped@?$CSimpleStringT@_W$0A@@ATL@@SAXPA_WIPB_WH@Z 10001d02 f i GenericHTTPClient.obj
 0001:00000d53       ?CopyWideToMultibyte@GenericHTTPClient@@QAEHV?$CStringT@_WV?$StrTraitATL@_WV?$ChTraitsCRT@_W@ATL@@@ATL@@@ATL@@PADKK@Z 10001d53 f   GenericHTTPClient.obj
 0001:00000dc1       ?DebuggerConsoleMessage@GenericHTTPClient@@QAEXXZ 10001dc1 f   GenericHTTPClient.obj
 0001:00000dd2       ?Empty@?$CSimpleStringT@_W$0A@@ATL@@QAEXXZ 10001dd2 f i GenericHTTPClient.obj
 0001:00000e07       ?EncodeSpecialCharacters@GenericHTTPClient@@QAE?AV?$CStringT@_WV?$StrTraitATL@_WV?$ChTraitsCRT@_W@ATL@@@ATL@@@ATL@@V23@@Z 10001e07 f   GenericHTTPClient.obj
 0001:00000e69       ?EnsureLinked@CAtlStringMgrStaticInitializer@ATLImplementationDetails@ATL@@QAEPAXXZ 10001e69 f i GenericHTTPClient.obj
 0001:00000e6c       ?Fork@?$CSimpleStringT@_W$0A@@ATL@@AAEXH@Z 10001e6c f i GenericHTTPClient.obj
 0001:00000ed6       ?Free@CAtlStringMgr@ATL@@UAEXPAUCStringData@2@@Z 10001ed6 f i GenericHTTPClient.obj
 0001:00000ee2       ?Free@CWin32Heap@ATL@@UAEXPAX@Z 10001ee2 f i GenericHTTPClient.obj
 0001:00000efd       ?GetBaseTypeLength@?$ChTraitsCRT@_W@ATL@@SAHPBD@Z 10001efd f i GenericHTTPClient.obj
 0001:00000f15       ?GetContentType@GenericHTTPClient@@QAEPB_WPB_W@Z 10001f15 f   GenericHTTPClient.obj
 0001:00000fdc       ?GetInstance@CAtlStringMgr@ATL@@SAPAUIAtlStringMgr@2@XZ 10001fdc f i GenericHTTPClient.obj
 0001:0000108b       ?GetNilString@CAtlStringMgr@ATL@@UAEPAUCStringData@2@XZ 1000208b f i GenericHTTPClient.obj
 0001:00001093       ?GetPostArguments@GenericHTTPClient@@QAEKPADK@Z 10002093 f   GenericHTTPClient.obj
 0001:0000117a       ?GetSize@CWin32Heap@ATL@@UAEIPAX@Z 1000217a f i GenericHTTPClient.obj
 0001:0000118f       ?InitilizePutPostArguments@GenericHTTPClient@@QAEXXZ 1000218f f   GenericHTTPClient.obj
 0001:00001196       ?LoadStringW@?$CStringT@_WV?$StrTraitATL@_WV?$ChTraitsCRT@_W@ATL@@@ATL@@@ATL@@QAEHI@Z 10002196 f i GenericHTTPClient.obj
 0001:000011bc       ?LoadStringW@?$CStringT@_WV?$StrTraitATL@_WV?$ChTraitsCRT@_W@ATL@@@ATL@@@ATL@@QAEHPAUHINSTANCE__@@I@Z 100021bc f i GenericHTTPClient.obj
 0001:00001206       ?ParseURLW@GenericHTTPClient@@QAEXPB_WPA_WH1H@Z 10002206 f   GenericHTTPClient.obj
 0001:00001311       ?PrepareWrite2@?$CSimpleStringT@_W$0A@@ATL@@AAEXH@Z 10002311 f i GenericHTTPClient.obj
 0001:00001366       ?PrepareWrite@?$CSimpleStringT@_W$0A@@ATL@@AAEPA_WH@Z 10002366 f i GenericHTTPClient.obj
 0001:000013a2       ?QueryHTTPResponse@GenericHTTPClient@@QAEPB_WXZ 100023a2 f   GenericHTTPClient.obj
 0001:000013a6       ?QueryHTTPResponseHeader@GenericHTTPClient@@QAEPB_WXZ 100023a6 f   GenericHTTPClient.obj
 0001:000013ad       ?Reallocate@?$CSimpleStringT@_W$0A@@ATL@@AAEXH@Z 100023ad f i GenericHTTPClient.obj
 0001:000013e5       ?Reallocate@CAtlStringMgr@ATL@@UAEPAUCStringData@2@PAU32@HH@Z 100023e5 f i GenericHTTPClient.obj
 0001:0000145f       ?Reallocate@CWin32Heap@ATL@@UAEPAXPAXI@Z 1000245f f i GenericHTTPClient.obj
 0001:00001495       ?Reconnect@GenericHTTPClient@@QAEHXZ 10002495 f   GenericHTTPClient.obj
 0001:00001523       ?Release@CStringData@ATL@@QAEXXZ 10002523 f i GenericHTTPClient.obj
 0001:0000153b       ?Replace@?$CStringT@_WV?$StrTraitATL@_WV?$ChTraitsCRT@_W@ATL@@@ATL@@@ATL@@QAEHPB_W0@Z 1000253b f i GenericHTTPClient.obj
 0001:000016ce       ?Request@GenericHTTPClient@@QAEHPB_WH0@Z 100026ce f   GenericHTTPClient.obj
 0001:00001822       ?RequestGet@GenericHTTPClient@@QAEHPB_W@Z 10002822 f   GenericHTTPClient.obj
 0001:000018bd       ?RequestOfURI@GenericHTTPClient@@QAEHPB_WH@Z 100028bd f   GenericHTTPClient.obj
 0001:0000191a       ?RequestPost@GenericHTTPClient@@QAEHPB_W@Z 1000291a f   GenericHTTPClient.obj
 0001:00001a0c       ?RequestPut@GenericHTTPClient@@QAEHPB_W@Z 10002a0c f   GenericHTTPClient.obj
 0001:00001a6f       ?Response@GenericHTTPClient@@QAEHPA_WK0KAAK@Z 10002a6f f   GenericHTTPClient.obj
 0001:00001bee       ?ResponseOfBytes@GenericHTTPClient@@QAEKPAEK@Z 10002bee f   GenericHTTPClient.obj
 0001:00001c3d       ?SendPutFileData@GenericHTTPClient@@QAEKXZ 10002c3d f   GenericHTTPClient.obj
 0001:00001cec       ?SetLength@?$CSimpleStringT@_W$0A@@ATL@@AAEXH@Z 10002cec f i GenericHTTPClient.obj
 0001:00001d17       ?SetString@?$CSimpleStringT@_W$0A@@ATL@@QAEXPB_WH@Z 10002d17 f i GenericHTTPClient.obj
 0001:00001d8c       ?ThrowMemoryException@?$CSimpleStringT@_W$0A@@ATL@@KAXXZ 10002d8c f i GenericHTTPClient.obj
 0001:00001d97       ?_Adjust_manually_vector_aligned@std@@YAXAAPAXAAI@Z 10002d97 f i GenericHTTPClient.obj
 0001:00001dbb       ?_AtlGetStringResourceImage@ATL@@YAPBUATLSTRINGRESOURCEIMAGE@1@PAUHINSTANCE__@@PAUHRSRC__@@I@Z 10002dbb f i GenericHTTPClient.obj
 0001:00001e18       ?_Calculate_growth@?$vector@U__GENERIC_HTTP_ARGUMENT@GenericHTTPClient@@V?$allocator@U__GENERIC_HTTP_ARGUMENT@GenericHTTPClient@@@std@@@std@@ABEII@Z 10002e18 f i GenericHTTPClient.obj
 0001:00001e4b       ?_Change_array@?$vector@U__GENERIC_HTTP_ARGUMENT@GenericHTTPClient@@V?$allocator@U__GENERIC_HTTP_ARGUMENT@GenericHTTPClient@@@std@@@std@@AAEXQAU__GENERIC_HTTP_ARGUMENT@GenericHTTPClient@@II@Z 10002e4b f i GenericHTTPClient.obj
 0001:00001e95       ?_Throw_bad_array_new_length@std@@YAXXZ 10002e95 f i GenericHTTPClient.obj
 0001:00001eb2       ?_Tidy@?$vector@U__GENERIC_HTTP_ARGUMENT@GenericHTTPClient@@V?$allocator@U__GENERIC_HTTP_ARGUMENT@GenericHTTPClient@@@std@@@std@@AAEXXZ 10002eb2 f i GenericHTTPClient.obj
 0001:00001ee3       ?_Xlength@?$vector@U__GENERIC_HTTP_ARGUMENT@GenericHTTPClient@@V?$allocator@U__GENERIC_HTTP_ARGUMENT@GenericHTTPClient@@@std@@@std@@CAXXZ 10002ee3 f i GenericHTTPClient.obj
 0001:00001eee       ?memcpy_s@Checked@ATL@@YAXPAXIPBXI@Z 10002eee f i GenericHTTPClient.obj
 0001:00001f0d       ?memmove_s@Checked@ATL@@YAXPAXIPBXI@Z 10002f0d f i GenericHTTPClient.obj
 0001:00001f5e       ?what@exception@std@@UBEPBDXZ 10002f5e f i GenericHTTPClient.obj
 0001:00001f6c       ?wmemcpy_s@Checked@ATL@@YAXPA_WIPB_WI@Z 10002f6c f i GenericHTTPClient.obj
 0001:00001f8b       ___local_stdio_printf_options 10002f8b f i GenericHTTPClient.obj
 0001:00001f91       __vswprintf_s_l            10002f91 f i GenericHTTPClient.obj
 0001:0000203e       _swprintf_s                1000303e f i GenericHTTPClient.obj
 0001:0000205a       ??$AtlAddThrow@H@ATL@@YAHHH@Z 1000305a f i BugSplatImp.obj
 0001:00002080       ??0?$CSimpleStringT@_W$0A@@ATL@@QAE@PB_WHPAUIAtlStringMgr@1@@Z 10003080 f i BugSplatImp.obj
 0001:000020e1       ??0?$CStringT@_WV?$StrTraitATL@_WV?$ChTraitsCRT@_W@ATL@@@ATL@@@ATL@@QAE@XZ 100030e1 f i BugSplatImp.obj
 0001:00002108       ??0BugSplatImp@@QAE@XZ     10003108 f   BugSplatImp.obj
 0001:00002126       ??0MiniDmpSender@@QAE@ABV0@@Z 10003126 f i BugSplatImp.obj
 0001:0000213e       ??4?$CSimpleStringT@_W$0A@@ATL@@QAEAAV01@ABV01@@Z 1000313e f i BugSplatImp.obj
 0001:0000218e       ??4BugSplatImp@@QAEAAV0@$$QAV0@@Z 1000318e f i BugSplatImp.obj
 0001:000021eb       ??4BugSplatImp@@QAEAAV0@ABV0@@Z 100031eb f i BugSplatImp.obj
 0001:00002209       ??4MiniDmpSender@@QAEAAV0@ABV0@@Z 10003209 f i BugSplatImp.obj
 0001:0000221b       ??A?$CSimpleStringT@_W$0A@@ATL@@QBE_WH@Z 1000321b f i BugSplatImp.obj
 0001:0000223f       ??HATL@@YA?AV?$CStringT@_WV?$StrTraitATL@_WV?$ChTraitsCRT@_W@ATL@@@ATL@@@0@ABV10@0@Z 1000323f f i BugSplatImp.obj
 0001:000022a6       ??_EMiniDmpSender@@UAEPAXI@Z 100032a6 f i BugSplatImp.obj
 0001:00002331       ??_GMiniDmpSender@@UAEPAXI@Z 10003331 f i BugSplatImp.obj
 0001:00002353       ?Append@?$CSimpleStringT@_W$0A@@ATL@@QAEXPB_WH@Z 10003353 f i BugSplatImp.obj
 0001:000023df       ?AppendChar@?$CSimpleStringT@_W$0A@@ATL@@QAEX_W@Z 100033df f i BugSplatImp.obj
 0001:0000240c       ?CalculateBeginningOfCallInstruction@@YAHAAI@Z 1000340c f   BugSplatImp.obj
 0001:00002461       ?Concatenate@?$CSimpleStringT@_W$0A@@ATL@@KAXAAV12@PB_WH1H@Z 10003461 f i BugSplatImp.obj
 0001:000024a8       ?CreateMiniDump@BugSplatImp@@QAEHPAUHINSTANCE__@@KPAXKPAU_EXCEPTION_POINTERS@@W4_BS_MINIDUMP_TYPE@MiniDmpSender@@PB_WPA_WK@Z 100034a8 f   BugSplatImp.obj
 0001:00002692       ?CreateMiniDumpFromSnap@@YAHPAXKKW4_BS_MINIDUMP_TYPE@MiniDmpSender@@P6GH0K0W4_MINIDUMP_TYPE@@QAU_MINIDUMP_EXCEPTION_INFORMATION@@QAU_MINIDUMP_USER_STREAM_INFORMATION@@QAU_MINIDUMP_CALLBACK_INFORMATION@@@Z0PAU_CONTEXT@@@Z 10003692 f   BugSplatImp.obj
 0001:000027d8       ?Find@?$CStringT@_WV?$StrTraitATL@_WV?$ChTraitsCRT@_W@ATL@@@ATL@@@ATL@@QBEHPB_WH@Z 100037d8 f i BugSplatImp.obj
 0001:00002812       ?GetManager@?$CStringT@_WV?$StrTraitATL@_WV?$ChTraitsCRT@_W@ATL@@@ATL@@@ATL@@QBEPAUIAtlStringMgr@2@XZ 10003812 f i BugSplatImp.obj
 0001:00002831       ?GetReducedGuid@BugSplatImp@@QAEXPA_WK@Z 10003831 f   BugSplatImp.obj
 0001:000028bb       ?Left@?$CStringT@_WV?$StrTraitATL@_WV?$ChTraitsCRT@_W@ATL@@@ATL@@@ATL@@QBE?AV12@H@Z 100038bb f i BugSplatImp.obj
 0001:00002900       ?MakeUpper@?$CStringT@_WV?$StrTraitATL@_WV?$ChTraitsCRT@_W@ATL@@@ATL@@@ATL@@QAEAAV12@XZ 10003900 f i BugSplatImp.obj
 0001:00002928       ?Mid@?$CStringT@_WV?$StrTraitATL@_WV?$ChTraitsCRT@_W@ATL@@@ATL@@@ATL@@QBE?AV12@HH@Z 10003928 f i BugSplatImp.obj
 0001:000029ae       ?ReduceGuidString@BugSplatImp@@QAEXPA_WK@Z 100039ae f   BugSplatImp.obj
 0001:00002c53       ?ResumeSuspendedThreads@BugSplatImp@@QAEXXZ 10003c53 f   BugSplatImp.obj
 0001:00002c8d       ?SnapCurrentProcessMinidump@@YAHPAXKKW4_BS_MINIDUMP_TYPE@MiniDmpSender@@P6GH0K0W4_MINIDUMP_TYPE@@QAU_MINIDUMP_EXCEPTION_INFORMATION@@QAU_MINIDUMP_USER_STREAM_INFORMATION@@QAU_MINIDUMP_CALLBACK_INFORMATION@@@Z0@Z 10003c8d f   BugSplatImp.obj
 0001:00002e53       ?StringUppercase@?$ChTraitsCRT@_W@ATL@@SAPA_WPA_WI@Z 10003e53 f i BugSplatImp.obj
 0001:00002e6f       ?SuspendAllThreadsInProcess@BugSplatImp@@QAEXPAX@Z 10003e6f f   BugSplatImp.obj
 0001:00002f19       ?SuspendThreadsInCurrentProcess@BugSplatImp@@QAEXXZ 10003f19 f   BugSplatImp.obj
 0001:00002fd7       ?UINTtoWchar_t@@YA_WI@Z    10003fd7 f   BugSplatImp.obj
 0001:00002ff9       ?Wchar_tToUINT@@YAI_W@Z    10003ff9 f   BugSplatImp.obj
 0001:00003025       ?combine1_4@@YAIII@Z       10004025 f   BugSplatImp.obj
 0001:00003036       ?combine2_3@@YAIII@Z       10004036 f   BugSplatImp.obj
 0001:0000304b       ?combine3_2@@YAIII@Z       1000404b f   BugSplatImp.obj
 0001:00003061       ?combine4_1@@YAIII@Z       10004061 f   BugSplatImp.obj
 0001:00003073       ?combineLast3@@YAII@Z      10004073 f   BugSplatImp.obj
 0001:0000307e       ?createReportAndExit@MiniDmpSender@@QAEXXZ 1000407e f i BugSplatImp.obj
 0001:000030a8       ??$?8V?$MemoryPoolAllocator@VCrtAllocator@rapidjson@@@rapidjson@@@?$GenericValue@U?$UTF16@_W@rapidjson@@V?$MemoryPoolAllocator@VCrtAllocator@rapidjson@@@2@@rapidjson@@QBE_NABV01@@Z 100040a8 f i mdump.obj
 0001:000031ee       ??$?A$$CB_W@?$GenericValue@U?$UTF16@_W@rapidjson@@V?$MemoryPoolAllocator@VCrtAllocator@rapidjson@@@2@@rapidjson@@QAEAAV01@PB_W@Z 100041ee f i mdump.obj
 0001:00003243       ??$?AV?$MemoryPoolAllocator@VCrtAllocator@rapidjson@@@rapidjson@@@?$GenericValue@U?$UTF16@_W@rapidjson@@V?$MemoryPoolAllocator@VCrtAllocator@rapidjson@@@2@@rapidjson@@QAEAAV01@ABV01@@Z 10004243 f i mdump.obj
 0001:0000328f       ??$DoFindMember@V?$MemoryPoolAllocator@VCrtAllocator@rapidjson@@@rapidjson@@@?$GenericValue@U?$UTF16@_W@rapidjson@@V?$MemoryPoolAllocator@VCrtAllocator@rapidjson@@@2@@rapidjson@@AAE?AV?$GenericMemberIterator@$0A@U?$UTF16@_W@rapidjson@@V?$MemoryPoolAllocator@VCrtAllocator@rapidjson@@@2@@1@ABV01@@Z 1000428f f i mdump.obj
 0001:000032cf       ??$Encode@V?$StackStream@_W@?$GenericReader@U?$UTF16@_W@rapidjson@@U12@VCrtAllocator@2@@rapidjson@@@?$UTF16@_W@rapidjson@@SAXAAV?$StackStream@_W@?$GenericReader@U?$UTF16@_W@rapidjson@@U12@VCrtAllocator@2@@1@I@Z 100042cf f i mdump.obj
 0001:00003365       ??$Expand@V?$GenericValue@U?$UTF16@_W@rapidjson@@V?$MemoryPoolAllocator@VCrtAllocator@rapidjson@@@2@@rapidjson@@@?$Stack@VCrtAllocator@rapidjson@@@internal@rapidjson@@AAEXI@Z 10004365 f i mdump.obj
 0001:000033b4       ??$Expand@_W@?$Stack@VCrtAllocator@rapidjson@@@internal@rapidjson@@AAEXI@Z 100043b4 f i mdump.obj
 0001:00003405       ??$Parse@$0A@U?$GenericStringStream@U?$UTF16@_W@rapidjson@@@rapidjson@@V?$GenericDocument@U?$UTF16@_W@rapidjson@@V?$MemoryPoolAllocator@VCrtAllocator@rapidjson@@@2@VCrtAllocator@2@@2@@?$GenericReader@U?$UTF16@_W@rapidjson@@U12@VCrtAllocator@2@@rapidjson@@QAE?AUParseResult@1@AAU?$GenericStringStream@U?$UTF16@_W@rapidjson@@@1@AAV?$GenericDocument@U?$UTF16@_W@rapidjson@@V?$MemoryPoolAllocator@VCrtAllocator@rapidjson@@@2@VCrtAllocator@2@@1@@Z 10004405 f i mdump.obj
 0001:00003495       ??$ParseArray@$0A@U?$GenericStringStream@U?$UTF16@_W@rapidjson@@@rapidjson@@V?$GenericDocument@U?$UTF16@_W@rapidjson@@V?$MemoryPoolAllocator@VCrtAllocator@rapidjson@@@2@VCrtAllocator@2@@2@@?$GenericReader@U?$UTF16@_W@rapidjson@@U12@VCrtAllocator@2@@rapidjson@@AAEXAAU?$GenericStringStream@U?$UTF16@_W@rapidjson@@@1@AAV?$GenericDocument@U?$UTF16@_W@rapidjson@@V?$MemoryPoolAllocator@VCrtAllocator@rapidjson@@@2@VCrtAllocator@2@@1@@Z 10004495 f i mdump.obj
 0001:00003565       ??$ParseFalse@$0A@U?$GenericStringStream@U?$UTF16@_W@rapidjson@@@rapidjson@@V?$GenericDocument@U?$UTF16@_W@rapidjson@@V?$MemoryPoolAllocator@VCrtAllocator@rapidjson@@@2@VCrtAllocator@2@@2@@?$GenericReader@U?$UTF16@_W@rapidjson@@U12@VCrtAllocator@2@@rapidjson@@AAEXAAU?$GenericStringStream@U?$UTF16@_W@rapidjson@@@1@AAV?$GenericDocument@U?$UTF16@_W@rapidjson@@V?$MemoryPoolAllocator@VCrtAllocator@rapidjson@@@2@VCrtAllocator@2@@1@@Z 10004565 f i mdump.obj
 0001:000035d3       ??$ParseHex4@U?$GenericStringStream@U?$UTF16@_W@rapidjson@@@rapidjson@@@?$GenericReader@U?$UTF16@_W@rapidjson@@U12@VCrtAllocator@2@@rapidjson@@AAEIAAU?$GenericStringStream@U?$UTF16@_W@rapidjson@@@1@I@Z 100045d3 f i mdump.obj
 0001:00003642       ??$ParseNull@$0A@U?$GenericStringStream@U?$UTF16@_W@rapidjson@@@rapidjson@@V?$GenericDocument@U?$UTF16@_W@rapidjson@@V?$MemoryPoolAllocator@VCrtAllocator@rapidjson@@@2@VCrtAllocator@2@@2@@?$GenericReader@U?$UTF16@_W@rapidjson@@U12@VCrtAllocator@2@@rapidjson@@AAEXAAU?$GenericStringStream@U?$UTF16@_W@rapidjson@@@1@AAV?$GenericDocument@U?$UTF16@_W@rapidjson@@V?$MemoryPoolAllocator@VCrtAllocator@rapidjson@@@2@VCrtAllocator@2@@1@@Z 10004642 f i mdump.obj
 0001:000036a4       ??$ParseNumber@$0A@U?$GenericStringStream@U?$UTF16@_W@rapidjson@@@rapidjson@@V?$GenericDocument@U?$UTF16@_W@rapidjson@@V?$MemoryPoolAllocator@VCrtAllocator@rapidjson@@@2@VCrtAllocator@2@@2@@?$GenericReader@U?$UTF16@_W@rapidjson@@U12@VCrtAllocator@2@@rapidjson@@AAEXAAU?$GenericStringStream@U?$UTF16@_W@rapidjson@@@1@AAV?$GenericDocument@U?$UTF16@_W@rapidjson@@V?$MemoryPoolAllocator@VCrtAllocator@rapidjson@@@2@VCrtAllocator@2@@1@@Z 100046a4 f i mdump.obj
 0001:00003cfa       ??$ParseObject@$0A@U?$GenericStringStream@U?$UTF16@_W@rapidjson@@@rapidjson@@V?$GenericDocument@U?$UTF16@_W@rapidjson@@V?$MemoryPoolAllocator@VCrtAllocator@rapidjson@@@2@VCrtAllocator@2@@2@@?$GenericReader@U?$UTF16@_W@rapidjson@@U12@VCrtAllocator@2@@rapidjson@@AAEXAAU?$GenericStringStream@U?$UTF16@_W@rapidjson@@@1@AAV?$GenericDocument@U?$UTF16@_W@rapidjson@@V?$MemoryPoolAllocator@VCrtAllocator@rapidjson@@@2@VCrtAllocator@2@@1@@Z 10004cfa f i mdump.obj
 0001:00003e2b       ??$ParseStream@$0A@U?$UTF16@_W@rapidjson@@U?$GenericStringStream@U?$UTF16@_W@rapidjson@@@2@@?$GenericDocument@U?$UTF16@_W@rapidjson@@V?$MemoryPoolAllocator@VCrtAllocator@rapidjson@@@2@VCrtAllocator@2@@rapidjson@@QAEAAV01@AAU?$GenericStringStream@U?$UTF16@_W@rapidjson@@@1@@Z 10004e2b f i mdump.obj
 0001:00003ea9       ??$ParseString@$0A@U?$GenericStringStream@U?$UTF16@_W@rapidjson@@@rapidjson@@V?$GenericDocument@U?$UTF16@_W@rapidjson@@V?$MemoryPoolAllocator@VCrtAllocator@rapidjson@@@2@VCrtAllocator@2@@2@@?$GenericReader@U?$UTF16@_W@rapidjson@@U12@VCrtAllocator@2@@rapidjson@@AAEXAAU?$GenericStringStream@U?$UTF16@_W@rapidjson@@@1@AAV?$GenericDocument@U?$UTF16@_W@rapidjson@@V?$MemoryPoolAllocator@VCrtAllocator@rapidjson@@@2@VCrtAllocator@2@@1@_N@Z 10004ea9 f i mdump.obj
 0001:0000410d       ??$ParseTrue@$0A@U?$GenericStringStream@U?$UTF16@_W@rapidjson@@@rapidjson@@V?$GenericDocument@U?$UTF16@_W@rapidjson@@V?$MemoryPoolAllocator@VCrtAllocator@rapidjson@@@2@VCrtAllocator@2@@2@@?$GenericReader@U?$UTF16@_W@rapidjson@@U12@VCrtAllocator@2@@rapidjson@@AAEXAAU?$GenericStringStream@U?$UTF16@_W@rapidjson@@@1@AAV?$GenericDocument@U?$UTF16@_W@rapidjson@@V?$MemoryPoolAllocator@VCrtAllocator@rapidjson@@@2@VCrtAllocator@2@@1@@Z 1000510d f i mdump.obj
 0001:00004170       ??$ParseValue@$0A@U?$GenericStringStream@U?$UTF16@_W@rapidjson@@@rapidjson@@V?$GenericDocument@U?$UTF16@_W@rapidjson@@V?$MemoryPoolAllocator@VCrtAllocator@rapidjson@@@2@VCrtAllocator@2@@2@@?$GenericReader@U?$UTF16@_W@rapidjson@@U12@VCrtAllocator@2@@rapidjson@@AAEXAAU?$GenericStringStream@U?$UTF16@_W@rapidjson@@@1@AAV?$GenericDocument@U?$UTF16@_W@rapidjson@@V?$MemoryPoolAllocator@VCrtAllocator@rapidjson@@@2@VCrtAllocator@2@@1@@Z 10005170 f i mdump.obj
 0001:000041da       ??$SkipWhitespace@U?$GenericStringStream@U?$UTF16@_W@rapidjson@@@rapidjson@@@rapidjson@@YAXAAU?$GenericStringStream@U?$UTF16@_W@rapidjson@@@0@@Z 100051da f i mdump.obj
 0001:0000420a       ??$StringEqual@V?$MemoryPoolAllocator@VCrtAllocator@rapidjson@@@rapidjson@@@?$GenericValue@U?$UTF16@_W@rapidjson@@V?$MemoryPoolAllocator@VCrtAllocator@rapidjson@@@2@@rapidjson@@ABE_NABV01@@Z 1000520a f i mdump.obj
 0001:00004265       ??$_Destroy_range@V?$allocator@V?$CStringT@_WV?$StrTraitATL@_WV?$ChTraitsCRT@_W@ATL@@@ATL@@@ATL@@@std@@@std@@YAXPAV?$CStringT@_WV?$StrTraitATL@_WV?$ChTraitsCRT@_W@ATL@@@ATL@@@ATL@@QAV12@AAV?$allocator@V?$CStringT@_WV?$StrTraitATL@_WV?$ChTraitsCRT@_W@ATL@@@ATL@@@ATL@@@0@@Z 10005265 f i mdump.obj
 0001:00004282       ??$_Emplace_reallocate@V?$CStringT@_WV?$StrTraitATL@_WV?$ChTraitsCRT@_W@ATL@@@ATL@@@ATL@@@?$vector@V?$CStringT@_WV?$StrTraitATL@_WV?$ChTraitsCRT@_W@ATL@@@ATL@@@ATL@@V?$allocator@V?$CStringT@_WV?$StrTraitATL@_WV?$ChTraitsCRT@_W@ATL@@@ATL@@@ATL@@@std@@@std@@QAEPAV?$CStringT@_WV?$StrTraitATL@_WV?$ChTraitsCRT@_W@ATL@@@ATL@@@ATL@@QAV23@$$QAV23@@Z 10005282 f i mdump.obj
 0001:00004367       ??$_Uninitialized_copy@PAV?$CStringT@_WV?$StrTraitATL@_WV?$ChTraitsCRT@_W@ATL@@@ATL@@@ATL@@V?$allocator@V?$CStringT@_WV?$StrTraitATL@_WV?$ChTraitsCRT@_W@ATL@@@ATL@@@ATL@@@std@@@std@@YAPAV?$CStringT@_WV?$StrTraitATL@_WV?$ChTraitsCRT@_W@ATL@@@ATL@@@ATL@@QAV12@0PAV12@AAV?$allocator@V?$CStringT@_WV?$StrTraitATL@_WV?$ChTraitsCRT@_W@ATL@@@ATL@@@ATL@@@0@@Z 10005367 f i mdump.obj
 0001:000043b7       ??$_Uninitialized_move@PAV?$CStringT@_WV?$StrTraitATL@_WV?$ChTraitsCRT@_W@ATL@@@ATL@@@ATL@@V?$allocator@V?$CStringT@_WV?$StrTraitATL@_WV?$ChTraitsCRT@_W@ATL@@@ATL@@@ATL@@@std@@@std@@YAPAV?$CStringT@_WV?$StrTraitATL@_WV?$ChTraitsCRT@_W@ATL@@@ATL@@@ATL@@QAV12@0PAV12@AAV?$allocator@V?$CStringT@_WV?$StrTraitATL@_WV?$ChTraitsCRT@_W@ATL@@@ATL@@@ATL@@@0@@Z 100053b7 f i mdump.obj
 0001:00004407       ??$construct@V?$CStringT@_WV?$StrTraitATL@_WV?$ChTraitsCRT@_W@ATL@@@ATL@@@ATL@@AAV12@@?$_Default_allocator_traits@V?$allocator@V?$CStringT@_WV?$StrTraitATL@_WV?$ChTraitsCRT@_W@ATL@@@ATL@@@ATL@@@std@@@std@@SAXAAV?$allocator@V?$CStringT@_WV?$StrTraitATL@_WV?$ChTraitsCRT@_W@ATL@@@ATL@@@ATL@@@1@QAV?$CStringT@_WV?$StrTraitATL@_WV?$ChTraitsCRT@_W@ATL@@@ATL@@@ATL@@AAV34@@Z 10005407 f i mdump.obj
 0001:00004423       ??$construct@V?$CStringT@_WV?$StrTraitATL@_WV?$ChTraitsCRT@_W@ATL@@@ATL@@@ATL@@V12@@?$_Default_allocator_traits@V?$allocator@V?$CStringT@_WV?$StrTraitATL@_WV?$ChTraitsCRT@_W@ATL@@@ATL@@@ATL@@@std@@@std@@SAXAAV?$allocator@V?$CStringT@_WV?$StrTraitATL@_WV?$ChTraitsCRT@_W@ATL@@@ATL@@@ATL@@@1@QAV?$CStringT@_WV?$StrTraitATL@_WV?$ChTraitsCRT@_W@ATL@@@ATL@@@ATL@@$$QAV34@@Z 10005423 f i mdump.obj
 0001:0000443f       ??$emplace_back@V?$CStringT@_WV?$StrTraitATL@_WV?$ChTraitsCRT@_W@ATL@@@ATL@@@ATL@@@?$vector@V?$CStringT@_WV?$StrTraitATL@_WV?$ChTraitsCRT@_W@ATL@@@ATL@@@ATL@@V?$allocator@V?$CStringT@_WV?$StrTraitATL@_WV?$ChTraitsCRT@_W@ATL@@@ATL@@@ATL@@@std@@@std@@QAE?A_T$$QAV?$CStringT@_WV?$StrTraitATL@_WV?$ChTraitsCRT@_W@ATL@@@ATL@@@ATL@@@Z 1000543f f i mdump.obj
 0001:0000446a       ??0?$CStringT@_WV?$StrTraitATL@_WV?$ChTraitsCRT@_W@ATL@@@ATL@@@ATL@@QAE@PB_WPAUIAtlStringMgr@1@@Z 1000546a f i mdump.obj
 0001:000044cb       ??0?$GenericDocument@U?$UTF16@_W@rapidjson@@V?$MemoryPoolAllocator@VCrtAllocator@rapidjson@@@2@VCrtAllocator@2@@rapidjson@@QAE@PAV?$MemoryPoolAllocator@VCrtAllocator@rapidjson@@@1@IPAVCrtAllocator@1@@Z 100054cb f i mdump.obj
 0001:00004551       ??0?$GenericValue@U?$UTF16@_W@rapidjson@@V?$MemoryPoolAllocator@VCrtAllocator@rapidjson@@@2@@rapidjson@@QAE@H@Z 10005551 f i mdump.obj
 0001:00004582       ??0?$GenericValue@U?$UTF16@_W@rapidjson@@V?$MemoryPoolAllocator@VCrtAllocator@rapidjson@@@2@@rapidjson@@QAE@I@Z 10005582 f i mdump.obj
 0001:000045af       ??0?$GenericValue@U?$UTF16@_W@rapidjson@@V?$MemoryPoolAllocator@VCrtAllocator@rapidjson@@@2@@rapidjson@@QAE@PB_WIAAV?$MemoryPoolAllocator@VCrtAllocator@rapidjson@@@1@@Z 100055af f i mdump.obj
 0001:000045e9       ??0?$GenericValue@U?$UTF16@_W@rapidjson@@V?$MemoryPoolAllocator@VCrtAllocator@rapidjson@@@2@@rapidjson@@QAE@_J@Z 100055e9 f i mdump.obj
 0001:00004659       ??0?$GenericValue@U?$UTF16@_W@rapidjson@@V?$MemoryPoolAllocator@VCrtAllocator@rapidjson@@@2@@rapidjson@@QAE@_K@Z 10005659 f i mdump.obj
 0001:000046bb       ??0?$MemoryPoolAllocator@VCrtAllocator@rapidjson@@@rapidjson@@QAE@IPAVCrtAllocator@1@@Z 100056bb f i mdump.obj
 0001:00004739       ??0MiniDumper@@QAE@XZ      10005739 f   mdump.obj
 0001:000048d2       ??0TotalUptimeAndCrashCalculator@@QAE@PB_W00@Z 100058d2 f i mdump.obj
 0001:000049df       ??1?$CHeapPtr@_WVCLocalAllocator@ATL@@@ATL@@QAE@XZ 100059df f i mdump.obj
 0001:000049ef       ??1?$GenericDocument@U?$UTF16@_W@rapidjson@@V?$MemoryPoolAllocator@VCrtAllocator@rapidjson@@@2@VCrtAllocator@2@@rapidjson@@QAE@XZ 100059ef f i mdump.obj
 0001:00004a10       ??1?$GenericReader@U?$UTF16@_W@rapidjson@@U12@VCrtAllocator@2@@rapidjson@@QAE@XZ 10005a10 f i mdump.obj
 0001:00004a15       ??1?$GenericValue@U?$UTF16@_W@rapidjson@@V?$MemoryPoolAllocator@VCrtAllocator@rapidjson@@@2@@rapidjson@@QAE@XZ 10005a15 f i mdump.obj
 0001:00004a18       ??1?$MemoryPoolAllocator@VCrtAllocator@rapidjson@@@rapidjson@@QAE@XZ 10005a18 f i mdump.obj
 0001:00004a54       ??1?$Stack@VCrtAllocator@rapidjson@@@internal@rapidjson@@QAE@XZ 10005a54 f i mdump.obj
 0001:00004a59       ??1?$StreamLocalCopy@U?$GenericStringStream@U?$UTF16@_W@rapidjson@@@rapidjson@@$00@internal@rapidjson@@QAE@XZ 10005a59 f i mdump.obj
 0001:00004a69       ??1?$_Uninitialized_backout_al@V?$allocator@V?$CStringT@_WV?$StrTraitATL@_WV?$ChTraitsCRT@_W@ATL@@@ATL@@@ATL@@@std@@@std@@QAE@XZ 10005a69 f i mdump.obj
 0001:00004a7a       ??1?$vector@V?$CStringT@_WV?$StrTraitATL@_WV?$ChTraitsCRT@_W@ATL@@@ATL@@@ATL@@V?$allocator@V?$CStringT@_WV?$StrTraitATL@_WV?$ChTraitsCRT@_W@ATL@@@ATL@@@ATL@@@std@@@std@@QAE@XZ 10005a7a f i mdump.obj
 0001:00004a7f       ??1ClearStackOnExit@?$GenericDocument@U?$UTF16@_W@rapidjson@@V?$MemoryPoolAllocator@VCrtAllocator@rapidjson@@@2@VCrtAllocator@2@@rapidjson@@QAE@XZ 10005a7f f i mdump.obj
 0001:00004a8f       ??1ClearStackOnExit@?$GenericReader@U?$UTF16@_W@rapidjson@@U12@VCrtAllocator@2@@rapidjson@@QAE@XZ 10005a8f f i mdump.obj
 0001:00004a98       ??1DumpData@@QAE@XZ        10005a98 f i mdump.obj
 0001:00004aa3       ??1MiniDumper@@UAE@XZ      10005aa3 f   mdump.obj
 0001:00004b46       ??1ResourceSwitch@@QAE@XZ  10005b46 f i mdump.obj
 0001:00004b59       ??1TotalUptimeAndCrashCalculator@@QAE@XZ 10005b59 f i mdump.obj
 0001:00004be2       ??4?$GenericValue@U?$UTF16@_W@rapidjson@@V?$MemoryPoolAllocator@VCrtAllocator@rapidjson@@@2@@rapidjson@@QAEAAV01@AAV01@@Z 10005be2 f i mdump.obj
 0001:00004c11       ??8?$GenericValue@U?$UTF16@_W@rapidjson@@V?$MemoryPoolAllocator@VCrtAllocator@rapidjson@@@2@@rapidjson@@QBE_NPB_W@Z 10005c11 f i mdump.obj
 0001:00004c5a       ??B?$CSimpleStringT@_W$0A@@ATL@@QBEPB_WXZ 10005c5a f i mdump.obj
 0001:00004c5d       ??HATL@@YA?AV?$CStringT@_WV?$StrTraitATL@_WV?$ChTraitsCRT@_W@ATL@@@ATL@@@0@ABV10@PB_W@Z 10005c5d f i mdump.obj
 0001:00004ccf       ??HATL@@YA?AV?$CStringT@_WV?$StrTraitATL@_WV?$ChTraitsCRT@_W@ATL@@@ATL@@@0@PB_WABV10@@Z 10005ccf f i mdump.obj
 0001:00004d49       ??_G?$CStringT@_WV?$StrTraitATL@_WV?$ChTraitsCRT@_W@ATL@@@ATL@@@ATL@@QAEPAXI@Z 10005d49 f i mdump.obj
 0001:00004d70       ??_GMiniDumper@@UAEPAXI@Z  10005d70 f i mdump.obj
 0001:00004d70       ??_EMiniDumper@@UAEPAXI@Z  10005d70 f i mdump.obj
 0001:00004d92       ?AddChunk@?$MemoryPoolAllocator@VCrtAllocator@rapidjson@@@rapidjson@@AAE_NI@Z 10005d92 f i mdump.obj
 0001:00004de3       ?AllocGuardMemory@MiniDumper@@QAE_NXZ 10005de3 f   mdump.obj
 0001:00004e07       ?AtlMessageBox@WTL@@YAHPAUHWND__@@V_U_STRINGorID@ATL@@1I@Z 10005e07 f i mdump.obj
 0001:00004f30       ?Bool@?$GenericDocument@U?$UTF16@_W@rapidjson@@V?$MemoryPoolAllocator@VCrtAllocator@rapidjson@@@2@VCrtAllocator@2@@rapidjson@@QAE_N_N@Z 10005f30 f i mdump.obj
 0001:00004f73       ?Clear@?$MemoryPoolAllocator@VCrtAllocator@rapidjson@@@rapidjson@@QAEXXZ 10005f73 f i mdump.obj
 0001:00004f94       ?CreateReportThreaded@MiniDumper@@SGIPAX@Z 10005f94 f   mdump.obj
 0001:00005311       ?Delete@?$CStringT@_WV?$StrTraitATL@_WV?$ChTraitsCRT@_W@ATL@@@ATL@@@ATL@@QAEHHH@Z 10006311 f i mdump.obj
 0001:0000538f       ?Delta@TotalUptimeAndCrashCalculator@@QAE_JU_SYSTEMTIME@@0@Z 1000638f f i mdump.obj
 0001:000053eb       ?Destroy@?$GenericDocument@U?$UTF16@_W@rapidjson@@V?$MemoryPoolAllocator@VCrtAllocator@rapidjson@@@2@VCrtAllocator@2@@rapidjson@@AAEXXZ 100063eb f i mdump.obj
 0001:00005406       ?Destroy@?$Stack@VCrtAllocator@rapidjson@@@internal@rapidjson@@AAEXXZ 10006406 f i mdump.obj
 0001:00005420       ?Double@?$GenericDocument@U?$UTF16@_W@rapidjson@@V?$MemoryPoolAllocator@VCrtAllocator@rapidjson@@@2@VCrtAllocator@2@@rapidjson@@QAE_NN@Z 10006420 f i mdump.obj
 0001:00005469       ?EndArray@?$GenericDocument@U?$UTF16@_W@rapidjson@@V?$MemoryPoolAllocator@VCrtAllocator@rapidjson@@@2@VCrtAllocator@2@@rapidjson@@QAE_NI@Z 10006469 f i mdump.obj
 0001:0000548f       ?EndObject@?$GenericDocument@U?$UTF16@_W@rapidjson@@V?$MemoryPoolAllocator@VCrtAllocator@rapidjson@@@2@VCrtAllocator@2@@rapidjson@@QAE_NI@Z 1000648f f i mdump.obj
 0001:000054b5       ?ExceptionHandler@MiniDumper@@SGJPAU_EXCEPTION_POINTERS@@K@Z 100064b5 f   mdump.obj
 0001:00005783       ?FastPath@internal@rapidjson@@YANNH@Z 10006783 f i mdump.obj
 0001:000057b6       ?FindMember@?$GenericValue@U?$UTF16@_W@rapidjson@@V?$MemoryPoolAllocator@VCrtAllocator@rapidjson@@@2@@rapidjson@@QAE?AV?$GenericMemberIterator@$0A@U?$UTF16@_W@rapidjson@@V?$MemoryPoolAllocator@VCrtAllocator@rapidjson@@@2@@2@PB_W@Z 100067b6 f i mdump.obj
 0001:00005813       ?Format@?$CStringT@_WV?$StrTraitATL@_WV?$ChTraitsCRT@_W@ATL@@@ATL@@@ATL@@QAAXPB_WZZ 10006813 f i mdump.obj
 0001:00005827       ?Format@?$ChTraitsCRT@_W@ATL@@SAHPA_WIPB_WPAD@Z 10006827 f i mdump.obj
 0001:00005858       ?FormatMessageV@?$CStringT@_WV?$StrTraitATL@_WV?$ChTraitsCRT@_W@ATL@@@ATL@@@ATL@@QAEXPB_WPAPAD@Z 10006858 f i mdump.obj
 0001:0000597e       ?FormatMessageW@?$CStringT@_WV?$StrTraitATL@_WV?$ChTraitsCRT@_W@ATL@@@ATL@@@ATL@@QAAXIZZ 1000697e f i mdump.obj
 0001:00005a04       ?FormatV@?$CStringT@_WV?$StrTraitATL@_WV?$ChTraitsCRT@_W@ATL@@@ATL@@@ATL@@QAEXPB_WPAD@Z 10006a04 f i mdump.obj
 0001:00005a8a       ?FreeGuardMemory@MiniDumper@@QAE_NXZ 10006a8a f   mdump.obj
 0001:00005aa8       ?GetBuffer@?$CSimpleStringT@_W$0A@@ATL@@QAEPA_WXZ 10006aa8 f i mdump.obj
 0001:00005abf       ?GetDouble@?$GenericValue@U?$UTF16@_W@rapidjson@@V?$MemoryPoolAllocator@VCrtAllocator@rapidjson@@@2@@rapidjson@@QBENXZ 10006abf f i mdump.obj
 0001:00005b2c       ?GetFormattedLength@?$ChTraitsCRT@_W@ATL@@SAHPB_WPAD@Z 10006b2c f i mdump.obj
 0001:00005b5a       ?GetFullDumpEnabledStatus@MiniDumper@@SA_NXZ 10006b5a f   mdump.obj
 0001:00005e4f       ?GetMFA@MiniDumper@@SA_NPAXPA_WH@Z 10006e4f f   mdump.obj
 0001:00005f64       ?GetStringLength@?$GenericValue@U?$UTF16@_W@rapidjson@@V?$MemoryPoolAllocator@VCrtAllocator@rapidjson@@@2@@rapidjson@@QBEIXZ 10006f64 f i mdump.obj
 0001:00005f7f       ?Int64@?$GenericDocument@U?$UTF16@_W@rapidjson@@V?$MemoryPoolAllocator@VCrtAllocator@rapidjson@@@2@VCrtAllocator@2@@rapidjson@@QAE_N_J@Z 10006f7f f i mdump.obj
 0001:00005fb7       ?Int@?$GenericDocument@U?$UTF16@_W@rapidjson@@V?$MemoryPoolAllocator@VCrtAllocator@rapidjson@@@2@VCrtAllocator@2@@rapidjson@@QAE_NH@Z 10006fb7 f i mdump.obj
 0001:00005fec       ?IsError@ParseResult@rapidjson@@QBE_NXZ 10006fec f i mdump.obj
 0001:00005ff3       ?LaunchHangDetection@MiniDumper@@QAEX_N@Z 10006ff3 f   mdump.obj
 0001:0000615e       ?MakeLower@?$CStringT@_WV?$StrTraitATL@_WV?$ChTraitsCRT@_W@ATL@@@ATL@@@ATL@@QAEAAV12@XZ 1000715e f i mdump.obj
 0001:00006186       ?Malloc@?$MemoryPoolAllocator@VCrtAllocator@rapidjson@@@rapidjson@@QAEPAXI@Z 10007186 f i mdump.obj
 0001:000061d8       ?Null@?$GenericDocument@U?$UTF16@_W@rapidjson@@V?$MemoryPoolAllocator@VCrtAllocator@rapidjson@@@2@VCrtAllocator@2@@rapidjson@@QAE_NXZ 100071d8 f i mdump.obj
 0001:00006207       ?Realloc@CrtAllocator@rapidjson@@QAEPAXPAXII@Z 10007207 f i mdump.obj
 0001:0000622d       ?ReleaseBuffer@?$CSimpleStringT@_W$0A@@ATL@@QAEXH@Z 1000722d f i mdump.obj
 0001:00006259       ?Resize@?$Stack@VCrtAllocator@rapidjson@@@internal@rapidjson@@AAEXI@Z 10007259 f i mdump.obj
 0001:00006291       ?ResolveMiniDumpType@MiniDumper@@SA?AW4_BS_MINIDUMP_TYPE@MiniDmpSender@@XZ 10007291 f   mdump.obj
 0001:000062d1       ?SendReportThreaded@MiniDumper@@SGIPAX@Z 100072d1 f   mdump.obj
 0001:000067a4       ?SetArrayRaw@?$GenericValue@U?$UTF16@_W@rapidjson@@V?$MemoryPoolAllocator@VCrtAllocator@rapidjson@@@2@@rapidjson@@AAEXPAV12@IAAV?$MemoryPoolAllocator@VCrtAllocator@rapidjson@@@2@@Z 100077a4 f i mdump.obj
 0001:000067ea       ?SetObjectRaw@?$GenericValue@U?$UTF16@_W@rapidjson@@V?$MemoryPoolAllocator@VCrtAllocator@rapidjson@@@2@@rapidjson@@AAEXPAV?$GenericMember@U?$UTF16@_W@rapidjson@@V?$MemoryPoolAllocator@VCrtAllocator@rapidjson@@@2@@2@IAAV?$MemoryPoolAllocator@VCrtAllocator@rapidjson@@@2@@Z 100077ea f i mdump.obj
 0001:00006830       ?SetStringRaw@?$GenericValue@U?$UTF16@_W@rapidjson@@V?$MemoryPoolAllocator@VCrtAllocator@rapidjson@@@2@@rapidjson@@AAEXU?$GenericStringRef@_W@2@AAV?$MemoryPoolAllocator@VCrtAllocator@rapidjson@@@2@@Z 10007830 f i mdump.obj
 0001:00006895       ?ShrinkToFit@?$Stack@VCrtAllocator@rapidjson@@@internal@rapidjson@@QAEXXZ 10007895 f i mdump.obj
 0001:000068c1       ?StartArray@?$GenericDocument@U?$UTF16@_W@rapidjson@@V?$MemoryPoolAllocator@VCrtAllocator@rapidjson@@@2@VCrtAllocator@2@@rapidjson@@QAE_NXZ 100078c1 f i mdump.obj
 0001:000068f9       ?StartObject@?$GenericDocument@U?$UTF16@_W@rapidjson@@V?$MemoryPoolAllocator@VCrtAllocator@rapidjson@@@2@VCrtAllocator@2@@rapidjson@@QAE_NXZ 100078f9 f i mdump.obj
 0001:00006931       ?String@?$GenericDocument@U?$UTF16@_W@rapidjson@@V?$MemoryPoolAllocator@VCrtAllocator@rapidjson@@@2@VCrtAllocator@2@@rapidjson@@QAE_NPB_WI_N@Z 10007931 f i mdump.obj
 0001:000069b9       ?StringLowercase@?$ChTraitsCRT@_W@ATL@@SAPA_WPA_WI@Z 100079b9 f i mdump.obj
 0001:000069d5       ?StrtodNormalPrecision@internal@rapidjson@@YANNH@Z 100079d5 f i mdump.obj
 0001:00006a0c       ?TerminateHangDetection@MiniDumper@@QAEXXZ 10007a0c f   mdump.obj
 0001:00006a40       ?TopLevelUnhandledExceptionFilter@MiniDumper@@SGJPAU_EXCEPTION_POINTERS@@@Z 10007a40 f   mdump.obj
 0001:00006aa4       ?TrimLeft@?$CStringT@_WV?$StrTraitATL@_WV?$ChTraitsCRT@_W@ATL@@@ATL@@@ATL@@QAEAAV12@XZ 10007aa4 f i mdump.obj
 0001:00006b08       ?TrimRight@?$CStringT@_WV?$StrTraitATL@_WV?$ChTraitsCRT@_W@ATL@@@ATL@@@ATL@@QAEAAV12@XZ 10007b08 f i mdump.obj
 0001:00006b5e       ?Uint64@?$GenericDocument@U?$UTF16@_W@rapidjson@@V?$MemoryPoolAllocator@VCrtAllocator@rapidjson@@@2@VCrtAllocator@2@@rapidjson@@QAE_N_K@Z 10007b5e f i mdump.obj
 0001:00006b96       ?Uint@?$GenericDocument@U?$UTF16@_W@rapidjson@@V?$MemoryPoolAllocator@VCrtAllocator@rapidjson@@@2@VCrtAllocator@2@@rapidjson@@QAE_NI@Z 10007b96 f i mdump.obj
 0001:00006bcb       ?_Calculate_growth@?$vector@V?$CStringT@_WV?$StrTraitATL@_WV?$ChTraitsCRT@_W@ATL@@@ATL@@@ATL@@V?$allocator@V?$CStringT@_WV?$StrTraitATL@_WV?$ChTraitsCRT@_W@ATL@@@ATL@@@ATL@@@std@@@std@@ABEII@Z 10007bcb f i mdump.obj
 0001:00006bf7       ?_Change_array@?$vector@V?$CStringT@_WV?$StrTraitATL@_WV?$ChTraitsCRT@_W@ATL@@@ATL@@@ATL@@V?$allocator@V?$CStringT@_WV?$StrTraitATL@_WV?$ChTraitsCRT@_W@ATL@@@ATL@@@ATL@@@std@@@std@@AAEXQAV?$CStringT@_WV?$StrTraitATL@_WV?$ChTraitsCRT@_W@ATL@@@ATL@@@ATL@@II@Z 10007bf7 f i mdump.obj
 0001:00006c3c       ?_Destroy@?$vector@V?$CStringT@_WV?$StrTraitATL@_WV?$ChTraitsCRT@_W@ATL@@@ATL@@@ATL@@V?$allocator@V?$CStringT@_WV?$StrTraitATL@_WV?$ChTraitsCRT@_W@ATL@@@ATL@@@ATL@@@std@@@std@@AAEXPAV?$CStringT@_WV?$StrTraitATL@_WV?$ChTraitsCRT@_W@ATL@@@ATL@@@ATL@@0@Z 10007c3c f i mdump.obj
 0001:00006c52       ?_Tidy@?$vector@V?$CStringT@_WV?$StrTraitATL@_WV?$ChTraitsCRT@_W@ATL@@@ATL@@@ATL@@V?$allocator@V?$CStringT@_WV?$StrTraitATL@_WV?$ChTraitsCRT@_W@ATL@@@ATL@@@ATL@@@std@@@std@@AAEXXZ 10007c52 f i mdump.obj
 0001:00006c84       ?_Xlength@?$vector@V?$CStringT@_WV?$StrTraitATL@_WV?$ChTraitsCRT@_W@ATL@@@ATL@@@ATL@@V?$allocator@V?$CStringT@_WV?$StrTraitATL@_WV?$ChTraitsCRT@_W@ATL@@@ATL@@@ATL@@@std@@@std@@CAXXZ 10007c84 f i mdump.obj
 0001:00006c8f       ?allocate@?$allocator@V?$CStringT@_WV?$StrTraitATL@_WV?$ChTraitsCRT@_W@ATL@@@ATL@@@ATL@@@std@@QAEPAV?$CStringT@_WV?$StrTraitATL@_WV?$ChTraitsCRT@_W@ATL@@@ATL@@@ATL@@I@Z 10007c8f f i mdump.obj
 0001:00006cb0       ?bugsplatMessage@MiniDumper@@SAIPB_WII@Z 10007cb0 f   mdump.obj
 0001:00006ced       ?capture@TotalUptimeAndCrashCalculator@@QAEX_N@Z 10007ced f i mdump.obj
 0001:00006e43       ?createAsanReport@MiniDumper@@QAEXPBD@Z 10007e43 f   mdump.obj
 0001:00006f46       ?createReport@MiniDumper@@QAEXK@Z 10007f46 f   mdump.obj
 0001:00006f68       ?createReport@MiniDumper@@QAEXPAU_EXCEPTION_POINTERS@@@Z 10007f68 f   mdump.obj
 0001:00006f8a       ?createReport@MiniDumper@@QAEXPB_W@Z 10007f8a f   mdump.obj
 0001:00007073       ?deallocate@?$allocator@V?$CStringT@_WV?$StrTraitATL@_WV?$ChTraitsCRT@_W@ATL@@@ATL@@@ATL@@@std@@QAEXQAV?$CStringT@_WV?$StrTraitATL@_WV?$ChTraitsCRT@_W@ATL@@@ATL@@@ATL@@I@Z 10008073 f i mdump.obj
 0001:0000708b       ?debugMode@@YA_NXZ         1000808b f   mdump.obj
 0001:000070fd       ?disableNetworkAccess@MiniDumper@@QAE_N_N@Z 100080fd f   mdump.obj
 0001:0000710c       ?eatException@@YA_NK@Z     1000810c f i mdump.obj
 0001:00007181       ?enableExceptionFilter@MiniDumper@@QAE_N_N@Z 10008181 f   mdump.obj
 0001:000071a0       ?getLogFilePath@MiniDumper@@QAEPB_WXZ 100081a0 f   mdump.obj
 0001:000071a4       ?getMiniDumpType@MiniDumper@@QBE?AW4_BS_MINIDUMP_TYPE@MiniDmpSender@@XZ 100081a4 f   mdump.obj
 0001:000071aa       ?getRegistryBase@@YAXAAV?$CStringT@_WV?$StrTraitATL@_WV?$ChTraitsCRT@_W@ATL@@@ATL@@@ATL@@@Z 100081aa f   mdump.obj
 0001:000071c7       ?getRegistryRoot@@YAXAAV?$CStringT@_WV?$StrTraitATL@_WV?$ChTraitsCRT@_W@ATL@@@ATL@@@ATL@@PB_W11@Z 100081c7 f   mdump.obj
 0001:00007236       ?initExceptionHandler@MiniDumper@@QAEXPB_W000K@Z 10008236 f   mdump.obj
 0001:0000748e       ?invalid_parameter_handler@@YAXPB_W00II@Z 1000848e f i mdump.obj
 0001:00007497       ?isExceptionFilterEnabled@MiniDumper@@QBE_NXZ 10008497 f   mdump.obj
 0001:0000749d       ?isNetworkAccessDisabled@MiniDumper@@QBE_NXZ 1000849d f   mdump.obj
 0001:000074a3       ?logOutput@@YAXIPB_W_N@Z   100084a3 f   mdump.obj
 0001:000076cc       ?removeAdditionalFile@MiniDumper@@QAE_NPB_W@Z 100086cc f   mdump.obj
 0001:0000771c       ?resetDescriptionString@MiniDumper@@QAEXPB_W@Z 1000871c f   mdump.obj
 0001:00007746       ?resetVersionString@MiniDumper@@QAEXPB_W@Z 10008746 f   mdump.obj
 0001:0000776e       ?sendAdditionalFile@MiniDumper@@QAEXPB_W@Z 1000876e f   mdump.obj
 0001:000077aa       ?setCallback@MiniDumper@@QAEXP6A_NIPAX0@Z@Z 100087aa f   mdump.obj
 0001:000077b7       ?setDefaultUserDescription@MiniDumper@@QAEXPB_W@Z 100087b7 f   mdump.obj
 0001:000077e1       ?setDefaultUserEmail@MiniDumper@@QAEXPB_W@Z 100087e1 f   mdump.obj
 0001:0000780b       ?setDefaultUserName@MiniDumper@@QAEXPB_W@Z 1000880b f   mdump.obj
 0001:00007835       ?setFlags@MiniDumper@@QAE_NK@Z 10008835 f   mdump.obj
 0001:0000787d       ?setGuardByteBufferSize@MiniDumper@@QAEHH@Z 1000887d f   mdump.obj
 0001:000078a9       ?setHangDetectionTimeout@MiniDumper@@QAEHH@Z 100088a9 f   mdump.obj
 0001:000078bf       ?setLogFilePath@MiniDumper@@QAEXPB_W@Z 100088bf f   mdump.obj
 0001:000078e9       ?setMiniDumpType@MiniDumper@@QAEXW4_BS_MINIDUMP_TYPE@MiniDmpSender@@@Z 100088e9 f   mdump.obj
 0001:000078f8       ?setNotes@MiniDumper@@QAEXPB_W@Z 100088f8 f   mdump.obj
 0001:00007920       ?setResourceDllPath@MiniDumper@@QAEXPB_W@Z 10008920 f   mdump.obj
 0001:0000794a       ?setUserZipPath@MiniDumper@@QAEXPB_W@Z 1000894a f   mdump.obj
 0001:00007974       ?signal_handler@@YAXH@Z    10008974 f i mdump.obj
 0001:0000797d       ?terminator@@YAXXZ         1000897d f i mdump.obj
 0001:00007986       __fwprintf_p               10008986 f i mdump.obj
 0001:0000799f       __vfwprintf_l              1000899f f i mdump.obj
 0001:000079c2       __vfwprintf_p_l            100089c2 f i mdump.obj
 0001:00007a64       _wprintf                   10008a64 f i mdump.obj
 0001:00007a83       ??0MiniDmpSender@@QAE@PB_W000K@Z 10008a83 f   BugSplatNative.obj
 0001:00007b19       ??1MiniDmpSender@@UAE@XZ   10008b19 f   BugSplatNative.obj
 0001:00007b35       ?createAsanReport@MiniDmpSender@@QAEXPBD@Z 10008b35 f   BugSplatNative.obj
 0001:00007b41       ?createReport@MiniDmpSender@@QAEXPAU_EXCEPTION_POINTERS@@@Z 10008b41 f   BugSplatNative.obj
 0001:00007b4d       ?createReport@MiniDmpSender@@QAEXPB_W@Z 10008b4d f   BugSplatNative.obj
 0001:00007b59       ?disableNetworkAccess@MiniDmpSender@@QAE_N_N@Z 10008b59 f   BugSplatNative.obj
 0001:00007b65       ?enableExceptionFilter@MiniDmpSender@@QAE_N_N@Z 10008b65 f   BugSplatNative.obj
 0001:00007b71       ?getFlags@MiniDmpSender@@QBEKXZ 10008b71 f   BugSplatNative.obj
 0001:00007b78       ?getMiniDumpType@MiniDmpSender@@QBE?AW4_BS_MINIDUMP_TYPE@1@XZ 10008b78 f   BugSplatNative.obj
 0001:00007b80       ?getMinidumpPath@MiniDmpSender@@QAEXPA_WI@Z 10008b80 f   BugSplatNative.obj
 0001:00007b9d       ?imp@MiniDmpSender@@QAEPAXXZ 10008b9d f   BugSplatNative.obj
 0001:00007ba3       ?isExceptionFilterEnabled@MiniDmpSender@@QBE_NXZ 10008ba3 f   BugSplatNative.obj
 0001:00007bab       ?isNetworkAccessDisabled@MiniDmpSender@@QBE_NXZ 10008bab f   BugSplatNative.obj
 0001:00007bb3       ?removeAdditionalFile@MiniDmpSender@@QAE_NPB_W@Z 10008bb3 f   BugSplatNative.obj
 0001:00007bbf       ?resetAppIdentifier@MiniDmpSender@@QAEXPB_W@Z 10008bbf f   BugSplatNative.obj
 0001:00007bcb       ?resetVersionString@MiniDmpSender@@QAEXPB_W@Z 10008bcb f   BugSplatNative.obj
 0001:00007bd7       ?sendAdditionalFile@MiniDmpSender@@QAEXPB_W@Z 10008bd7 f   BugSplatNative.obj
 0001:00007be3       ?setCallback@MiniDmpSender@@QAEXP6A_NIPAX0@Z@Z 10008be3 f   BugSplatNative.obj
 0001:00007bef       ?setDefaultUserDescription@MiniDmpSender@@QAEXPB_W@Z 10008bef f   BugSplatNative.obj
 0001:00007bfb       ?setDefaultUserEmail@MiniDmpSender@@QAEXPB_W@Z 10008bfb f   BugSplatNative.obj
 0001:00007c07       ?setDefaultUserName@MiniDmpSender@@QAEXPB_W@Z 10008c07 f   BugSplatNative.obj
 0001:00007c13       ?setFlags@MiniDmpSender@@QAE_NK@Z 10008c13 f   BugSplatNative.obj
 0001:00007c1f       ?setGuardByteBufferSize@MiniDmpSender@@QAEHH@Z 10008c1f f   BugSplatNative.obj
 0001:00007c2b       ?setHangDetectionTimeout@MiniDmpSender@@QAEHH@Z 10008c2b f   BugSplatNative.obj
 0001:00007c37       ?setLogFilePath@MiniDmpSender@@QAEXPB_W@Z 10008c37 f   BugSplatNative.obj
 0001:00007c43       ?setMiniDumpType@MiniDmpSender@@QAEXW4_BS_MINIDUMP_TYPE@1@@Z 10008c43 f   BugSplatNative.obj
 0001:00007c4f       ?setNotes@MiniDmpSender@@QAEXPB_W@Z 10008c4f f   BugSplatNative.obj
 0001:00007c5b       ?setResourceDllPath@MiniDmpSender@@QAEXPB_W@Z 10008c5b f   BugSplatNative.obj
 0001:00007c67       ?setUserZipPath@MiniDmpSender@@QAEXPB_W@Z 10008c67 f   BugSplatNative.obj
 0001:00007c73       ?unhandledExceptionHandler@MiniDmpSender@@QAEJPAU_EXCEPTION_POINTERS@@@Z 10008c73 f   BugSplatNative.obj
 0001:00007c7c       ?Lock@CAtlModule@ATL@@UAEJXZ 10008c7c f i BugSplatNativeApp.obj
 0001:00007c86       ?Unlock@CAtlModule@ATL@@UAEJXZ 10008c86 f i BugSplatNativeApp.obj
 0001:00007c90       ?GetLockCount@CAtlModule@ATL@@UAEJXZ 10008c90 f i BugSplatNativeApp.obj
 0001:00007c94       ?GetGITPtr@CAtlModule@ATL@@UAEJPAPAUIGlobalInterfaceTable@@@Z 10008c94 f i BugSplatNativeApp.obj
 0001:00007ce0       ?AddCommonRGSReplacements@?$CAtlModuleT@VCComModule@ATL@@@ATL@@UAEJPAUIRegistrarBase@@@Z 10008ce0 f i BugSplatNativeApp.obj
 0001:00007cfa       ?UpdateRegistryFromResourceD@CComModule@ATL@@UAGJPB_WHPAU_ATL_REGMAP_ENTRY@2@@Z 10008cfa f i BugSplatNativeApp.obj
 0001:00007d02       ?UpdateRegistryFromResourceD@CComModule@ATL@@UAGJIHPAU_ATL_REGMAP_ENTRY@2@@Z 10008d02 f i BugSplatNativeApp.obj
 0001:00007d0a       ?UpdateRegistryFromResource@CComModule@ATL@@UAGJPB_WHPAU_ATL_REGMAP_ENTRY@2@@Z 10008d0a f i BugSplatNativeApp.obj
 0001:00007d13       ?UpdateRegistryFromResource@CComModule@ATL@@UAGJIHPAU_ATL_REGMAP_ENTRY@2@@Z 10008d13 f i BugSplatNativeApp.obj
 0001:00007d1c       ??_ECComModule@ATL@@UAEPAXI@Z 10008d1c f i BugSplatNativeApp.obj
 0001:00007d1c       ??_GCComModule@ATL@@UAEPAXI@Z 10008d1c f i BugSplatNativeApp.obj
 0001:00007d44       ??_GCAppModule@WTL@@UAEPAXI@Z 10008d44 f i BugSplatNativeApp.obj
 0001:00007d44       ??_ECAppModule@WTL@@UAEPAXI@Z 10008d44 f i BugSplatNativeApp.obj
 0001:00007d6c       ?QueryInterface@CRegObject@ATL@@UAGJABU_GUID@@PAPAX@Z 10008d6c f i BugSplatNativeApp.obj
 0001:00007d74       ?AddRef@CRegObject@ATL@@UAGKXZ 10008d74 f i BugSplatNativeApp.obj
 0001:00007d7a       ?Release@CRegObject@ATL@@UAGKXZ 10008d7a f i BugSplatNativeApp.obj
 0001:00007d7f       ?AddReplacement@CRegObject@ATL@@UAGJPB_W0@Z 10008d7f f i BugSplatNativeApp.obj
 0001:00007dde       ?ClearReplacements@CRegObject@ATL@@UAGJXZ 10008dde f i BugSplatNativeApp.obj
 0001:00007e09       ??_GCRegObject@ATL@@UAEPAXI@Z 10008e09 f i BugSplatNativeApp.obj
 0001:00007e09       ??_ECRegObject@ATL@@UAEPAXI@Z 10008e09 f i BugSplatNativeApp.obj
 0001:00007e2b       ??$AtlMultiplyThrow@I@ATL@@YAIII@Z 10008e2b f i BugSplatNativeApp.obj
 0001:00007e51       ??0CAtlComModule@ATL@@QAE@XZ 10008e51 f i BugSplatNativeApp.obj
 0001:00007e90       ??0CAtlModule@ATL@@QAE@XZ  10008e90 f i BugSplatNativeApp.obj
 0001:00007ed1       ??0CParseBuffer@CRegParser@ATL@@QAE@H@Z 10008ed1 f i BugSplatNativeApp.obj
 0001:00007f07       ??0CRegObject@ATL@@QAE@XZ  10008f07 f i BugSplatNativeApp.obj
 0001:00007f3d       ??0_ATL_COM_MODULE70@ATL@@QAE@XZ 10008f3d f i BugSplatNativeApp.obj
 0001:00007f54       ??0_ATL_MODULE70@ATL@@QAE@XZ 10008f54 f i BugSplatNativeApp.obj
 0001:00007f6b       ??1?$CAtlSafeAllocBufferManager@VCCRTAllocator@ATL@@@_ATL_SAFE_ALLOCA_IMPL@ATL@@QAE@XZ 10008f6b f i BugSplatNativeApp.obj
 0001:00007f84       ??1?$CAutoVectorPtr@_W@ATL@@QAE@XZ 10008f84 f i BugSplatNativeApp.obj
 0001:00007f94       ??1?$CTempBuffer@E$0BAA@VCCRTAllocator@ATL@@@ATL@@QAE@XZ 10008f94 f i BugSplatNativeApp.obj
 0001:00007fa0       ??1?$CTempBuffer@_W$0BAA@VCCRTAllocator@ATL@@@ATL@@QAE@XZ 10008fa0 f i BugSplatNativeApp.obj
 0001:00007fac       ??1?$CTempBuffer@_W$0EAA@VCCRTAllocator@ATL@@@ATL@@QAE@XZ 10008fac f i BugSplatNativeApp.obj
 0001:00007fb8       ??1CAtlModule@ATL@@UAE@XZ  10008fb8 f i BugSplatNativeApp.obj
 0001:00007fbd       ??1CParseBuffer@CRegParser@ATL@@QAE@XZ 10008fbd f i BugSplatNativeApp.obj
 0001:00007fc7       ??1CRegKey@ATL@@QAE@XZ     10008fc7 f i BugSplatNativeApp.obj
 0001:00007fcc       ??1CRegObject@ATL@@UAE@XZ  10008fcc f i BugSplatNativeApp.obj
 0001:00008000       ??A?$CSimpleArray@PAUHWND__@@V?$CSimpleArrayEqualHelper@PAUHWND__@@@ATL@@@ATL@@QAEAAPAUHWND__@@H@Z 10009000 f i BugSplatNativeApp.obj
 0001:00008025       ?Add@?$CSimpleMap@PA_WPA_WVCExpansionVectorEqualHelper@ATL@@@ATL@@QAEHABQA_W0@Z 10009025 f i BugSplatNativeApp.obj
 0001:0000807a       ?Add@CExpansionVector@ATL@@QAEHPB_W0@Z 1000907a f i BugSplatNativeApp.obj
 0001:00008168       ?AddString@CParseBuffer@CRegParser@ATL@@QAEHPB_W@Z 10009168 f i BugSplatNativeApp.obj
 0001:000081a4       ?AddValue@CRegParser@ATL@@IAEJAAVCRegKey@2@PB_WPA_W@Z 100091a4 f i BugSplatNativeApp.obj
 0001:00008524       ?Allocate@?$CTempBuffer@E$0BAA@VCCRTAllocator@ATL@@@ATL@@QAEPAEI@Z 10009524 f i BugSplatNativeApp.obj
 0001:00008553       ?Allocate@?$CTempBuffer@_W$0BAA@VCCRTAllocator@ATL@@@ATL@@QAEPA_WI@Z 10009553 f i BugSplatNativeApp.obj
 0001:00008582       ?Allocate@?$CTempBuffer@_W$0EAA@VCCRTAllocator@ATL@@@ATL@@QAEPA_WI@Z 10009582 f i BugSplatNativeApp.obj
 0001:000085b1       ?AllocateHeap@?$CTempBuffer@E$0BAA@VCCRTAllocator@ATL@@@ATL@@AAEXI@Z 100095b1 f i BugSplatNativeApp.obj
 0001:000085d6       ?AllocateHeap@?$CTempBuffer@_W$0BAA@VCCRTAllocator@ATL@@@ATL@@AAEXI@Z 100095d6 f i BugSplatNativeApp.obj
 0001:000085fb       ?AllocateHeap@?$CTempBuffer@_W$0EAA@VCCRTAllocator@ATL@@@ATL@@AAEXI@Z 100095fb f i BugSplatNativeApp.obj
 0001:00008620       ?Append@CParseBuffer@CRegParser@ATL@@QAEHPB_WH@Z 10009620 f i BugSplatNativeApp.obj
 0001:000086ae       ?AtlCoTaskMemCAlloc@ATL@@YAPAXKK@Z 100096ae f i BugSplatNativeApp.obj
 0001:000086db       ?AtlCoTaskMemRecalloc@ATL@@YAPAXPAXKK@Z 100096db f i BugSplatNativeApp.obj
 0001:0000870b       ?AtlHresultFromLastError@ATL@@YAJXZ 1000970b f i BugSplatNativeApp.obj
 0001:00008722       ?AtlHresultFromWin32@ATL@@YAJK@Z 10009722 f i BugSplatNativeApp.obj
 0001:00008737       ?CanForceRemoveKey@CRegParser@ATL@@IAEHPB_W@Z 10009737 f i BugSplatNativeApp.obj
 0001:00008766       ?ChToByte@CRegParser@ATL@@KAE_W@Z 10009766 f i BugSplatNativeApp.obj
 0001:000087ee       ?ClearReplacements@CExpansionVector@ATL@@QAEJXZ 100097ee f i BugSplatNativeApp.obj
 0001:0000882b       ?Close@CRegKey@ATL@@QAEJXZ 1000982b f i BugSplatNativeApp.obj
 0001:00008845       ?DeleteSubKey@CRegKey@ATL@@QAEJPB_W@Z 10009845 f i BugSplatNativeApp.obj
 0001:000088be       ?EndOfVar@CRegParser@ATL@@IAEHXZ 100098be f i BugSplatNativeApp.obj
 0001:000088de       ?EscapeSingleQuote@CAtlModule@ATL@@SAXPA_WIPB_W@Z 100098de f i BugSplatNativeApp.obj
 0001:0000892d       ?FindKey@?$CSimpleMap@PA_WPA_WVCExpansionVectorEqualHelper@ATL@@@ATL@@QBEHABQA_W@Z 1000992d f i BugSplatNativeApp.obj
 0001:00008964       ?FreeHeap@?$CTempBuffer@E$0BAA@VCCRTAllocator@ATL@@@ATL@@AAEXXZ 10009964 f i BugSplatNativeApp.obj
 0001:0000896d       ?FreeHeap@?$CTempBuffer@_W$0BAA@VCCRTAllocator@ATL@@@ATL@@AAEXXZ 1000996d f i BugSplatNativeApp.obj
 0001:00008976       ?FreeHeap@?$CTempBuffer@_W$0EAA@VCCRTAllocator@ATL@@@ATL@@AAEXXZ 10009976 f i BugSplatNativeApp.obj
 0001:0000897f       ?GetKeyAt@?$CSimpleMap@PA_WPA_WVCExpansionVectorEqualHelper@ATL@@@ATL@@QBEAAPA_WH@Z 1000997f f i BugSplatNativeApp.obj
 0001:000089a4       ?GetValueAt@?$CSimpleMap@PA_WPA_WVCExpansionVectorEqualHelper@ATL@@@ATL@@QBEAAPA_WH@Z 100099a4 f i BugSplatNativeApp.obj
 0001:000089ca       ?HKeyFromString@CRegParser@ATL@@KAPAUHKEY__@@PA_W@Z 100099ca f i BugSplatNativeApp.obj
 0001:000089f8       ?HasSubKeys@CRegParser@ATL@@IAEHPAUHKEY__@@@Z 100099f8 f i BugSplatNativeApp.obj
 0001:00008a2d       ?Init@CAppModule@WTL@@QAEJPAU_ATL_OBJMAP_ENTRY30@ATL@@PAUHINSTANCE__@@PBU_GUID@@@Z 10009a2d f i BugSplatNativeApp.obj
 0001:00008ab1       ?Init@CComCriticalSection@ATL@@QAEJXZ 10009ab1 f i BugSplatNativeApp.obj
 0001:00008ad9       ?Init@CComModule@ATL@@QAEJPAU_ATL_OBJMAP_ENTRY30@2@PAUHINSTANCE__@@PBU_GUID@@@Z 10009ad9 f i BugSplatNativeApp.obj
 0001:00008b38       ?InternalSetAtIndex@?$CSimpleMap@PA_WPA_WVCExpansionVectorEqualHelper@ATL@@@ATL@@QAEXHABQA_W0@Z 10009b38 f i BugSplatNativeApp.obj
 0001:00008b6c       ?IsSpace@CRegParser@ATL@@IAEH_W@Z 10009b6c f i BugSplatNativeApp.obj
 0001:00008b92       ?Lookup@?$CSimpleMap@PA_WPA_WVCExpansionVectorEqualHelper@ATL@@@ATL@@QBEPA_WABQA_W@Z 10009b92 f i BugSplatNativeApp.obj
 0001:00008bb8       ?NextToken@CRegParser@ATL@@IAEJPA_W@Z 10009bb8 f i BugSplatNativeApp.obj
 0001:00008cf0       ?Open@CRegKey@ATL@@QAEJPAUHKEY__@@PB_WK@Z 10009cf0 f i BugSplatNativeApp.obj
 0001:00008d45       ?PreProcessBuffer@CRegParser@ATL@@QAEJPA_WPAPA_W@Z 10009d45 f i BugSplatNativeApp.obj
 0001:00008f92       ?RecurseDeleteKey@CRegKey@ATL@@QAEJPB_W@Z 10009f92 f i BugSplatNativeApp.obj
 0001:00009080       ?RegCreateKeyExW@CAtlTransactionManager@ATL@@QAEJPAUHKEY__@@PB_WKPA_WKKQAU_SECURITY_ATTRIBUTES@@PAPAU3@PAK@Z 1000a080 f i BugSplatNativeApp.obj
 0001:000090e3       ?RegDeleteKeyW@CAtlTransactionManager@ATL@@QAEJPAUHKEY__@@PB_W@Z 1000a0e3 f i BugSplatNativeApp.obj
 0001:00009135       ?RegOpenKeyExW@CAtlTransactionManager@ATL@@QAEJPAUHKEY__@@PB_WKKPAPAU3@@Z 1000a135 f i BugSplatNativeApp.obj
 0001:0000918c       ?RegisterBuffer@CRegParser@ATL@@QAEJPA_WH@Z 1000a18c f i BugSplatNativeApp.obj
 0001:000092d3       ?RegisterFromResource@CRegObject@ATL@@IAEJPB_W00H@Z 1000a2d3 f i BugSplatNativeApp.obj
 0001:0000944a       ?RegisterSubkeys@CRegParser@ATL@@IAEJPA_WPAUHKEY__@@HH@Z 1000a44a f i BugSplatNativeApp.obj
 0001:00009ac9       ?RemoveAll@?$CSimpleArray@PAUHWND__@@V?$CSimpleArrayEqualHelper@PAUHWND__@@@ATL@@@ATL@@QAEXXZ 1000aac9 f i BugSplatNativeApp.obj
 0001:00009ae6       ?RemoveAll@?$CSimpleMap@KPAVCMessageLoop@WTL@@V?$CSimpleMapEqualHelper@KPAVCMessageLoop@WTL@@@ATL@@@ATL@@QAEXXZ 1000aae6 f i BugSplatNativeApp.obj
 0001:00009b12       ?RemoveAll@?$CSimpleMap@PA_WPA_WVCExpansionVectorEqualHelper@ATL@@@ATL@@QAEXXZ 1000ab12 f i BugSplatNativeApp.obj
 0001:00009b3e       ?ResourceRegister@CRegObject@ATL@@QAGJPB_WI0@Z 1000ab3e f i BugSplatNativeApp.obj
 0001:00009b6f       ?ResourceRegisterSz@CRegObject@ATL@@QAGJPB_W00@Z 1000ab6f f i BugSplatNativeApp.obj
 0001:00009bb1       ?ResourceUnregister@CRegObject@ATL@@QAGJPB_WI0@Z 1000abb1 f i BugSplatNativeApp.obj
 0001:00009be1       ?ResourceUnregisterSz@CRegObject@ATL@@QAGJPB_W00@Z 1000abe1 f i BugSplatNativeApp.obj
 0001:00009c20       ?SetMultiStringValue@CRegKey@ATL@@QAEJPB_W0@Z 1000ac20 f i BugSplatNativeApp.obj
 0001:00009c68       ?SetStringValue@CRegKey@ATL@@QAEJPB_W0K@Z 1000ac68 f i BugSplatNativeApp.obj
 0001:00009ca2       ?SkipAssignment@CRegParser@ATL@@IAEJPA_W@Z 1000aca2 f i BugSplatNativeApp.obj
 0001:00009d07       ?SkipWhiteSpace@CRegParser@ATL@@IAEXXZ 1000ad07 f i BugSplatNativeApp.obj
 0001:00009d29       ?StrChrW@CRegParser@ATL@@KAPA_WPA_W_W@Z 1000ad29 f i BugSplatNativeApp.obj
 0001:00009d66       ?StrFromMap@CRegObject@ATL@@QAEPB_WPA_W@Z 1000ad66 f i BugSplatNativeApp.obj
 0001:00009d94       ?Term@CAppModule@WTL@@QAEXXZ 1000ad94 f i BugSplatNativeApp.obj
 0001:00009dbe       ?Term@CAtlComModule@ATL@@QAEXXZ 1000adbe f i BugSplatNativeApp.obj
 0001:00009e08       ?Term@CAtlModule@ATL@@QAEXXZ 1000ae08 f i BugSplatNativeApp.obj
 0001:00009e5b       ?Term@CComModule@ATL@@QAEXXZ 1000ae5b f i BugSplatNativeApp.obj
 0001:00009eb3       ?TermSettingChangeNotify@CAppModule@WTL@@QAEXXZ 1000aeb3 f i BugSplatNativeApp.obj
 0001:00009f0d       ?UpdateRegistryFromResource@CAtlModule@ATL@@QAGJIHPAU_ATL_REGMAP_ENTRY@2@@Z 1000af0d f i BugSplatNativeApp.obj
 0001:0000a0d2       ?UpdateRegistryFromResource@CAtlModule@ATL@@QAGJPB_WHPAU_ATL_REGMAP_ENTRY@2@@Z 1000b0d2 f i BugSplatNativeApp.obj
 0001:0000a29a       ?VTFromRegType@CRegParser@ATL@@KAHPB_WAAG@Z 1000b29a f i BugSplatNativeApp.obj
 0001:0000a307       ?_AtlInitializeCriticalSectionEx@ATL@@YAHPAU_RTL_CRITICAL_SECTION@@KK@Z 1000b307 f i BugSplatNativeApp.obj
 0001:0000a31b       ?_AtlRaiseException@ATL@@YAXKK@Z 1000b31b f i BugSplatNativeApp.obj
 0001:0000a330       ?ocscpy_s@@YA_NPA_WIPB_W@Z 1000b330 f i BugSplatNativeApp.obj
 0001:0000a36a       _DllMain@12                1000b36a f   BugSplatNativeApp.obj
 0001:0000a41c       ??0CAtlWinModule@ATL@@QAE@XZ 1000b41c f i StdAfx.obj
 0001:0000a44a       ??0_ATL_WIN_MODULE70@ATL@@QAE@XZ 1000b44a f i StdAfx.obj
 0001:0000a475       ??1stringdispid@CComTypeInfoHolder@ATL@@QAE@XZ 1000b475 f i StdAfx.obj
 0001:0000a47e       ??A?$CSimpleArray@GV?$CSimpleArrayEqualHelper@G@ATL@@@ATL@@QAEAAGH@Z 1000b47e f i StdAfx.obj
 0001:0000a4a3       ??_Estringdispid@CComTypeInfoHolder@ATL@@QAEPAXI@Z 1000b4a3 f i StdAfx.obj
 0001:0000a52e       ?AtlWinModuleInit@ATL@@YGJPAU_ATL_WIN_MODULE70@1@@Z 1000b52e f i StdAfx.obj
 0001:0000a554       ?AtlWinModuleTerm@ATL@@YGJPAU_ATL_WIN_MODULE70@1@PAUHINSTANCE__@@@Z 1000b554 f i StdAfx.obj
 0001:0000a5b7       ?RemoveAll@?$CSimpleArray@GV?$CSimpleArrayEqualHelper@G@ATL@@@ATL@@QAEXXZ 1000b5b7 f i StdAfx.obj
 0001:0000a5d4       _InternetOpenW@20          1000b5d4 f   wininet:WININET.dll
 0001:0000a5da       _InternetCloseHandle@4     1000b5da f   wininet:WININET.dll
 0001:0000a5e0       _InternetConnectW@32       1000b5e0 f   wininet:WININET.dll
 0001:0000a5e6       _InternetReadFile@16       1000b5e6 f   wininet:WININET.dll
 0001:0000a5ec       _InternetQueryOptionW@16   1000b5ec f   wininet:WININET.dll
 0001:0000a5f2       _InternetSetOptionW@16     1000b5f2 f   wininet:WININET.dll
 0001:0000a5f8       _HttpOpenRequestW@32       1000b5f8 f   wininet:WININET.dll
 0001:0000a5fe       _HttpSendRequestW@20       1000b5fe f   wininet:WININET.dll
 0001:0000a604       _HttpQueryInfoW@20         1000b604 f   wininet:WININET.dll
 0001:0000a60a       _InternetAttemptConnect@4  1000b60a f   wininet:WININET.dll
 0001:0000a610       _PathFileExistsW@4         1000b610 f   shlwapi:SHLWAPI.dll
 0001:0000a616       _PathAppendW@8             1000b616 f   shlwapi:SHLWAPI.dll
 0001:0000a61c       _PathRemoveExtensionW@4    1000b61c f   shlwapi:SHLWAPI.dll
 0001:0000a622       _PathStripPathW@4          1000b622 f   shlwapi:SHLWAPI.dll
 0001:0000a628       _UrlEscapeW@16             1000b628 f   shlwapi:SHLWAPI.dll
 0001:0000a62e       _CreateFileW@28            1000b62e f   kernel32:KERNEL32.dll
 0001:0000a634       _GetFileSize@8             1000b634 f   kernel32:KERNEL32.dll
 0001:0000a63a       _CloseHandle@4             1000b63a f   kernel32:KERNEL32.dll
 0001:0000a640       _GetLastError@0            1000b640 f   kernel32:KERNEL32.dll
 0001:0000a646       _HeapDestroy@4             1000b646 f   kernel32:KERNEL32.dll
 0001:0000a64c       _HeapAlloc@12              1000b64c f   kernel32:KERNEL32.dll
 0001:0000a652       _HeapReAlloc@16            1000b652 f   kernel32:KERNEL32.dll
 0001:0000a658       _HeapFree@12               1000b658 f   kernel32:KERNEL32.dll
 0001:0000a65e       _HeapSize@12               1000b65e f   kernel32:KERNEL32.dll
 0001:0000a664       _GetProcessHeap@0          1000b664 f   kernel32:KERNEL32.dll
 0001:0000a66a       _CreateFileMappingW@24     1000b66a f   kernel32:KERNEL32.dll
 0001:0000a670       _MapViewOfFile@20          1000b670 f   kernel32:KERNEL32.dll
 0001:0000a676       _UnmapViewOfFile@4         1000b676 f   kernel32:KERNEL32.dll
 0001:0000a67c       _FindResourceExW@16        1000b67c f   kernel32:KERNEL32.dll
 0001:0000a682       _LoadResource@8            1000b682 f   kernel32:KERNEL32.dll
 0001:0000a688       _LockResource@4            1000b688 f   kernel32:KERNEL32.dll
 0001:0000a68e       _SizeofResource@8          1000b68e f   kernel32:KERNEL32.dll
 0001:0000a694       _FindResourceW@12          1000b694 f   kernel32:KERNEL32.dll
 0001:0000a69a       _MultiByteToWideChar@24    1000b69a f   kernel32:KERNEL32.dll
 0001:0000a6a0       _WideCharToMultiByte@32    1000b6a0 f   kernel32:KERNEL32.dll
 0001:0000a6a6       _DeleteFileW@4             1000b6a6 f   kernel32:KERNEL32.dll
 0001:0000a6ac       _GetTempPathW@8            1000b6ac f   kernel32:KERNEL32.dll
 0001:0000a6b2       _GetCurrentProcess@0       1000b6b2 f   kernel32:KERNEL32.dll
 0001:0000a6b8       _GetCurrentProcessId@0     1000b6b8 f   kernel32:KERNEL32.dll
 0001:0000a6be       _GetCurrentThreadId@0      1000b6be f   kernel32:KERNEL32.dll
 0001:0000a6c4       _OpenThread@12             1000b6c4 f   kernel32:KERNEL32.dll
 0001:0000a6ca       _SuspendThread@4           1000b6ca f   kernel32:KERNEL32.dll
 0001:0000a6d0       _ResumeThread@4            1000b6d0 f   kernel32:KERNEL32.dll
 0001:0000a6d6       _GetProcessId@4            1000b6d6 f   kernel32:KERNEL32.dll
 0001:0000a6dc       _GetThreadContext@8        1000b6dc f   kernel32:KERNEL32.dll
 0001:0000a6e2       _GetProcAddress@8          1000b6e2 f   kernel32:KERNEL32.dll
 0001:0000a6e8       _LoadLibraryW@4            1000b6e8 f   kernel32:KERNEL32.dll
 0001:0000a6ee       _LocalFree@4               1000b6ee f   kernel32:KERNEL32.dll
 0001:0000a6f4       _FormatMessageW@28         1000b6f4 f   kernel32:KERNEL32.dll
 0001:0000a6fa       _CreateToolhelp32Snapshot@8 1000b6fa f   kernel32:KERNEL32.dll
 0001:0000a700       _Thread32First@8           1000b700 f   kernel32:KERNEL32.dll
 0001:0000a706       _Thread32Next@8            1000b706 f   kernel32:KERNEL32.dll
 0001:0000a70c       _OutputDebugStringW@4      1000b70c f   kernel32:KERNEL32.dll
 0001:0000a712       _SetUnhandledExceptionFilter@4 1000b712 f   kernel32:KERNEL32.dll
 0001:0000a718       _SetLastError@4            1000b718 f   kernel32:KERNEL32.dll
 0001:0000a71e       _SetErrorMode@4            1000b71e f   kernel32:KERNEL32.dll
 0001:0000a724       _EnterCriticalSection@4    1000b724 f   kernel32:KERNEL32.dll
 0001:0000a72a       _LeaveCriticalSection@4    1000b72a f   kernel32:KERNEL32.dll
 0001:0000a730       _InitializeCriticalSectionAndSpinCount@8 1000b730 f   kernel32:KERNEL32.dll
 0001:0000a736       _WaitForSingleObject@8     1000b736 f   kernel32:KERNEL32.dll
 0001:0000a73c       _TerminateProcess@8        1000b73c f   kernel32:KERNEL32.dll
 0001:0000a742       _CreateProcessW@40         1000b742 f   kernel32:KERNEL32.dll
 0001:0000a748       _FlushInstructionCache@12  1000b748 f   kernel32:KERNEL32.dll
 0001:0000a74e       _OpenProcess@12            1000b74e f   kernel32:KERNEL32.dll
 0001:0000a754       _GetSystemTime@4           1000b754 f   kernel32:KERNEL32.dll
 0001:0000a75a       _VirtualProtect@16         1000b75a f   kernel32:KERNEL32.dll
 0001:0000a760       _VirtualQuery@12           1000b760 f   kernel32:KERNEL32.dll
 0001:0000a766       _FreeLibrary@4             1000b766 f   kernel32:KERNEL32.dll
 0001:0000a76c       _GetModuleFileNameW@12     1000b76c f   kernel32:KERNEL32.dll
 0001:0000a772       _GetModuleHandleW@4        1000b772 f   kernel32:KERNEL32.dll
 0001:0000a778       _WritePrivateProfileStringW@16 1000b778 f   kernel32:KERNEL32.dll
 0001:0000a77e       _SystemTimeToFileTime@8    1000b77e f   kernel32:KERNEL32.dll
 0001:0000a784       _DecodePointer@4           1000b784 f   kernel32:KERNEL32.dll
 0001:0000a78a       _RaiseException@16         1000b78a f   kernel32:KERNEL32.dll
 0001:0000a790       _InitializeCriticalSectionEx@12 1000b790 f   kernel32:KERNEL32.dll
 0001:0000a796       _DeleteCriticalSection@4   1000b796 f   kernel32:KERNEL32.dll
 0001:0000a79c       _LoadLibraryExW@12         1000b79c f   kernel32:KERNEL32.dll
 0001:0000a7a2       _lstrcmpiW@8               1000b7a2 f   kernel32:KERNEL32.dll
 0001:0000a7a8       _MessageBoxW@16            1000b7a8 f   user32:USER32.dll
 0001:0000a7ae       _LoadStringW@16            1000b7ae f   user32:USER32.dll
 0001:0000a7b4       _DestroyWindow@4           1000b7b4 f   user32:USER32.dll
 0001:0000a7ba       _CharNextW@4               1000b7ba f   user32:USER32.dll
 0001:0000a7c0       _UnregisterClassW@8        1000b7c0 f   user32:USER32.dll
 0001:0000a7c6       _RegCloseKey@4             1000b7c6 f   advapi32:ADVAPI32.dll
 0001:0000a7cc       _RegOpenKeyExW@20          1000b7cc f   advapi32:ADVAPI32.dll
 0001:0000a7d2       _RegQueryValueExW@24       1000b7d2 f   advapi32:ADVAPI32.dll
 0001:0000a7d8       _RegCreateKeyW@12          1000b7d8 f   advapi32:ADVAPI32.dll
 0001:0000a7de       _RegOpenKeyW@12            1000b7de f   advapi32:ADVAPI32.dll
 0001:0000a7e4       _RegSetValueExW@24         1000b7e4 f   advapi32:ADVAPI32.dll
 0001:0000a7ea       _RegCreateKeyExW@36        1000b7ea f   advapi32:ADVAPI32.dll
 0001:0000a7f0       _RegDeleteKeyW@8           1000b7f0 f   advapi32:ADVAPI32.dll
 0001:0000a7f6       _RegDeleteValueW@8         1000b7f6 f   advapi32:ADVAPI32.dll
 0001:0000a7fc       _RegEnumKeyExW@32          1000b7fc f   advapi32:ADVAPI32.dll
 0001:0000a802       _RegQueryInfoKeyW@48       1000b802 f   advapi32:ADVAPI32.dll
 0001:0000a808       _CoCreateInstance@20       1000b808 f   ole32:ole32.dll
 0001:0000a80e       _CoTaskMemAlloc@4          1000b80e f   ole32:ole32.dll
 0001:0000a814       _CoTaskMemRealloc@8        1000b814 f   ole32:ole32.dll
 0001:0000a81a       _CoTaskMemFree@4           1000b81a f   ole32:ole32.dll
 0001:0000a820       _VarUI4FromStr@16          1000b820 f   oleaut32:OLEAUT32.dll
 0001:0000a826       _SysFreeString@4           1000b826 f   oleaut32:OLEAUT32.dll
 0001:0000a82c       ??$?2PAUHINSTANCE__@@@Wrapper@?$CSimpleArray@PAUHINSTANCE__@@V?$CSimpleArrayEqualHelper@PAUHINSTANCE__@@@ATL@@@ATL@@SAPAXIPAPAUHINSTANCE__@@@Z 1000b82c f i atls:atlbase.obj
 0001:0000a834       ??0?$CComCritSecLock@VCComCriticalSection@ATL@@@ATL@@QAE@AAVCComCriticalSection@1@_N@Z 1000b834 f i atls:atlbase.obj
 0001:0000a85b       ??0?$CSimpleArray@PAUHINSTANCE__@@V?$CSimpleArrayEqualHelper@PAUHINSTANCE__@@@ATL@@@ATL@@QAE@XZ 1000b85b f i atls:atlbase.obj
 0001:0000a868       ??0CAtlBaseModule@ATL@@QAE@XZ 1000b868 f   atls:atlbase.obj
 0001:0000a8bb       ??0CComCriticalSection@ATL@@QAE@XZ 1000b8bb f i atls:atlbase.obj
 0001:0000a8cf       ??0Wrapper@?$CSimpleArray@PAUHINSTANCE__@@V?$CSimpleArrayEqualHelper@PAUHINSTANCE__@@@ATL@@@ATL@@QAE@ABQAUHINSTANCE__@@@Z 1000b8cf f i atls:atlbase.obj
 0001:0000a8df       ??0_ATL_BASE_MODULE70@ATL@@QAE@XZ 1000b8df f i atls:atlbase.obj
 0001:0000a902       ??1?$CComCritSecLock@VCComCriticalSection@ATL@@@ATL@@QAE@XZ 1000b902 f i atls:atlbase.obj
 0001:0000a919       ??1?$CSimpleArray@PAUHINSTANCE__@@V?$CSimpleArrayEqualHelper@PAUHINSTANCE__@@@ATL@@@ATL@@QAE@XZ 1000b919 f i atls:atlbase.obj
 0001:0000a91e       ??1CAtlBaseModule@ATL@@QAE@XZ 1000b91e f   atls:atlbase.obj
 0001:0000a934       ??1CComCriticalSection@ATL@@QAE@XZ 1000b934 f i atls:atlbase.obj
 0001:0000a937       ??1_ATL_BASE_MODULE70@ATL@@QAE@XZ 1000b937 f i atls:atlbase.obj
 0001:0000a93f       ??A?$CSimpleArray@PAUHINSTANCE__@@V?$CSimpleArrayEqualHelper@PAUHINSTANCE__@@@ATL@@@ATL@@QAEAAPAUHINSTANCE__@@H@Z 1000b93f f i atls:atlbase.obj
 0001:0000a964       ?Add@?$CSimpleArray@PAUHINSTANCE__@@V?$CSimpleArrayEqualHelper@PAUHINSTANCE__@@@ATL@@@ATL@@QAEHABQAUHINSTANCE__@@@Z 1000b964 f i atls:atlbase.obj
 0001:0000a9e6       ?AddResourceInstance@CAtlBaseModule@ATL@@QAE_NPAUHINSTANCE__@@@Z 1000b9e6 f   atls:atlbase.obj
 0001:0000aa19       ?GetHInstanceAt@CAtlBaseModule@ATL@@QAEPAUHINSTANCE__@@H@Z 1000ba19 f   atls:atlbase.obj
 0001:0000aa5e       ?GetSize@?$CSimpleArray@PAUHINSTANCE__@@V?$CSimpleArrayEqualHelper@PAUHINSTANCE__@@@ATL@@@ATL@@QBEHXZ 1000ba5e f i atls:atlbase.obj
 0001:0000aa62       ?InternalSetAtIndex@?$CSimpleArray@PAUHINSTANCE__@@V?$CSimpleArrayEqualHelper@PAUHINSTANCE__@@@ATL@@@ATL@@QAEXHABQAUHINSTANCE__@@@Z 1000ba62 f i atls:atlbase.obj
 0001:0000aa7c       ?Lock@?$CComCritSecLock@VCComCriticalSection@ATL@@@ATL@@QAEJXZ 1000ba7c f i atls:atlbase.obj
 0001:0000aa8f       ?Lock@CComCriticalSection@ATL@@QAEJXZ 1000ba8f f i atls:atlbase.obj
 0001:0000aa99       ?RemoveAll@?$CSimpleArray@PAUHINSTANCE__@@V?$CSimpleArrayEqualHelper@PAUHINSTANCE__@@@ATL@@@ATL@@QAEXXZ 1000ba99 f i atls:atlbase.obj
 0001:0000aab6       ?RemoveAt@?$CSimpleArray@PAUHINSTANCE__@@V?$CSimpleArrayEqualHelper@PAUHINSTANCE__@@@ATL@@@ATL@@QAEHH@Z 1000bab6 f i atls:atlbase.obj
 0001:0000ab04       ?RemoveResourceInstance@CAtlBaseModule@ATL@@QAE_NPAUHINSTANCE__@@@Z 1000bb04 f   atls:atlbase.obj
 0001:0000ab61       ?Term@CComCriticalSection@ATL@@QAEJXZ 1000bb61 f i atls:atlbase.obj
 0001:0000ab6b       ?Unlock@?$CComCritSecLock@VCComCriticalSection@ATL@@@ATL@@QAEXXZ 1000bb6b f i atls:atlbase.obj
 0001:0000ab7c       ?Unlock@CComCriticalSection@ATL@@QAEJXZ 1000bb7c f i atls:atlbase.obj
 0001:0000ab86       _HRESULT_FROM_WIN32        1000bb86 f i atls:atlbase.obj
 0001:0000abe6       ??0?$CTraceCategoryEx@$00$0A@@ATL@@QAE@PB_W@Z 1000bbe6 f i atls:stdafx.obj
 0001:0000abeb       ??0?$CTraceCategoryEx@$01$0A@@ATL@@QAE@PB_W@Z 1000bbeb f i atls:stdafx.obj
 0001:0000abf0       ??0?$CTraceCategoryEx@$03$0A@@ATL@@QAE@PB_W@Z 1000bbf0 f i atls:stdafx.obj
 0001:0000abf5       ??0?$CTraceCategoryEx@$07$0A@@ATL@@QAE@PB_W@Z 1000bbf5 f i atls:stdafx.obj
 0001:0000abfa       ??0?$CTraceCategoryEx@$0BA@$0A@@ATL@@QAE@PB_W@Z 1000bbfa f i atls:stdafx.obj
 0001:0000abff       ??0?$CTraceCategoryEx@$0BAA@$0A@@ATL@@QAE@PB_W@Z 1000bbff f i atls:stdafx.obj
 0001:0000ac04       ??0?$CTraceCategoryEx@$0BAAA@$0A@@ATL@@QAE@PB_W@Z 1000bc04 f i atls:stdafx.obj
 0001:0000ac09       ??0?$CTraceCategoryEx@$0BAAAA@$0A@@ATL@@QAE@PB_W@Z 1000bc09 f i atls:stdafx.obj
 0001:0000ac0e       ??0?$CTraceCategoryEx@$0BAAAAA@$0A@@ATL@@QAE@PB_W@Z 1000bc0e f i atls:stdafx.obj
 0001:0000ac13       ??0?$CTraceCategoryEx@$0CA@$0A@@ATL@@QAE@PB_W@Z 1000bc13 f i atls:stdafx.obj
 0001:0000ac18       ??0?$CTraceCategoryEx@$0CAA@$0A@@ATL@@QAE@PB_W@Z 1000bc18 f i atls:stdafx.obj
 0001:0000ac1d       ??0?$CTraceCategoryEx@$0CAAA@$0A@@ATL@@QAE@PB_W@Z 1000bc1d f i atls:stdafx.obj
 0001:0000ac22       ??0?$CTraceCategoryEx@$0CAAAA@$0A@@ATL@@QAE@PB_W@Z 1000bc22 f i atls:stdafx.obj
 0001:0000ac27       ??0?$CTraceCategoryEx@$0CAAAAA@$0A@@ATL@@QAE@PB_W@Z 1000bc27 f i atls:stdafx.obj
 0001:0000ac2c       ??0?$CTraceCategoryEx@$0EA@$0A@@ATL@@QAE@PB_W@Z 1000bc2c f i atls:stdafx.obj
 0001:0000ac31       ??0?$CTraceCategoryEx@$0EAA@$0A@@ATL@@QAE@PB_W@Z 1000bc31 f i atls:stdafx.obj
 0001:0000ac36       ??0?$CTraceCategoryEx@$0EAAA@$0A@@ATL@@QAE@PB_W@Z 1000bc36 f i atls:stdafx.obj
 0001:0000ac3b       ??0?$CTraceCategoryEx@$0EAAAA@$0A@@ATL@@QAE@PB_W@Z 1000bc3b f i atls:stdafx.obj
 0001:0000ac40       ??0?$CTraceCategoryEx@$0EAAAAA@$0A@@ATL@@QAE@PB_W@Z 1000bc40 f i atls:stdafx.obj
 0001:0000ac45       ??0?$CTraceCategoryEx@$0IA@$0A@@ATL@@QAE@PB_W@Z 1000bc45 f i atls:stdafx.obj
 0001:0000ac4a       ??0?$CTraceCategoryEx@$0IAA@$0A@@ATL@@QAE@PB_W@Z 1000bc4a f i atls:stdafx.obj
 0001:0000ac4f       ??0?$CTraceCategoryEx@$0IAAA@$0A@@ATL@@QAE@PB_W@Z 1000bc4f f i atls:stdafx.obj
 0001:0000ac54       ??0?$CTraceCategoryEx@$0IAAAA@$0A@@ATL@@QAE@PB_W@Z 1000bc54 f i atls:stdafx.obj
 0001:0000ac59       ??_I@YGXPAXIIP6EX0@Z@Z     1000bc59 f i atls:stdafx.obj
 0001:0000ac8c       ??0bad_alloc@std@@QAE@XZ   1000bc8c f i libcpmt:xthrow.obj
 0001:0000aca4       ??0bad_function_call@std@@QAE@ABV01@@Z 1000bca4 f i libcpmt:xthrow.obj
 0001:0000acbf       ??0bad_function_call@std@@QAE@XZ 1000bcbf f i libcpmt:xthrow.obj
 0001:0000acd0       ??0exception@std@@QAE@QBD@Z 1000bcd0 f i libcpmt:xthrow.obj
 0001:0000ad05       ??0exception@std@@QAE@QBDH@Z 1000bd05 f i libcpmt:xthrow.obj
 0001:0000ad22       ??0exception@std@@QAE@XZ   1000bd22 f i libcpmt:xthrow.obj
 0001:0000ad33       ??0invalid_argument@std@@QAE@ABV01@@Z 1000bd33 f i libcpmt:xthrow.obj
 0001:0000ad4e       ??0invalid_argument@std@@QAE@PBD@Z 1000bd4e f i libcpmt:xthrow.obj
 0001:0000ad6d       ??0length_error@std@@QAE@ABV01@@Z 1000bd6d f i libcpmt:xthrow.obj
 0001:0000ad88       ??0length_error@std@@QAE@PBD@Z 1000bd88 f i libcpmt:xthrow.obj
 0001:0000ada7       ??0logic_error@std@@QAE@ABV01@@Z 1000bda7 f i libcpmt:xthrow.obj
 0001:0000adc2       ??0logic_error@std@@QAE@PBD@Z 1000bdc2 f i libcpmt:xthrow.obj
 0001:0000ade1       ??0out_of_range@std@@QAE@ABV01@@Z 1000bde1 f i libcpmt:xthrow.obj
 0001:0000adfc       ??0out_of_range@std@@QAE@PBD@Z 1000bdfc f i libcpmt:xthrow.obj
 0001:0000ae1b       ??0overflow_error@std@@QAE@ABV01@@Z 1000be1b f i libcpmt:xthrow.obj
 0001:0000ae36       ??0overflow_error@std@@QAE@PBD@Z 1000be36 f i libcpmt:xthrow.obj
 0001:0000ae55       ??0regex_error@std@@QAE@ABV01@@Z 1000be55 f i libcpmt:xthrow.obj
 0001:0000ae79       ??0regex_error@std@@QAE@W4error_type@regex_constants@1@@Z 1000be79 f i libcpmt:xthrow.obj
 0001:0000aea7       ??0runtime_error@std@@QAE@ABV01@@Z 1000bea7 f i libcpmt:xthrow.obj
 0001:0000aec2       ??0runtime_error@std@@QAE@PBD@Z 1000bec2 f i libcpmt:xthrow.obj
 0001:0000aee1       ??1bad_alloc@std@@UAE@XZ   1000bee1 f i libcpmt:xthrow.obj
 0001:0000aef2       ??1bad_function_call@std@@UAE@XZ 1000bef2 f i libcpmt:xthrow.obj
 0001:0000af03       ??1invalid_argument@std@@UAE@XZ 1000bf03 f i libcpmt:xthrow.obj
 0001:0000af14       ??1length_error@std@@UAE@XZ 1000bf14 f i libcpmt:xthrow.obj
 0001:0000af25       ??1logic_error@std@@UAE@XZ 1000bf25 f i libcpmt:xthrow.obj
 0001:0000af36       ??1out_of_range@std@@UAE@XZ 1000bf36 f i libcpmt:xthrow.obj
 0001:0000af47       ??1overflow_error@std@@UAE@XZ 1000bf47 f i libcpmt:xthrow.obj
 0001:0000af58       ??1regex_error@std@@UAE@XZ 1000bf58 f i libcpmt:xthrow.obj
 0001:0000af69       ??1runtime_error@std@@UAE@XZ 1000bf69 f i libcpmt:xthrow.obj
 0001:0000af7a       ??_Ebad_function_call@std@@UAEPAXI@Z 1000bf7a f i libcpmt:xthrow.obj
 0001:0000af7a       ??_Gbad_function_call@std@@UAEPAXI@Z 1000bf7a f i libcpmt:xthrow.obj
 0001:0000afa7       ??_Einvalid_argument@std@@UAEPAXI@Z 1000bfa7 f i libcpmt:xthrow.obj
 0001:0000afa7       ??_Ginvalid_argument@std@@UAEPAXI@Z 1000bfa7 f i libcpmt:xthrow.obj
 0001:0000afd4       ??_Elength_error@std@@UAEPAXI@Z 1000bfd4 f i libcpmt:xthrow.obj
 0001:0000afd4       ??_Glength_error@std@@UAEPAXI@Z 1000bfd4 f i libcpmt:xthrow.obj
 0001:0000b001       ??_Elogic_error@std@@UAEPAXI@Z 1000c001 f i libcpmt:xthrow.obj
 0001:0000b001       ??_Glogic_error@std@@UAEPAXI@Z 1000c001 f i libcpmt:xthrow.obj
 0001:0000b02e       ??_Gout_of_range@std@@UAEPAXI@Z 1000c02e f i libcpmt:xthrow.obj
 0001:0000b02e       ??_Eout_of_range@std@@UAEPAXI@Z 1000c02e f i libcpmt:xthrow.obj
 0001:0000b05b       ??_Eoverflow_error@std@@UAEPAXI@Z 1000c05b f i libcpmt:xthrow.obj
 0001:0000b05b       ??_Goverflow_error@std@@UAEPAXI@Z 1000c05b f i libcpmt:xthrow.obj
 0001:0000b088       ??_Eregex_error@std@@UAEPAXI@Z 1000c088 f i libcpmt:xthrow.obj
 0001:0000b088       ??_Gregex_error@std@@UAEPAXI@Z 1000c088 f i libcpmt:xthrow.obj
 0001:0000b0b5       ??_Gruntime_error@std@@UAEPAXI@Z 1000c0b5 f i libcpmt:xthrow.obj
 0001:0000b0b5       ??_Eruntime_error@std@@UAEPAXI@Z 1000c0b5 f i libcpmt:xthrow.obj
 0001:0000b0e2       ?_Stringify@regex_error@std@@CAPBDW4error_type@regex_constants@2@@Z 1000c0e2 f i libcpmt:xthrow.obj
 0001:0000b1a2       ?_Xbad_alloc@std@@YAXXZ    1000c1a2 f   libcpmt:xthrow.obj
 0001:0000b1bf       ?_Xbad_function_call@std@@YAXXZ 1000c1bf f   libcpmt:xthrow.obj
 0001:0000b1dc       ?_Xinvalid_argument@std@@YAXPBD@Z 1000c1dc f   libcpmt:xthrow.obj
 0001:0000b1fc       ?_Xlength_error@std@@YAXPBD@Z 1000c1fc f   libcpmt:xthrow.obj
 0001:0000b21c       ?_Xout_of_range@std@@YAXPBD@Z 1000c21c f   libcpmt:xthrow.obj
 0001:0000b23c       ?_Xoverflow_error@std@@YAXPBD@Z 1000c23c f   libcpmt:xthrow.obj
 0001:0000b25c       ?_Xregex_error@std@@YAXW4error_type@regex_constants@1@@Z 1000c25c f   libcpmt:xthrow.obj
 0001:0000b27c       ?_Xruntime_error@std@@YAXPBD@Z 1000c27c f   libcpmt:xthrow.obj
 0001:0000b29c       ?what@bad_function_call@std@@UBEPBDXZ 1000c29c f i libcpmt:xthrow.obj
 0001:0000b2a2       ??2@YAPAXI@Z               1000c2a2 f   LIBCMT:new_scalar.obj
 0001:0000b2d2       ??3@YAXPAXI@Z              1000c2d2 f   LIBCMT:delete_scalar_size.obj
 0001:0000b2e0       ?configure_argv@__scrt_narrow_argv_policy@@SAHXZ 1000c2e0 f i LIBCMT:utility.obj
 0001:0000b331       ?initialize_environment@__scrt_narrow_environment_policy@@SAHXZ 1000c331 f i LIBCMT:utility.obj
 0001:0000b36a       _NtCurrentTeb              1000c36a f i LIBCMT:utility.obj
 0001:0000b371       ___scrt_acquire_startup_lock 1000c371 f   LIBCMT:utility.obj
 0001:0000b3a3       ___scrt_dllmain_after_initialize_c 1000c3a3 f   LIBCMT:utility.obj
 0001:0000b3ce       ___scrt_dllmain_before_initialize_c 1000c3ce f   LIBCMT:utility.obj
 0001:0000b3dc       ___scrt_dllmain_crt_thread_attach 1000c3dc f   LIBCMT:utility.obj
 0001:0000b3fb       ___scrt_dllmain_crt_thread_detach 1000c3fb f   LIBCMT:utility.obj
 0001:0000b408       ___scrt_dllmain_exception_filter 1000c408 f   LIBCMT:utility.obj
 0001:0000b43c       ___scrt_dllmain_uninitialize_c 1000c43c f   LIBCMT:utility.obj
 0001:0000b45f       ___scrt_dllmain_uninitialize_critical 1000c45f f   LIBCMT:utility.obj
 0001:0000b46c       ___scrt_initialize_crt     1000c46c f   LIBCMT:utility.obj
 0001:0000b4a5       ___scrt_initialize_onexit_tables 1000c4a5 f   LIBCMT:utility.obj
 0001:0000b52c       ___scrt_is_nonwritable_in_current_image 1000c52c f   LIBCMT:utility.obj
 0001:0000b5c0       ___scrt_release_startup_lock 1000c5c0 f   LIBCMT:utility.obj
 0001:0000b5dd       ___scrt_uninitialize_crt   1000c5dd f   LIBCMT:utility.obj
 0001:0000b605       __onexit                   1000c605 f   LIBCMT:utility.obj
 0001:0000b632       _at_quick_exit             1000c632 f   LIBCMT:utility.obj
 0001:0000b655       _atexit                    1000c655 f   LIBCMT:utility.obj
 0001:0000b72f       __Init_thread_abort        1000c72f f   LIBCMT:thread_safe_statics.obj
 0001:0000b753       __Init_thread_footer       1000c753 f   LIBCMT:thread_safe_statics.obj
 0001:0000b79d       __Init_thread_header       1000c79d f   LIBCMT:thread_safe_statics.obj
 0001:0000b7ef       __Init_thread_lock         1000c7ef f   LIBCMT:thread_safe_statics.obj
 0001:0000b7fb       __Init_thread_notify       1000c7fb f   LIBCMT:thread_safe_statics.obj
 0001:0000b831       __Init_thread_unlock       1000c831 f   LIBCMT:thread_safe_statics.obj
 0001:0000b83d       __Init_thread_wait         1000c83d f   LIBCMT:thread_safe_statics.obj
 0001:0000b88b       @__security_check_cookie@4 1000c88b f   LIBCMT:secchk.obj
 0001:0000b899       __EH_epilog3               1000c899 f   LIBCMT:ehprolg3.obj
 0001:0000b8ad       __EH_epilog3_GS            1000c8ad f   LIBCMT:ehprolg3.obj
 0001:0000b8bc       __EH_epilog3_catch_GS      1000c8bc f   LIBCMT:ehprolg3.obj
 0001:0000b8cb       __EH_prolog3               1000c8cb f   LIBCMT:ehprolg3.obj
 0001:0000b8fe       __EH_prolog3_GS            1000c8fe f   LIBCMT:ehprolg3.obj
 0001:0000b934       __EH_prolog3_catch         1000c934 f   LIBCMT:ehprolg3.obj
 0001:0000b96a       __EH_prolog3_catch_GS      1000c96a f   LIBCMT:ehprolg3.obj
 0001:0000b9b0       __alloca_probe             1000c9b0 f   LIBCMT:chkstk.obj
 0001:0000b9b0       __chkstk                   1000c9b0 f   LIBCMT:chkstk.obj
 0001:0000b9db       ??1type_info@@UAE@XZ       1000c9db f   LIBCMT:std_type_info_static.obj
 0001:0000b9e2       ??_Gtype_info@@UAEPAXI@Z   1000c9e2 f i LIBCMT:std_type_info_static.obj
 0001:0000b9e2       ??_Etype_info@@UAEPAXI@Z   1000c9e2 f i LIBCMT:std_type_info_static.obj
 0001:0000ba05       ??3@YAXPAX@Z               1000ca05 f   LIBCMT:delete_scalar.obj
 0001:0000ba0a       ??_M@YGXPAXIHP6EX0@Z@Z     1000ca0a f   LIBCMT:ehvecdtr.obj
 0001:0000ba0f       ??_M@YGXPAXIIP6EX0@Z@Z     1000ca0f f   LIBCMT:ehvecdtr.obj
 0001:0000bac3       ?__ArrayUnwind@@YGXPAXIIP6EX0@Z@Z 1000cac3 f   LIBCMT:ehvecdtr.obj
 0001:0000bb53       ??_V@YAXPAXI@Z             1000cb53 f   LIBCMT:delete_array_size.obj
 0001:0000bb70       __SEH_prolog4              1000cb70 f   LIBCMT:sehprolg4.obj
 0001:0000bbc0       __SEH_epilog4              1000cbc0 f   LIBCMT:sehprolg4.obj
 0001:0000bbd4       ??_U@YAPAXI@Z              1000cbd4 f   LIBCMT:new_array.obj
 0001:0000bbdd       ??_V@YAXPAX@Z              1000cbdd f   LIBCMT:delete_array.obj
 0001:0000bbf0       __alldiv                   1000cbf0 f   LIBCMT:lldiv.obj
 0001:0000bca0       __allmul                   1000cca0 f   LIBCMT:llmul.obj
 0001:0000bce0       __allshl                   1000cce0 f   LIBCMT:llshl.obj
 0001:0000bd00       __allshr                   1000cd00 f   LIBCMT:llshr.obj
 0001:0000bd30       __aullshr                  1000cd30 f   LIBCMT:ullshr.obj
 0001:0000bd50       __ftoui3                   1000cd50 f   LIBCMT:ftol3.obj
 0001:0000bda0       __ftoul3                   1000cda0 f   LIBCMT:ftol3.obj
 0001:0000be20       __ftol3                    1000ce20 f   LIBCMT:ftol3.obj
 0001:0000be90       __dtoui3                   1000ce90 f   LIBCMT:ftol3.obj
 0001:0000bf10       __dtoul3                   1000cf10 f   LIBCMT:ftol3.obj
 0001:0000bfc0       __dtol3                    1000cfc0 f   LIBCMT:ftol3.obj
 0001:0000c070       __ultod3                   1000d070 f   LIBCMT:ftol3.obj
 0001:0000c0d0       __ltod3                    1000d0d0 f   LIBCMT:ftol3.obj
 0001:0000c111       ___raise_securityfailure   1000d111 f   LIBCMT:gs_report.obj
 0001:0000c139       ___report_gsfailure        1000d139 f   LIBCMT:gs_report.obj
 0001:0000c233       ___report_rangecheckfailure 1000d233 f   LIBCMT:gs_report.obj
 0001:0000c23f       ___report_securityfailure  1000d23f f   LIBCMT:gs_report.obj
 0001:0000c30e       ___report_securityfailureEx 1000d30e f   LIBCMT:gs_report.obj
 0001:0000c423       ??_U@YAPAXIABUnothrow_t@std@@@Z 1000d423 f   LIBCMT:new_array_nothrow.obj
 0001:0000c76c       __CRT_INIT@12              1000d76c f   LIBCMT:dll_dllmain.obj
 0001:0000c775       __DllMainCRTStartup@12     1000d775 f   LIBCMT:dll_dllmain.obj
 0001:0000c798       @_guard_check_icall_nop@4  1000d798 f i LIBCMT:guard_support.obj
 0001:0000c79b       _ReadNoFence               1000d79b f i LIBCMT:guard_support.obj
 0001:0000c7a5       _ReadPointerNoFence        1000d7a5 f i LIBCMT:guard_support.obj
 0001:0000c7af       ___castguard_check_failure_debugbreak 1000d7af f i LIBCMT:guard_support.obj
 0001:0000c7ca       ___castguard_check_failure_fastfail 1000d7ca f i LIBCMT:guard_support.obj
 0001:0000c7e9       ___castguard_check_failure_nop 1000d7e9 f i LIBCMT:guard_support.obj
 0001:0000c7ec       ___castguard_check_failure_os_handled 1000d7ec f i LIBCMT:guard_support.obj
 0001:0000c840       ___castguard_slow_path_check_debugbreak 1000d840 f i LIBCMT:guard_support.obj
 0001:0000c86d       ___castguard_slow_path_check_fastfail 1000d86d f i LIBCMT:guard_support.obj
 0001:0000c89e       ___castguard_slow_path_check_nop 1000d89e f i LIBCMT:guard_support.obj
 0001:0000c8a1       ___castguard_slow_path_check_os_handled 1000d8a1 f i LIBCMT:guard_support.obj
 0001:0000c907       __guard_icall_checks_enforced 1000d907 f i LIBCMT:guard_support.obj
 0001:0000c919       ??0bad_alloc@std@@AAE@QBD@Z 1000d919 f i LIBCMT:throw_bad_alloc.obj
 0001:0000c936       ?__scrt_throw_std_bad_alloc@@YAXXZ 1000d936 f   LIBCMT:throw_bad_alloc.obj
 0001:0000c953       ?__scrt_throw_std_bad_array_new_length@@YAXXZ 1000d953 f   LIBCMT:throw_bad_alloc.obj
 0001:0000c970       ___isa_available_init      1000d970 f   LIBCMT:cpu_disp.obj
 0001:0000cb41       __get_startup_argv_mode    1000db41 f   LIBCMT:argv_mode.obj
 0001:0000cb45       ___scrt_is_ucrt_dll_in_use 1000db45 f   LIBCMT:ucrt_detection.obj
 0001:0000cb51       ___scrt_fastfail           1000db51 f   LIBCMT:utility_desktop.obj
 0001:0000cc6c       ___scrt_get_show_window_mode 1000dc6c f   LIBCMT:utility_desktop.obj
 0001:0000cc9d       ___scrt_initialize_mta     1000dc9d f   LIBCMT:utility_desktop.obj
 0001:0000cca2       ___scrt_initialize_winrt   1000dca2 f   LIBCMT:utility_desktop.obj
 0001:0000cca5       ___scrt_is_managed_app     1000dca5 f   LIBCMT:utility_desktop.obj
 0001:0000cce8       ___scrt_set_unhandled_exception_filter 1000dce8 f   LIBCMT:utility_desktop.obj
 0001:0000ccf4       ___scrt_exe_initialize_mta 1000dcf4 f   LIBCMT:utility_desktop.obj
 0001:0000ccf4       ___scrt_stub_for_initialize_mta 1000dcf4 f   LIBCMT:utility_desktop.obj
 0001:0000ccf7       ___scrt_unhandled_exception_filter@4 1000dcf7 f   LIBCMT:utility_desktop.obj
 0001:0000cd4d       __crt_debugger_hook        1000dd4d f   LIBCMT:utility_desktop.obj
 0001:0000cd55       ??2@YAPAXIABUnothrow_t@std@@@Z 1000dd55 f   LIBCMT:new_scalar_nothrow.obj
 0001:0000cdf7       ___security_init_cookie    1000ddf7 f   LIBCMT:gs_support.obj
 0001:0000ce42       ?__scrt_initialize_type_info@@YAXXZ 1000de42 f   LIBCMT:tncleanup.obj
 0001:0000ce4e       ?__scrt_uninitialize_type_info@@YAXXZ 1000de4e f   LIBCMT:tncleanup.obj
 0001:0000ce5a       ___local_stdio_scanf_options 1000de5a f i LIBCMT:default_local_stdio_options.obj
 0001:0000ce60       ___scrt_initialize_default_local_stdio_options 1000de60 f   LIBCMT:default_local_stdio_options.obj
 0001:0000ce7d       ___scrt_get_dyn_tls_init_callback 1000de7d f   LIBCMT:dyn_tls_init.obj
 0001:0000ce83       __RTC_Initialize           1000de83 f   LIBCMT:initsect.obj
 0001:0000ceaf       __RTC_Terminate            1000deaf f   LIBCMT:initsect.obj
 0001:0000cedb       _RpcStringFreeW@4          1000dedb f   Rpcrt4:RPCRT4.dll
 0001:0000cee1       _UuidCreate@4              1000dee1 f   Rpcrt4:RPCRT4.dll
 0001:0000cee7       _UuidToStringW@8           1000dee7 f   Rpcrt4:RPCRT4.dll
 0001:0000cef0       _memcpy                    1000def0 f   libvcruntime:memcpy.obj
 0001:0000d470       _memmove                   1000e470 f   libvcruntime:memmove.obj
 0001:0000d9f0       _memset                    1000e9f0 f   libvcruntime:memset.obj
 0001:0000db4a       _wcsstr                    1000eb4a f   libvcruntime:wcsstr.obj
 0001:0000ddb5       ??$?RD@__crt_public_free_policy@@QBEXQBD@Z 1000edb5 f i libvcruntime:std_exception.obj
 0001:0000ddc5       ??0?$__crt_unique_heap_ptr@DU__crt_public_free_policy@@@@QAE@QAD@Z 1000edc5 f i libvcruntime:std_exception.obj
 0001:0000ddd3       ??1?$__crt_unique_heap_ptr@DU__crt_public_free_policy@@@@QAE@XZ 1000edd3 f i libvcruntime:std_exception.obj
 0001:0000dde3       ??B?$__crt_unique_heap_ptr@DU__crt_public_free_policy@@@@QBE_NXZ 1000ede3 f i libvcruntime:std_exception.obj
 0001:0000ddea       ?detach@?$__crt_unique_heap_ptr@DU__crt_public_free_policy@@@@QAEPADXZ 1000edea f i libvcruntime:std_exception.obj
 0001:0000ddf0       ?get@?$__crt_unique_heap_ptr@DU__crt_public_free_policy@@@@QBEPADXZ 1000edf0 f i libvcruntime:std_exception.obj
 0001:0000ddf3       ?is_valid@?$__crt_unique_heap_ptr@DU__crt_public_free_policy@@@@QBE_NXZ 1000edf3 f i libvcruntime:std_exception.obj
 0001:0000ddfa       ?release@?$__crt_unique_heap_ptr@DU__crt_public_free_policy@@@@QAEXXZ 1000edfa f i libvcruntime:std_exception.obj
 0001:0000de0a       ___std_exception_copy      1000ee0a f   libvcruntime:std_exception.obj
 0001:0000de6d       ___std_exception_destroy   1000ee6d f   libvcruntime:std_exception.obj
 0001:0000de8c       __CxxThrowException@8      1000ee8c f   libvcruntime:throw.obj
 0001:0000def8       ??$?0AAViterator@TryBlockMap@__FrameHandler3@@AAV012@$0A@@?$pair@Viterator@TryBlockMap@__FrameHandler3@@V123@@std@@QAE@AAViterator@TryBlockMap@__FrameHandler3@@0@Z 1000eef8 f i libvcruntime:trnsctrl.obj
 0001:0000df1c       ??$forward@AAViterator@TryBlockMap@__FrameHandler3@@@std@@YAAAViterator@TryBlockMap@__FrameHandler3@@AAV123@@Z 1000ef1c f i libvcruntime:trnsctrl.obj
 0001:0000df24       ??0iterator@TryBlockMap@__FrameHandler3@@QAE@AAV12@I@Z 1000ef24 f i libvcruntime:trnsctrl.obj
 0001:0000df38       ?GetRangeOfTrysToCheck@__FrameHandler3@@SA?AU?$pair@Viterator@TryBlockMap@__FrameHandler3@@V123@@std@@AAVTryBlockMap@1@HPAXPBU_s_FuncInfo@@H@Z 1000ef38 f   libvcruntime:trnsctrl.obj
 0001:0000dfa8       ?_CallCatchBlock2@@YAPAXPAUEHRegistrationNode@@PBU_s_FuncInfo@@PAXHK@Z 1000efa8 f   libvcruntime:trnsctrl.obj
 0001:0000e005       ?_CallSETranslator@@YAHPAUEHExceptionRecord@@PAUEHRegistrationNode@@PAX2PBU_s_FuncInfo@@H1@Z 1000f005 f   libvcruntime:trnsctrl.obj
 0001:0000e0fb       ?_JumpToContinuation@@YGXPAXPAUEHRegistrationNode@@@Z 1000f0fb f   libvcruntime:trnsctrl.obj
 0001:0000e12b       ?_UnwindNestedFrames@@YGXPAUEHRegistrationNode@@PAUEHExceptionRecord@@@Z 1000f12b f   libvcruntime:trnsctrl.obj
 0001:0000e17e       __CatchGuardHandler        1000f17e f   libvcruntime:trnsctrl.obj
 0001:0000e1af       __CreateFrameInfo          1000f1af f   libvcruntime:trnsctrl.obj
 0001:0000e1d3       __FindAndUnlinkFrame       1000f1d3 f   libvcruntime:trnsctrl.obj
 0001:0000e21b       __TranslatorGuardHandler   1000f21b f   libvcruntime:trnsctrl.obj
 0001:0000e2b8       ___CxxFrameHandler         1000f2b8 f   libvcruntime:trnsctrl.obj
 0001:0000e2ee       ___CxxFrameHandler2        1000f2ee f   libvcruntime:trnsctrl.obj
 0001:0000e324       ___CxxFrameHandler3        1000f324 f   libvcruntime:trnsctrl.obj
 0001:0000e35a       ___CxxLongjmpUnwind@4      1000f35a f   libvcruntime:trnsctrl.obj
 0001:0000e3c0       __except_handler4          1000f3c0 f   libvcruntime:chandler4.obj
 0001:0000e51e       ??$__crt_interlocked_exchange_pointer@$$A6AXXZP6AXXZ@@YAP6AXXZPDS6AXXZQ6AXXZ@Z 1000f51e f i libvcruntime:purevirt.obj
 0001:0000e52b       ??$__crt_interlocked_read_pointer@$$A6AXXZ@@YAP6AXXZPDS6AXXZ@Z 1000f52b f i libvcruntime:purevirt.obj
 0001:0000e535       ?__crt_interlocked_read_32@@YAHPDH@Z 1000f535 f i libvcruntime:purevirt.obj
 0001:0000e53f       __get_purecall_handler     1000f53f f   libvcruntime:purevirt.obj
 0001:0000e545       __purecall                 1000f545 f   libvcruntime:purevirt.obj
 0001:0000e561       __set_purecall_handler     1000f561 f   libvcruntime:purevirt.obj
 0001:0000e665       _memcmp                    1000f665 f   libvcruntime:memcmp.obj
 0001:000103b5       _wcsrchr                   100113b5 f   libvcruntime:wcsrchr.obj
 0001:0001046d       __get_unexpected           1001146d f   libvcruntime:unexpected.obj
 0001:0001047f       _set_unexpected            1001147f f   libvcruntime:unexpected.obj
 0001:0001049d       _unexpected                1001149d f   libvcruntime:unexpected.obj
 0001:000104ba       ___DestructExceptionObject 100114ba f   libvcruntime:ehhelpers.obj
 0001:0001055b       ?_CallMemberFunction0@@YGXQAX0@Z 1001155b f i libvcruntime:ehhelpers.obj
 0001:000105c0       ?raw_name@type_info@@QBEPBDXZ 100115c0 f i libvcruntime:ehhelpers.obj
 0001:000105c4       __IsExceptionObjectToBeDestroyed 100115c4 f   libvcruntime:ehhelpers.obj
 0001:000105ea       __SetWinRTOutOfMemoryExceptionCallback 100115ea f   libvcruntime:ehhelpers.obj
 0001:000105f7       ___AdjustPointer           100115f7 f   libvcruntime:ehhelpers.obj
 0001:0001061c       ___FrameUnwindFilter       1001161c f   libvcruntime:ehhelpers.obj
 0001:00010672       ___GetPlatformExceptionInfo 10011672 f   libvcruntime:ehhelpers.obj
 0001:000106be       ___current_exception       100116be f   libvcruntime:ehhelpers.obj
 0001:000106c7       ___current_exception_context 100116c7 f   libvcruntime:ehhelpers.obj
 0001:000106d0       ___processing_throw        100116d0 f   libvcruntime:ehhelpers.obj
 0001:000106d9       ___std_terminate           100116d9 f   libvcruntime:ehhelpers.obj
 0001:000106de       __is_exception_typeof      100116de f   libvcruntime:ehhelpers.obj
 0001:00010782       ___vcrt_initialize         10011782 f   libvcruntime:initialization.obj
 0001:000107a1       ___vcrt_thread_attach      100117a1 f   libvcruntime:initialization.obj
 0001:000107ac       ___vcrt_thread_detach      100117ac f   libvcruntime:initialization.obj
 0001:000107b7       ___vcrt_uninitialize       100117b7 f   libvcruntime:initialization.obj
 0001:000107ce       ___vcrt_uninitialize_critical 100117ce f   libvcruntime:initialization.obj
 0001:000107e7       ??$?RD@__crt_internal_free_policy@@QBEXQBD@Z 100117e7 f i libvcruntime:std_type_info.obj
 0001:000107f7       ??$?RX@__crt_internal_free_policy@@QBEXQBX@Z 100117f7 f i libvcruntime:std_type_info.obj
 0001:00010807       ??$__crt_interlocked_compare_exchange_pointer@$$CBDPAD$$T@@YAPBDPDSBDQAD$$T@Z 10011807 f i libvcruntime:std_type_info.obj
 0001:00010819       ??$__crt_interlocked_read_pointer@$$CBD@@YAPBDPDSBD@Z 10011819 f i libvcruntime:std_type_info.obj
 0001:00010823       ??0?$__crt_unique_heap_ptr@DU__crt_internal_free_policy@@@@QAE@QAD@Z 10011823 f i libvcruntime:std_type_info.obj
 0001:00010831       ??0?$__crt_unique_heap_ptr@XU__crt_internal_free_policy@@@@QAE@QAX@Z 10011831 f i libvcruntime:std_type_info.obj
 0001:0001083f       ??1?$__crt_unique_heap_ptr@DU__crt_internal_free_policy@@@@QAE@XZ 1001183f f i libvcruntime:std_type_info.obj
 0001:0001084f       ??1?$__crt_unique_heap_ptr@XU__crt_internal_free_policy@@@@QAE@XZ 1001184f f i libvcruntime:std_type_info.obj
 0001:0001085f       ??B?$__crt_unique_heap_ptr@DU__crt_internal_free_policy@@@@QBE_NXZ 1001185f f i libvcruntime:std_type_info.obj
 0001:00010866       ??B?$__crt_unique_heap_ptr@XU__crt_internal_free_policy@@@@QBE_NXZ 10011866 f i libvcruntime:std_type_info.obj
 0001:00010899       ?detach@?$__crt_unique_heap_ptr@XU__crt_internal_free_policy@@@@QAEPAXXZ 10011899 f i libvcruntime:std_type_info.obj
 0001:0001089f       ?get@?$__crt_unique_heap_ptr@DU__crt_internal_free_policy@@@@QBEPADXZ 1001189f f i libvcruntime:std_type_info.obj
 0001:000108a2       ?get@?$__crt_unique_heap_ptr@XU__crt_internal_free_policy@@@@QBEPAXXZ 100118a2 f i libvcruntime:std_type_info.obj
 0001:000108a5       ?is_valid@?$__crt_unique_heap_ptr@DU__crt_internal_free_policy@@@@QBE_NXZ 100118a5 f i libvcruntime:std_type_info.obj
 0001:000108ac       ?is_valid@?$__crt_unique_heap_ptr@XU__crt_internal_free_policy@@@@QBE_NXZ 100118ac f i libvcruntime:std_type_info.obj
 0001:000108b3       ?release@?$__crt_unique_heap_ptr@DU__crt_internal_free_policy@@@@QAEXXZ 100118b3 f i libvcruntime:std_type_info.obj
 0001:000108c3       ?release@?$__crt_unique_heap_ptr@XU__crt_internal_free_policy@@@@QAEXXZ 100118c3 f i libvcruntime:std_type_info.obj
 0001:000108d3       ___std_type_info_compare   100118d3 f   libvcruntime:std_type_info.obj
 0001:0001090f       ___std_type_info_destroy_list 1001190f f   libvcruntime:std_type_info.obj
 0001:00010932       ___std_type_info_hash      10011932 f   libvcruntime:std_type_info.obj
 0001:00010958       ___std_type_info_name      10011958 f   libvcruntime:std_type_info.obj
 0001:00010a1d       ??$?RU__vcrt_ptd@@@__crt_internal_free_policy@@QBEXQBU__vcrt_ptd@@@Z 10011a1d f i libvcruntime:per_thread_data.obj
 0001:00010a2d       ??0?$__crt_unique_heap_ptr@U__vcrt_ptd@@U__crt_internal_free_policy@@@@QAE@QAU__vcrt_ptd@@@Z 10011a2d f i libvcruntime:per_thread_data.obj
 0001:00010a4a       ??1?$__crt_unique_heap_ptr@U__vcrt_ptd@@U__crt_internal_free_policy@@@@QAE@XZ 10011a4a f i libvcruntime:per_thread_data.obj
 0001:00010a63       ??B?$__crt_unique_heap_ptr@U__vcrt_ptd@@U__crt_internal_free_policy@@@@QBE_NXZ 10011a63 f i libvcruntime:per_thread_data.obj
 0001:00010a6a       ?detach@?$__crt_unique_heap_ptr@U__vcrt_ptd@@U__crt_internal_free_policy@@@@QAEPAU__vcrt_ptd@@XZ 10011a6a f i libvcruntime:per_thread_data.obj
 0001:00010a70       ?get@?$__crt_unique_heap_ptr@U__vcrt_ptd@@U__crt_internal_free_policy@@@@QBEPAU__vcrt_ptd@@XZ 10011a70 f i libvcruntime:per_thread_data.obj
 0001:00010a73       ?is_valid@?$__crt_unique_heap_ptr@U__vcrt_ptd@@U__crt_internal_free_policy@@@@QBE_NXZ 10011a73 f i libvcruntime:per_thread_data.obj
 0001:00010a7a       ?release@?$__crt_unique_heap_ptr@U__vcrt_ptd@@U__crt_internal_free_policy@@@@QAEXXZ 10011a7a f i libvcruntime:per_thread_data.obj
 0001:00010aa4       ___vcrt_freefls@4          10011aa4 f   libvcruntime:per_thread_data.obj
 0001:00010ac0       ___vcrt_freeptd            10011ac0 f   libvcruntime:per_thread_data.obj
 0001:00010af6       ___vcrt_getptd             10011af6 f   libvcruntime:per_thread_data.obj
 0001:00010b04       ___vcrt_getptd_noexit      10011b04 f   libvcruntime:per_thread_data.obj
 0001:00010b96       ___vcrt_getptd_noinit      10011b96 f   libvcruntime:per_thread_data.obj
 0001:00010bcd       ___vcrt_initialize_ptd     10011bcd f   libvcruntime:per_thread_data.obj
 0001:00010c00       ___vcrt_uninitialize_ptd   10011c00 f   libvcruntime:per_thread_data.obj
 0001:00011352       ??$TypeMatchHelper@V__FrameHandler3@@@@YAHPBU_s_HandlerType@@PBU_s_CatchableType@@PBU_s_ThrowInfo@@@Z 10012352 f i libvcruntime:frame.obj
 0001:000113e0       ??$__InternalCxxFrameHandler@V__FrameHandler3@@@@YA?AW4_EXCEPTION_DISPOSITION@@PAUEHExceptionRecord@@PAUEHRegistrationNode@@PAU_CONTEXT@@PAXPBU_s_FuncInfo@@H1E@Z 100123e0 f i libvcruntime:frame.obj
 0001:000114e2       ??0HandlerMap@__FrameHandler3@@QAE@PBU_s_TryBlockMapEntry@@II@Z 100124e2 f i libvcruntime:frame.obj
 0001:000114f9       ??0TryBlockMap@__FrameHandler3@@QAE@PBU_s_FuncInfo@@I@Z 100124f9 f i libvcruntime:frame.obj
 0001:0001150d       ??0bad_exception@std@@QAE@ABV01@@Z 1001250d f i libvcruntime:frame.obj
 0001:00011528       ??0bad_exception@std@@QAE@XZ 10012528 f i libvcruntime:frame.obj
 0001:00011540       ??0iterator@HandlerMap@__FrameHandler3@@QAE@AAV12@I@Z 10012540 f i libvcruntime:frame.obj
 0001:00011554       ??1bad_exception@std@@UAE@XZ 10012554 f i libvcruntime:frame.obj
 0001:00011565       ??8iterator@HandlerMap@__FrameHandler3@@QBE_NABV012@@Z 10012565 f i libvcruntime:frame.obj
 0001:00011578       ??8type_info@@QBE_NABV0@@Z 10012578 f i libvcruntime:frame.obj
 0001:00011597       ??9iterator@HandlerMap@__FrameHandler3@@QBE_NABV012@@Z 10012597 f i libvcruntime:frame.obj
 0001:000115aa       ??Diterator@HandlerMap@__FrameHandler3@@QAE?BU_s_HandlerType@@XZ 100125aa f i libvcruntime:frame.obj
 0001:000115c9       ??Diterator@TryBlockMap@__FrameHandler3@@QAE?BU_s_TryBlockMapEntry@@XZ 100125c9 f i libvcruntime:frame.obj
 0001:000115eb       ??Eiterator@HandlerMap@__FrameHandler3@@QAEAAV012@XZ 100125eb f i libvcruntime:frame.obj
 0001:000115f1       ??Eiterator@TryBlockMap@__FrameHandler3@@QAEAAV012@XZ 100125f1 f i libvcruntime:frame.obj
 0001:000115f7       ??Miterator@TryBlockMap@__FrameHandler3@@QBE_NABV012@@Z 100125f7 f i libvcruntime:frame.obj
 0001:0001160a       ??_Gbad_exception@std@@UAEPAXI@Z 1001260a f i libvcruntime:frame.obj
 0001:0001160a       ??_Ebad_exception@std@@UAEPAXI@Z 1001260a f i libvcruntime:frame.obj
 0001:00011637       ?BuildCatchObject@__FrameHandler3@@SAXPAUEHExceptionRecord@@PAXPBU_s_HandlerType@@PBU_s_CatchableType@@@Z 10012637 f   libvcruntime:frame.obj
 0001:0001163c       ?BuildCatchObjectHelper@__FrameHandler3@@SAHPAUEHExceptionRecord@@PAXPBU_s_HandlerType@@PBU_s_CatchableType@@@Z 1001263c f   libvcruntime:frame.obj
 0001:00011892       ?FrameUnwindToEmptyState@__FrameHandler3@@SAXPAUEHRegistrationNode@@PAXPBU_s_FuncInfo@@@Z 10012892 f   libvcruntime:frame.obj
 0001:000118aa       ?FrameUnwindToState@__FrameHandler3@@SAXPAUEHRegistrationNode@@PAXPBU_s_FuncInfo@@H@Z 100128aa f   libvcruntime:frame.obj
 0001:00011992       ?GetMaxState@__FrameHandler3@@SAHPAXPBU_s_FuncInfo@@@Z 10012992 f i libvcruntime:frame.obj
 0001:00011a70       ?TypeMatch@__FrameHandler3@@SAHPBU_s_HandlerType@@PBU_s_CatchableType@@PBU_s_ThrowInfo@@@Z 10012a70 f   libvcruntime:frame.obj
 0001:00011a79       ?_CallMemberFunction1@@YGXQAX00@Z 10012a79 f i libvcruntime:frame.obj
 0001:00011a89       ?_CallMemberFunction2@@YGXQAX00H@Z 10012a89 f i libvcruntime:frame.obj
 0001:00011a9c       ?begin@HandlerMap@__FrameHandler3@@QAE?AViterator@12@XZ 10012a9c f i libvcruntime:frame.obj
 0001:00011aac       ?end@HandlerMap@__FrameHandler3@@QAE?AViterator@12@XZ 10012aac f i libvcruntime:frame.obj
 0001:00011abd       ?getESTypes@__FrameHandler3@@SAPBU_s_ESTypeList@@PBU_s_FuncInfo@@@Z 10012abd f i libvcruntime:frame.obj
 0001:00011ac8       ?getLastEntry@HandlerMap@__FrameHandler3@@QAEPBU_s_HandlerType@@XZ 10012ac8 f i libvcruntime:frame.obj
 0001:00011ad6       ?getMagicNum@__FrameHandler3@@SAIPBU_s_FuncInfo@@@Z 10012ad6 f i libvcruntime:frame.obj
 0001:00011ae5       ?getNumTryBlocks@TryBlockMap@__FrameHandler3@@QAEIXZ 10012ae5 f i libvcruntime:frame.obj
 0001:00011aeb       ?isEHs@__FrameHandler3@@SA_NPBU_s_FuncInfo@@@Z 10012aeb f i libvcruntime:frame.obj
 0001:00011af8       ?isNoExcept@__FrameHandler3@@SA_NPBU_s_FuncInfo@@@Z 10012af8 f i libvcruntime:frame.obj
 0001:00011b08       ___BuildCatchObject        10012b08 f   libvcruntime:frame.obj
 0001:00011b0d       ___BuildCatchObjectHelper  10012b0d f   libvcruntime:frame.obj
 0001:00011b16       ___TypeMatch               10012b16 f   libvcruntime:frame.obj
 0001:00011b1f       ___vcrt_EncodePointer      10012b1f f i libvcruntime:frame.obj
 0001:00011b30       __CallSettingFrame@12      10012b30 f   libvcruntime:lowhelpr.obj
 0001:00011b57       __NLG_Return               10012b57     libvcruntime:lowhelpr.obj
 0001:00011b87       ___except_validate_context_record 10012b87 f   libvcruntime:jbcxrval.obj
 0001:00011bb7       ___except_validate_jump_buffer 10012bb7 f   libvcruntime:jbcxrval.obj
 0001:00011be4       ___except_validate_jump_buffer_common 10012be4 f i libvcruntime:jbcxrval.obj
 0001:00011c20       __local_unwind4            10012c20 f   libvcruntime:exsup4.obj
 0001:00011d10       __seh_longjmp_unwind4@4    10012d10 f   libvcruntime:exsup4.obj
 0001:00011d40       @_EH4_CallFilterFunc@8     10012d40 f   libvcruntime:exsup4.obj
 0001:00011d60       @_EH4_TransferToHandler@8  10012d60 f   libvcruntime:exsup4.obj
 0001:00011d80       @_EH4_GlobalUnwind2@8      10012d80 f   libvcruntime:exsup4.obj
 0001:00011da0       @_EH4_LocalUnwind@16       10012da0 f   libvcruntime:exsup4.obj
 0001:00011db7       ___vcrt_initialize_locks   10012db7 f   libvcruntime:locks.obj
 0001:00011df3       ___vcrt_lock               10012df3 f   libvcruntime:locks.obj
 0001:00011e08       ___vcrt_uninitialize_locks 10012e08 f   libvcruntime:locks.obj
 0001:00011e37       ___vcrt_unlock             10012e37 f   libvcruntime:locks.obj
 0001:00011e4c       ??$?0$00@DName@@QAE@PBDU?$StringLifeSelector@$00@@@Z 10012e4c f i libvcruntime:undname.obj
 0001:00011e7f       ??$?0$00@pcharNode@@QAE@PBDHU?$StringLifeSelector@$00@@@Z 10012e7f f i libvcruntime:undname.obj
 0001:00011e9a       ??$?0$01@DName@@QAE@PBDU?$StringLifeSelector@$01@@@Z 10012e9a f i libvcruntime:undname.obj
 0001:00011ecd       ??$?0$01@pcharNode@@QAE@PBDHU?$StringLifeSelector@$01@@@Z 10012ecd f i libvcruntime:undname.obj
 0001:00011f0d       ??$?0$0A@@DName@@QAE@PBDU?$StringLifeSelector@$0A@@@@Z 10012f0d f i libvcruntime:undname.obj
 0001:00011f40       ??$?0$0A@@pcharNode@@QAE@PBDHU?$StringLifeSelector@$0A@@@@Z 10012f40 f i libvcruntime:undname.obj
 0001:00011f80       ??$?0_K$0A@@?$optional@_K@std@@QAE@$$QA_K@Z 10012f80 f i libvcruntime:undname.obj
 0001:00011f9a       ??$?0_K@?$_Optional_construct_base@_K@std@@QAE@Uin_place_t@1@$$QA_K@Z 10012f9a f i libvcruntime:undname.obj
 0001:00011fb4       ??$?0_K@?$_Optional_destruct_base@_K$00@std@@QAE@Uin_place_t@1@$$QA_K@Z 10012fb4 f i libvcruntime:undname.obj
 0001:00011fce       ??$append@VDNameNode@@@DName@@AAEXPBVDNameNode@@@Z 10012fce f i libvcruntime:undname.obj
 0001:0001200f       ??$append@VDNameStatusNode@@@DName@@AAEXPBVDNameStatusNode@@@Z 1001300f f i libvcruntime:undname.obj
 0001:00012050       ??$append@VcharNode@@@DName@@AAEXPBVcharNode@@@Z 10013050 f i libvcruntime:undname.obj
 0001:00012091       ??$append@VpDNameNode@@@DName@@AAEXPBVpDNameNode@@@Z 10013091 f i libvcruntime:undname.obj
 0001:000120d2       ??$append@VpcharNode@@@DName@@AAEXPBVpcharNode@@@Z 100130d2 f i libvcruntime:undname.obj
 0001:00012113       ??$doPchar@$00@DName@@AAEXPBDH@Z 10013113 f i libvcruntime:undname.obj
 0001:0001217e       ??$doPchar@$01@DName@@AAEXPBDH@Z 1001317e f i libvcruntime:undname.obj
 0001:000121ef       ??$doPchar@$0A@@DName@@AAEXPBDH@Z 100131ef f i libvcruntime:undname.obj
 0001:00012260       ??$forward@_K@std@@YA$$QA_KAA_K@Z 10013260 f i libvcruntime:undname.obj
 0001:00012268       ??$size@D$04@std@@YAIAAY04$$CBD@Z 10013268 f i libvcruntime:undname.obj
 0001:0001226c       ??$size@D$0EB@@std@@YAIAAY0EB@$$CBD@Z 1001326c f i libvcruntime:undname.obj
 0001:00012270       ??0?$_Optional_construct_base@_K@std@@QAE@XZ 10013270 f i libvcruntime:undname.obj
 0001:00012277       ??0?$_Optional_destruct_base@_K$00@std@@QAE@XZ 10013277 f i libvcruntime:undname.obj
 0001:0001227e       ??0?$optional@_K@std@@QAE@XZ 1001327e f i libvcruntime:undname.obj
 0001:00012285       ??0Block@_HeapManager@@QAE@XZ 10013285 f i libvcruntime:undname.obj
 0001:0001228b       ??0DName@@QAE@AAPBDD@Z     1001328b f   libvcruntime:undname.obj
 0001:0001230b       ??0DName@@QAE@ABUStringLiteral@@@Z 1001330b f   libvcruntime:undname.obj
 0001:00012332       ??0DName@@QAE@ABV0@@Z      10013332 f i libvcruntime:undname.obj
 0001:00012348       ??0DName@@QAE@D@Z          10013348 f   libvcruntime:undname.obj
 0001:00012364       ??0DName@@QAE@PAV0@@Z      10013364 f   libvcruntime:undname.obj
 0001:000123ab       ??0DName@@QAE@W4DNameStatus@@@Z 100133ab f   libvcruntime:undname.obj
 0001:000123eb       ??0DName@@QAE@XZ           100133eb f i libvcruntime:undname.obj
 0001:000123f5       ??0DName@@QAE@_J@Z         100133f5 f   libvcruntime:undname.obj
 0001:00012481       ??0DName@@QAE@_K@Z         10013481 f   libvcruntime:undname.obj
 0001:000124e7       ??0DNameNode@@IAE@XZ       100134e7 f i libvcruntime:undname.obj
 0001:000124f0       ??0Replicator@@QAE@XZ      100134f0 f i libvcruntime:undname.obj
 0001:000124ff       ??0UnDecorator@@QAE@PBDP6APADJ@ZK@Z 100134ff f i libvcruntime:undname.obj
 0001:0001254b       ??0_Nontrivial_dummy_type@std@@QAE@XZ 1001354b f i libvcruntime:undname.obj
 0001:0001254e       ??0charNode@@QAE@D@Z       1001354e f i libvcruntime:undname.obj
 0001:00012563       ??0pDNameNode@@QAE@PAVDName@@@Z 10013563 f   libvcruntime:undname.obj
 0001:0001258b       ??0pairNode@@QAE@PBVDNameNode@@0@Z 1001358b f i libvcruntime:undname.obj
 0001:000125b1       ??2@YAPAXIAAV_HeapManager@@H@Z 100135b1 f   libvcruntime:undname.obj
 0001:000125d0       ??4DName@@QAEAAV0@ABUStringLiteral@@@Z 100135d0 f   libvcruntime:undname.obj
 0001:000125f1       ??4DName@@QAEAAV0@ABV0@@Z  100135f1 f   libvcruntime:undname.obj
 0001:00012607       ??4DName@@QAEAAV0@D@Z      10013607 f i libvcruntime:undname.obj
 0001:00012623       ??4DName@@QAEAAV0@PAV0@@Z  10013623 f   libvcruntime:undname.obj
 0001:00012666       ??4DName@@QAEAAV0@W4DNameStatus@@@Z 10013666 f   libvcruntime:undname.obj
 0001:00012698       ??AReplicator@@QBE?AVDName@@H@Z 10013698 f   libvcruntime:undname.obj
 0001:000126de       ??B?$optional@_K@std@@QBE_NXZ 100136de f i libvcruntime:undname.obj
 0001:000126e2       ??D?$optional@_K@std@@QGAEAA_KXZ 100136e2 f i libvcruntime:undname.obj
 0001:000126e5       ??H@YA?AVDName@@ABUStringLiteral@@ABV0@@Z 100136e5 f i libvcruntime:undname.obj
 0001:00012707       ??H@YA?AVDName@@DABV0@@Z   10013707 f i libvcruntime:undname.obj
 0001:00012732       ??H@YA?AVDName@@W4DNameStatus@@ABV0@@Z 10013732 f i libvcruntime:undname.obj
 0001:00012754       ??HDName@@QBE?AV0@ABUStringLiteral@@@Z 10013754 f   libvcruntime:undname.obj
 0001:00012776       ??HDName@@QBE?AV0@ABV0@@Z  10013776 f   libvcruntime:undname.obj
 0001:00012798       ??HDName@@QBE?AV0@D@Z      10013798 f   libvcruntime:undname.obj
 0001:000127ba       ??HDName@@QBE?AV0@PAV0@@Z  100137ba f   libvcruntime:undname.obj
 0001:000127dc       ??HDName@@QBE?AV0@W4DNameStatus@@@Z 100137dc f   libvcruntime:undname.obj
 0001:000127fe       ??HStringLiteral@@QBE?AU0@H@Z 100137fe f i libvcruntime:undname.obj
 0001:00012818       ??YDName@@QAEAAV0@ABUStringLiteral@@@Z 10013818 f   libvcruntime:undname.obj
 0001:00012870       ??YDName@@QAEAAV0@ABV0@@Z  10013870 f   libvcruntime:undname.obj
 0001:000128c7       ??YDName@@QAEAAV0@D@Z      100138c7 f   libvcruntime:undname.obj
 0001:0001291c       ??YDName@@QAEAAV0@PAV0@@Z  1001391c f   libvcruntime:undname.obj
 0001:00012980       ??YDName@@QAEAAV0@W4DNameStatus@@@Z 10013980 f   libvcruntime:undname.obj
 0001:000129c0       ??YReplicator@@QAEAAV0@ABVDName@@@Z 100139c0 f   libvcruntime:undname.obj
 0001:000129fe       ??_5DName@@QAEAAV0@ABV0@@Z 100139fe f   libvcruntime:undname.obj
 0001:00012a1a       ??__K_l@@YA?AUStringLiteral@@PBDI@Z 10013a1a f i libvcruntime:undname.obj
 0001:00012a25       ?Constructor@_HeapManager@@QAEXP6APAXI@ZP6AXPAX@Z@Z 10013a25 f i libvcruntime:undname.obj
 0001:00012a42       ?Destructor@_HeapManager@@QAEXXZ 10013a42 f i libvcruntime:undname.obj
 0001:00012a89       ?UScore@UnDecorator@@SA?AUStringLiteral@@W4Tokens@@@Z 10013a89 f   libvcruntime:undname.obj
 0001:00012ab0       ?composeDeclaration@UnDecorator@@CA?AVDName@@ABV2@@Z 10013ab0 f i libvcruntime:undname.obj
 0001:000137e3       ?doAccessSpecifiers@UnDecorator@@SAHXZ 100147e3 f i libvcruntime:undname.obj
 0001:000137f1       ?doAllocationLanguage@UnDecorator@@SAHXZ 100147f1 f i libvcruntime:undname.obj
 0001:000137ff       ?doAllocationModel@UnDecorator@@SAHXZ 100147ff f i libvcruntime:undname.obj
 0001:0001380d       ?doEcsu@UnDecorator@@SAHXZ 1001480d f i libvcruntime:undname.obj
 0001:0001381b       ?doEllipsis@UnDecorator@@SAHXZ 1001481b f i libvcruntime:undname.obj
 0001:00013829       ?doFunctionReturns@UnDecorator@@SAHXZ 10014829 f i libvcruntime:undname.obj
 0001:00013837       ?doMSKeywords@UnDecorator@@SAHXZ 10014837 f i libvcruntime:undname.obj
 0001:00013844       ?doMemberTypes@UnDecorator@@SAHXZ 10014844 f i libvcruntime:undname.obj
 0001:00013852       ?doNameOnly@UnDecorator@@SAHXZ 10014852 f i libvcruntime:undname.obj
 0001:0001385d       ?doNoIdentCharCheck@UnDecorator@@SAHXZ 1001485d f i libvcruntime:undname.obj
 0001:00013868       ?doPchar@DName@@AAEXD@Z    10014868 f   libvcruntime:undname.obj
 0001:000138a0       ?doPtr64@UnDecorator@@SAHXZ 100148a0 f i libvcruntime:undname.obj
 0001:000138ae       ?doRestrictionSpec@UnDecorator@@SAHXZ 100148ae f i libvcruntime:undname.obj
 0001:000138bc       ?doThisTypes@UnDecorator@@SAHXZ 100148bc f i libvcruntime:undname.obj
 0001:000138ce       ?doThrowTypes@UnDecorator@@SAHXZ 100148ce f i libvcruntime:undname.obj
 0001:000138dc       ?doTypeOnly@UnDecorator@@SAHXZ 100148dc f i libvcruntime:undname.obj
 0001:000138e7       ?doUnderScore@UnDecorator@@SAHXZ 100148e7 f i libvcruntime:undname.obj
 0001:000138f2       ?getAddressOf@UnDecorator@@CA?AVDName@@XZ 100148f2 f   libvcruntime:undname.obj
 0001:00013965       ?getArgumentList@UnDecorator@@CA?AVDName@@XZ 10014965 f   libvcruntime:undname.obj
 0001:00013a72       ?getArgumentTypes@UnDecorator@@CA?AVDName@@XZ 10014a72 f   libvcruntime:undname.obj
 0001:00013b8b       ?getArrayAccess@UnDecorator@@CA?AVDName@@XZ 10014b8b f   libvcruntime:undname.obj
 0001:00013c0a       ?getArrayObject@UnDecorator@@CA?AVDName@@XZ 10014c0a f   libvcruntime:undname.obj
 0001:00013cac       ?getArrayType@UnDecorator@@CA?AVDName@@ABV2@@Z 10014cac f i libvcruntime:undname.obj
 0001:00013e49       ?getBasedType@UnDecorator@@CA?AVDName@@XZ 10014e49 f   libvcruntime:undname.obj
 0001:00013f04       ?getBasicDataType@UnDecorator@@CA?AVDName@@ABV2@@Z 10014f04 f   libvcruntime:undname.obj
 0001:00014438       ?getCHPEName@UnDecorator@@QAEPADPADH@Z 10015438 f i libvcruntime:undname.obj
 0001:00014515       ?getCallIndex@UnDecorator@@CA?AVDName@@XZ 10015515 f i libvcruntime:undname.obj
 0001:00014529       ?getCallingConvention@UnDecorator@@CA?AVDName@@XZ 10015529 f   libvcruntime:undname.obj
 0001:00014606       ?getDataIndirectType@UnDecorator@@CA?AVDName@@ABV2@W4IndirectionKind@@0H@Z 10015606 f   libvcruntime:undname.obj
 0001:00014c9c       ?getDataIndirectType@UnDecorator@@CA?AVDName@@XZ 10015c9c f i libvcruntime:undname.obj
 0001:00014cca       ?getDataType@UnDecorator@@CA?AVDName@@PAV2@@Z 10015cca f   libvcruntime:undname.obj
 0001:00014da1       ?getDecoratedName@UnDecorator@@CA?AVDName@@XZ 10015da1 f   libvcruntime:undname.obj
 0001:0001500b       ?getDimension@UnDecorator@@CA?AVDName@@_N@Z 1001600b f   libvcruntime:undname.obj
 0001:00015122       ?getDispatchTarget@UnDecorator@@CA?AVDName@@XZ 10016122 f   libvcruntime:undname.obj
 0001:00015176       ?getDisplacement@UnDecorator@@CA?AVDName@@XZ 10016176 f i libvcruntime:undname.obj
 0001:0001518a       ?getECSUDataType@UnDecorator@@CA?AVDName@@XZ 1001618a f   libvcruntime:undname.obj
 0001:0001531a       ?getECSUName@UnDecorator@@CA?AVDName@@XZ 1001631a f i libvcruntime:undname.obj
 0001:0001532b       ?getEnumType@UnDecorator@@CA?AVDName@@XZ 1001632b f i libvcruntime:undname.obj
 0001:0001544b       ?getExtendedDataIndirectType@UnDecorator@@CA?AVDName@@AAW4IndirectionKind@@AA_NH@Z 1001644b f   libvcruntime:undname.obj
 0001:000155fe       ?getExternalDataType@UnDecorator@@CA?AVDName@@ABV2@@Z 100165fe f i libvcruntime:undname.obj
 0001:00015663       ?getFloatingPoint@UnDecorator@@CA?AVDName@@H@Z 10016663 f   libvcruntime:undname.obj
 0001:00015757       ?getFunctionIndirectType@UnDecorator@@CA?AVDName@@ABV2@@Z 10016757 f   libvcruntime:undname.obj
 0001:00015b10       ?getGuardNumber@UnDecorator@@CA?AVDName@@XZ 10016b10 f i libvcruntime:undname.obj
 0001:00015b24       ?getLastChar@DName@@QBEDXZ 10016b24 f i libvcruntime:undname.obj
 0001:00015b44       ?getLastChar@DNameStatusNode@@UBEDXZ 10016b44 f i libvcruntime:undname.obj
 0001:00015b50       ?getLastChar@charNode@@UBEDXZ 10016b50 f i libvcruntime:undname.obj
 0001:00015b54       ?getLastChar@pDNameNode@@UBEDXZ 10016b54 f i libvcruntime:undname.obj
 0001:00015b62       ?getLastChar@pairNode@@UBEDXZ 10016b62 f i libvcruntime:undname.obj
 0001:00015b97       ?getLastChar@pcharNode@@UBEDXZ 10016b97 f i libvcruntime:undname.obj
 0001:00015ba9       ?getLexicalFrame@UnDecorator@@CA?AVDName@@XZ 10016ba9 f i libvcruntime:undname.obj
 0001:00015bda       ?getMemberAccess@UnDecorator@@CA?AVDName@@XZ 10016bda f   libvcruntime:undname.obj
 0001:00015c55       ?getMemoryWithBuffer@_HeapManager@@QAEPAXI@Z 10016c55 f   libvcruntime:undname.obj
 0001:00015cbf       ?getMemoryWithoutBuffer@_HeapManager@@QAEPAXI@Z 10016cbf f   libvcruntime:undname.obj
 0001:00015cdf       ?getNoexcept@UnDecorator@@CA?AVDName@@XZ 10016cdf f   libvcruntime:undname.obj
 0001:00015d33       ?getNumberOfDimensions@UnDecorator@@CAHXZ 10016d33 f   libvcruntime:undname.obj
 0001:00015d94       ?getOperatorName@UnDecorator@@CA?AVDName@@_NPA_N@Z 10016d94 f i libvcruntime:undname.obj
 0001:000164fa       ?getPointerToMember@UnDecorator@@CA?AVDName@@XZ 100174fa f   libvcruntime:undname.obj
 0001:000165b5       ?getPointerType@UnDecorator@@CA?AVDName@@ABV2@0@Z 100175b5 f i libvcruntime:undname.obj
 0001:000165d0       ?getPointerTypeArray@UnDecorator@@CA?AVDName@@ABV2@0@Z 100175d0 f i libvcruntime:undname.obj
 0001:000165eb       ?getPrimaryDataType@UnDecorator@@CA?AVDName@@ABV2@@Z 100175eb f   libvcruntime:undname.obj
 0001:0001683a       ?getPtrRefDataType@UnDecorator@@CA?AVDName@@ABV2@H@Z 1001783a f   libvcruntime:undname.obj
 0001:000169a7       ?getPtrRefType@UnDecorator@@CA?AVDName@@ABV2@0W4IndirectionKind@@@Z 100179a7 f   libvcruntime:undname.obj
 0001:00016ab8       ?getReferenceType@UnDecorator@@CA?AVDName@@ABV2@0W4IndirectionKind@@@Z 10017ab8 f i libvcruntime:undname.obj
 0001:00016ad4       ?getRestrictionSpec@UnDecorator@@CA?AVDName@@XZ 10017ad4 f   libvcruntime:undname.obj
 0001:00016bfc       ?getReturnType@UnDecorator@@CA?AVDName@@PAV2@@Z 10017bfc f   libvcruntime:undname.obj
 0001:00016c2b       ?getScope@UnDecorator@@CA?AVDName@@XZ 10017c2b f   libvcruntime:undname.obj
 0001:00016fdd       ?getScopedName@UnDecorator@@CA?AVDName@@XZ 10017fdd f   libvcruntime:undname.obj
 0001:000170c8       ?getSignedDimension@UnDecorator@@CA?AVDName@@XZ 100180c8 f   libvcruntime:undname.obj
 0001:00017119       ?getStorageConvention@UnDecorator@@CA?AVDName@@XZ 10018119 f i libvcruntime:undname.obj
 0001:0001712a       ?getString@DName@@QBEPADPAD0@Z 1001812a f i libvcruntime:undname.obj
 0001:00017157       ?getString@DName@@QBEPADPADH@Z 10018157 f i libvcruntime:undname.obj
 0001:000171ac       ?getString@DNameStatusNode@@UBEPADPAD0@Z 100181ac f i libvcruntime:undname.obj
 0001:000171f2       ?getString@charNode@@UBEPADPAD0@Z 100181f2 f i libvcruntime:undname.obj
 0001:00017207       ?getString@pDNameNode@@UBEPADPAD0@Z 10018207 f i libvcruntime:undname.obj
 0001:0001721e       ?getString@pairNode@@UBEPADPAD0@Z 1001821e f i libvcruntime:undname.obj
 0001:00017264       ?getString@pcharNode@@UBEPADPAD0@Z 10018264 f i libvcruntime:undname.obj
 0001:0001727f       ?getStringEncoding@UnDecorator@@CA?AVDName@@W4PrefixKind@@H@Z 1001827f f   libvcruntime:undname.obj
 0001:00017337       ?getStringHelper@@YAPADPADPBD1H@Z 10018337 f i libvcruntime:undname.obj
 0001:00017361       ?getStringObject@UnDecorator@@CA?AVDName@@XZ 10018361 f   libvcruntime:undname.obj
 0001:000173b8       ?getSymbolName@UnDecorator@@CA?AVDName@@XZ 100183b8 f i libvcruntime:undname.obj
 0001:00017400       ?getTemplateArgumentList@UnDecorator@@CA?AVDName@@XZ 10018400 f   libvcruntime:undname.obj
 0001:000175bc       ?getTemplateName@UnDecorator@@CA?AVDName@@_N@Z 100185bc f   libvcruntime:undname.obj
 0001:0001771d       ?getTemplateNonTypeArgument@UnDecorator@@CA?AVDName@@XZ 1001871d f   libvcruntime:undname.obj
 0001:00017ad1       ?getTemplateTypeArgument@UnDecorator@@CA?AVDName@@XZ 10018ad1 f   libvcruntime:undname.obj
 0001:00017bd7       ?getThisType@UnDecorator@@CA?AVDName@@XZ 10018bd7 f i libvcruntime:undname.obj
 0001:00017c06       ?getThrowTypes@UnDecorator@@CA?AVDName@@XZ 10018c06 f   libvcruntime:undname.obj
 0001:00017c29       ?getTypeEncoding@UnDecorator@@CAHXZ 10018c29 f i libvcruntime:undname.obj
 0001:00017f89       ?getUndecoratedName@UnDecorator@@QAEPADPADH@Z 10018f89 f i libvcruntime:undname.obj
 0001:000180a8       ?getUnionObject@UnDecorator@@CA?AVDName@@XZ 100190a8 f   libvcruntime:undname.obj
 0001:00018157       ?getVCallThunkType@UnDecorator@@CA?AVDName@@XZ 10019157 f i libvcruntime:undname.obj
 0001:000181ad       ?getValue@UnDecorator@@CA?AV?$optional@_K@std@@XZ 100191ad f   libvcruntime:undname.obj
 0001:0001821b       ?getValueObject@UnDecorator@@CA?AVDName@@XZ 1001921b f   libvcruntime:undname.obj
 0001:00018333       ?getVbTableType@UnDecorator@@CA?AVDName@@ABV2@@Z 10019333 f i libvcruntime:undname.obj
 0001:00018348       ?getVdispMapType@UnDecorator@@CA?AVDName@@ABV2@@Z 10019348 f i libvcruntime:undname.obj
 0001:000183a9       ?getVfTableType@UnDecorator@@CA?AVDName@@ABV2@@Z 100193a9 f i libvcruntime:undname.obj
 0001:000184ff       ?getZName@UnDecorator@@CA?AVDName@@_N0@Z 100194ff f   libvcruntime:undname.obj
 0001:00018714       ?haveTemplateParameters@UnDecorator@@SAHXZ 10019714 f i libvcruntime:undname.obj
 0001:0001871f       ?isArray@DName@@QBEHXZ     1001971f f i libvcruntime:undname.obj
 0001:00018729       ?isComArray@DName@@QBEHXZ  10019729 f i libvcruntime:undname.obj
 0001:00018733       ?isEmpty@DName@@QBEHXZ     10019733 f i libvcruntime:undname.obj
 0001:0001873b       ?isFull@Replicator@@QBEHXZ 1001973b f i libvcruntime:undname.obj
 0001:00018744       ?isNoTE@DName@@QBEHXZ      10019744 f i libvcruntime:undname.obj
 0001:0001874e       ?isPinPtr@DName@@QBEHXZ    1001974e f i libvcruntime:undname.obj
 0001:00018758       ?isPtrRef@DName@@QBEHXZ    10019758 f i libvcruntime:undname.obj
 0001:00018762       ?isUDC@DName@@QBEHXZ       10019762 f i libvcruntime:undname.obj
 0001:00018773       ?isUDTThunk@DName@@QBEHXZ  10019773 f i libvcruntime:undname.obj
 0001:00018784       ?isVCallThunk@DName@@QBEHXZ 10019784 f i libvcruntime:undname.obj
 0001:0001878e       ?isValid@DName@@QBEHXZ     1001978e f i libvcruntime:undname.obj
 0001:00018798       ?length@DName@@QBEHXZ      10019798 f i libvcruntime:undname.obj
 0001:000187b7       ?length@DNameStatusNode@@UBEHXZ 100197b7 f i libvcruntime:undname.obj
 0001:000187bb       ?length@charNode@@UBEHXZ   100197bb f i libvcruntime:undname.obj
 0001:000187bf       ?length@pDNameNode@@UBEHXZ 100197bf f i libvcruntime:undname.obj
 0001:000187cd       ?length@pairNode@@UBEHXZ   100197cd f i libvcruntime:undname.obj
 0001:00018816       ?length@pcharNode@@UBEHXZ  10019816 f i libvcruntime:undname.obj
 0001:0001881a       ?make@DNameStatusNode@@SAPBV1@W4DNameStatus@@@Z 1001981a f i libvcruntime:undname.obj
 0001:00018836       ?parseDecoratedName@UnDecorator@@CA?AVDName@@XZ 10019836 f   libvcruntime:undname.obj
 0001:00018930       ?raw_length@DNameStatusNode@@UBEHXZ 10019930 f i libvcruntime:undname.obj
 0001:00018934       ?raw_length@charNode@@UBEHXZ 10019934 f i libvcruntime:undname.obj
 0001:00018938       ?raw_length@pDNameNode@@UBEHXZ 10019938 f i libvcruntime:undname.obj
 0001:0001893c       ?raw_length@pairNode@@UBEHXZ 1001993c f i libvcruntime:undname.obj
 0001:00018940       ?raw_length@pcharNode@@UBEHXZ 10019940 f i libvcruntime:undname.obj
 0001:00018944       ?setIsArray@DName@@QAEXXZ  10019944 f i libvcruntime:undname.obj
 0001:0001894c       ?setIsComArray@DName@@QAEXXZ 1001994c f i libvcruntime:undname.obj
 0001:00018954       ?setIsNoTE@DName@@QAEXXZ   10019954 f i libvcruntime:undname.obj
 0001:0001895c       ?setIsPinPtr@DName@@QAEXXZ 1001995c f i libvcruntime:undname.obj
 0001:00018964       ?setIsUDC@DName@@QAEXXZ    10019964 f i libvcruntime:undname.obj
 0001:00018971       ?setIsVCallThunk@DName@@QAEXXZ 10019971 f i libvcruntime:undname.obj
 0001:00018979       ?setPtrRef@DName@@QAEAAV1@XZ 10019979 f i libvcruntime:undname.obj
 0001:00018983       ?status@DName@@QBE?AW4DNameStatus@@XZ 10019983 f i libvcruntime:undname.obj
 0001:000189ef       ___unDName                 100199ef f   libvcruntime:undname.obj
 0001:00018a12       ___unDNameEx               10019a12 f   libvcruntime:undname.obj
 0001:00018ab1       __vsprintf_s_l             10019ab1 f i libvcruntime:undname.obj
 0001:00018ade       _sprintf_s                 10019ade f i libvcruntime:undname.obj
 0001:00018afa       _unDNameGenerateCHPE       10019afa f   libvcruntime:undname.obj
 0001:00018b97       ??$__crt_interlocked_exchange_pointer@UHINSTANCE__@@PAU1@@@YAPAUHINSTANCE__@@PDSAU0@QAU0@@Z 10019b97 f i libvcruntime:winapi_downlevel.obj
 0001:00018ba4       ??$__crt_interlocked_exchange_pointer@UHINSTANCE__@@PAX@@YAPAUHINSTANCE__@@PDSAU0@QAX@Z 10019ba4 f i libvcruntime:winapi_downlevel.obj
 0001:00018bb1       ??$__crt_interlocked_exchange_pointer@XPAX@@YAPAXPDSAXQAX@Z 10019bb1 f i libvcruntime:winapi_downlevel.obj
 0001:00018bbe       ??$__crt_interlocked_read_pointer@UHINSTANCE__@@@@YAPAUHINSTANCE__@@PDSAU0@@Z 10019bbe f i libvcruntime:winapi_downlevel.obj
 0001:00018bc8       ??$__crt_interlocked_read_pointer@X@@YAPAXPDSAX@Z 10019bc8 f i libvcruntime:winapi_downlevel.obj
 0001:00018df7       ___vcrt_FlsAlloc           10019df7 f   libvcruntime:winapi_downlevel.obj
 0001:00018e32       ___vcrt_FlsFree            10019e32 f   libvcruntime:winapi_downlevel.obj
 0001:00018e6d       ___vcrt_FlsGetValue        10019e6d f   libvcruntime:winapi_downlevel.obj
 0001:00018ea8       ___vcrt_FlsSetValue        10019ea8 f   libvcruntime:winapi_downlevel.obj
 0001:00018ee6       ___vcrt_InitializeCriticalSectionEx 10019ee6 f   libvcruntime:winapi_downlevel.obj
 0001:00018f2d       ?GetCurrentState@__FrameHandler3@@SAHPAUEHRegistrationNode@@PAXPBU_s_FuncInfo@@@Z 10019f2d f   libvcruntime:ehstate.obj
 0001:00018f4a       ?SetState@__FrameHandler3@@SAXPAUEHRegistrationNode@@PBU_s_FuncInfo@@H@Z 10019f4a f   libvcruntime:ehstate.obj
 0001:00018f60       __global_unwind2           10019f60 f   libvcruntime:exsup.obj
 0001:00018fe0       __local_unwind2            10019fe0 f   libvcruntime:exsup.obj
 0001:00019080       __abnormal_termination     1001a080 f   libvcruntime:exsup.obj
 0001:000190b0       __NLG_Notify1              1001a0b0 f   libvcruntime:exsup.obj
 0001:000190c0       __NLG_Notify               1001a0c0 f   libvcruntime:exsup.obj
 0001:000190d7       __NLG_Dispatch2            1001a0d7     libvcruntime:exsup.obj
 0001:000190d7       __NLG_Dispatch             1001a0d7     libvcruntime:exsup.obj
 0001:000190e0       __NLG_Call                 1001a0e0 f   libvcruntime:exsup.obj
 0001:000190e2       __NLG_Return2              1001a0e2     libvcruntime:exsup.obj
 0001:000190e3       ??$__crt_fast_decode_pointer@P6AXPB_W00II@Z@@YAP6AXPB_W00II@ZQ6AX000II@Z@Z 1001a0e3 f i libucrt:invalid_parameter.obj
 0001:000190fe       ??$__crt_fast_encode_pointer@P6AXPB_W00II@Z@@YAP6AXPB_W00II@ZQ6AX000II@Z@Z 1001a0fe f i libucrt:invalid_parameter.obj
 0001:0001911d       ??$initialize_from_array@$$BY00Q6AXPB_W00II@Z@?$dual_state_global@P6AXPB_W00II@Z@__crt_state_management@@QAAXAAY00Q6AXPB_W00II@Z@Z 1001a11d f i libucrt:invalid_parameter.obj
 0001:0001912e       ??0?$cached@H@__crt_cached_ptd_host@@QAE@XZ 1001a12e f i libucrt:invalid_parameter.obj
 0001:00019135       ??0?$cached@K@__crt_cached_ptd_host@@QAE@XZ 1001a135 f i libucrt:invalid_parameter.obj
 0001:0001913c       ??0__crt_cached_ptd_host@@QAE@QAU__crt_locale_pointers@@@Z 1001a13c f i libucrt:invalid_parameter.obj
 0001:00019184       ??0__crt_scoped_get_last_error_reset@@QAE@XZ 1001a184 f i libucrt:invalid_parameter.obj
 0001:00019195       ??1__crt_cached_ptd_host@@QAE@XZ 1001a195 f i libucrt:invalid_parameter.obj
 0001:000191d1       ??1__crt_scoped_get_last_error_reset@@QAE@XZ 1001a1d1 f i libucrt:invalid_parameter.obj
 0001:000191da       ?__crt_rotate_pointer_value@@YAIIH@Z 1001a1da f i libucrt:invalid_parameter.obj
 0001:000191e9       ?check_synchronize_global_state_index@__crt_cached_ptd_host@@AAEIABV__crt_scoped_get_last_error_reset@@@Z 1001a1e9 f i libucrt:invalid_parameter.obj
 0001:00019201       ?check_synchronize_global_state_index@__crt_cached_ptd_host@@AAEIXZ 1001a201 f i libucrt:invalid_parameter.obj
 0001:0001922a       ?check_synchronize_per_thread_data@__crt_cached_ptd_host@@AAEPAU__acrt_ptd@@XZ 1001a22a f i libucrt:invalid_parameter.obj
 0001:00019247       ?dangerous_get_state_array@?$dual_state_global@P6AXPB_W00II@Z@__crt_state_management@@QAEPAP6AXPB_W00II@ZXZ 1001a247 f i libucrt:invalid_parameter.obj
 0001:0001924a       ?force_synchronize_global_state_index@__crt_cached_ptd_host@@AAEIABV__crt_scoped_get_last_error_reset@@@Z 1001a24a f i libucrt:invalid_parameter.obj
 0001:00019257       ?force_synchronize_per_thread_data@__crt_cached_ptd_host@@AAEPAU__acrt_ptd@@XZ 1001a257 f i libucrt:invalid_parameter.obj
 0001:0001929d       ?get_current_global_state_index@__crt_cached_ptd_host@@QAEIXZ 1001a29d f i libucrt:invalid_parameter.obj
 0001:000192a2       ?get_current_state_index@__crt_state_management@@YAIABV__crt_scoped_get_last_error_reset@@@Z 1001a2a2 f i libucrt:invalid_parameter.obj
 0001:000192a5       ?get_current_state_index@__crt_state_management@@YAIXZ 1001a2a5 f i libucrt:invalid_parameter.obj
 0001:000192a8       ?get_raw_ptd@__crt_cached_ptd_host@@QAEPAU__acrt_ptd@@XZ 1001a2a8 f i libucrt:invalid_parameter.obj
 0001:000192c5       ?get_raw_ptd_noexit@__crt_cached_ptd_host@@QAEPAU__acrt_ptd@@XZ 1001a2c5 f i libucrt:invalid_parameter.obj
 0001:000192d0       ?try_synchronize_per_thread_data@__crt_cached_ptd_host@@AAEPAU__acrt_ptd@@XZ 1001a2d0 f i libucrt:invalid_parameter.obj
 0001:000192db       ?unsafe_value@?$cached@H@__crt_cached_ptd_host@@QAEHXZ 1001a2db f i libucrt:invalid_parameter.obj
 0001:000192de       ?unsafe_value@?$cached@K@__crt_cached_ptd_host@@QAEKXZ 1001a2de f i libucrt:invalid_parameter.obj
 0001:000192e1       ?valid@?$cached@H@__crt_cached_ptd_host@@QBE_NXZ 1001a2e1 f i libucrt:invalid_parameter.obj
 0001:000192e5       ?valid@?$cached@K@__crt_cached_ptd_host@@QBE_NXZ 1001a2e5 f i libucrt:invalid_parameter.obj
 0001:000192e9       ?value@?$dual_state_global@P6AXPB_W00II@Z@__crt_state_management@@QAEAAP6AXPB_W00II@ZAAV__crt_cached_ptd_host@@@Z 1001a2e9 f i libucrt:invalid_parameter.obj
 0001:00019301       ?value@?$dual_state_global@P6AXPB_W00II@Z@__crt_state_management@@QAEAAP6AXPB_W00II@ZXZ 1001a301 f i libucrt:invalid_parameter.obj
 0001:00019304       ___acrt_call_reportfault   1001a304 f   libucrt:invalid_parameter.obj
 0001:0001943d       ___acrt_enable_global_locale_sync 1001a43d f i libucrt:invalid_parameter.obj
 0001:00019452       ___acrt_initialize_invalid_parameter_handler 1001a452 f   libucrt:invalid_parameter.obj
 0001:00019461       ___acrt_locale_changed     1001a461 f i libucrt:invalid_parameter.obj
 0001:0001946c       __get_invalid_parameter_handler 1001a46c f   libucrt:invalid_parameter.obj
 0001:00019483       __get_thread_local_invalid_parameter_handler 1001a483 f   libucrt:invalid_parameter.obj
 0001:00019494       __invalid_parameter        1001a494 f   libucrt:invalid_parameter.obj
 0001:000194cb       __invalid_parameter_internal 1001a4cb f   libucrt:invalid_parameter.obj
 0001:00019548       __invalid_parameter_noinfo 1001a548 f   libucrt:invalid_parameter.obj
 0001:00019558       __invalid_parameter_noinfo_noreturn 1001a558 f   libucrt:invalid_parameter.obj
 0001:00019575       __invoke_watson            1001a575 f   libucrt:invalid_parameter.obj
 0001:000195a9       __set_invalid_parameter_handler 1001a5a9 f   libucrt:invalid_parameter.obj
 0001:000195d9       __set_thread_local_invalid_parameter_handler 1001a5d9 f   libucrt:invalid_parameter.obj
 0001:000195f6       ?get_doserrno@__crt_cached_ptd_host@@QAE@XZ 1001a5f6 f i libucrt:errno.obj
 0001:000195fa       ?get_errno@__crt_cached_ptd_host@@QAE@XZ 1001a5fa f i libucrt:errno.obj
 0001:000195fe       ?set@?$cached@H@__crt_cached_ptd_host@@QAEHH@Z 1001a5fe f i libucrt:errno.obj
 0001:00019610       ?set@?$cached@K@__crt_cached_ptd_host@@QAEKK@Z 1001a610 f i libucrt:errno.obj
 0001:00019622       ___acrt_errno_from_os_error 1001a622 f   libucrt:errno.obj
 0001:00019665       ___acrt_errno_map_os_error 1001a665 f   libucrt:errno.obj
 0001:00019688       ___acrt_errno_map_os_error_ptd 1001a688 f   libucrt:errno.obj
 0001:000196ac       ___doserrno                1001a6ac f   libucrt:errno.obj
 0001:000196bf       __errno                    1001a6bf f   libucrt:errno.obj
 0001:000196d2       __get_doserrno             1001a6d2 f   libucrt:errno.obj
 0001:000196f7       __get_errno                1001a6f7 f   libucrt:errno.obj
 0001:0001971c       __set_doserrno             1001a71c f   libucrt:errno.obj
 0001:0001973d       __set_errno                1001a73d f   libucrt:errno.obj
 0001:000197c2       _wcscpy_s                  1001a7c2 f   libucrt:wcscpy_s.obj
 0001:000198f4       _wcsncpy_s                 1001a8f4 f   libucrt:wcsncpy_s.obj
 0001:0001a0fa       ??1?$__crt_simd_cleanup_guard@$00@@QAE@XZ 1001b0fa f i libucrt:strnlen.obj
 0001:0001a0fe       ??1?$__crt_simd_cleanup_guard@$0A@@@QAE@XZ 1001b0fe f i libucrt:strnlen.obj
 0001:0001a101       ?compare_equals@?$__crt_simd_traits@$00E@@SA?AT__m256i@@T2@0@Z 1001b101 f i libucrt:strnlen.obj
 0001:0001a106       ?compare_equals@?$__crt_simd_traits@$00G@@SA?AT__m256i@@T2@0@Z 1001b106 f i libucrt:strnlen.obj
 0001:0001a10b       ?compare_equals@?$__crt_simd_traits@$0A@E@@SA?AT__m128i@@T2@0@Z 1001b10b f i libucrt:strnlen.obj
 0001:0001a110       ?compare_equals@?$__crt_simd_traits@$0A@G@@SA?AT__m128i@@T2@0@Z 1001b110 f i libucrt:strnlen.obj
 0001:0001a115       ?compute_byte_mask@?$__crt_simd_pack_traits@$00@@SAHT__m256i@@@Z 1001b115 f i libucrt:strnlen.obj
 0001:0001a11a       ?compute_byte_mask@?$__crt_simd_pack_traits@$0A@@@SAHT__m128i@@@Z 1001b11a f i libucrt:strnlen.obj
 0001:0001a11f       ?get_zero_pack@?$__crt_simd_pack_traits@$00@@SA?AT__m256i@@XZ 1001b11f f i libucrt:strnlen.obj
 0001:0001a124       ?get_zero_pack@?$__crt_simd_pack_traits@$0A@@@SA?AT__m128i@@XZ 1001b124 f i libucrt:strnlen.obj
 0001:0001a128       _strnlen                   1001b128 f   libucrt:strnlen.obj
 0001:0001a24a       _wcslen                    1001b24a f   libucrt:strnlen.obj
 0001:0001a372       _wcsnlen                   1001b372 f   libucrt:strnlen.obj
 0001:0001a522       _wcsncmp                   1001b522 f   libucrt:wcsncmp.obj
 0001:0001a55c       ??$?0ABV?$stream_output_adapter@D@__crt_stdio_output@@AB_KABQBDAAV__crt_cached_ptd_host@@ABQAD@?$format_validation_base@DV?$stream_output_adapter@D@__crt_stdio_output@@@__crt_stdio_output@@IAE@ABV?$stream_output_adapter@D@1@AB_KABQBDAAV__crt_cached_ptd_host@@ABQAD@Z 1001b55c f i libucrt:output.obj
 0001:0001a57f       ??$?0ABV?$stream_output_adapter@D@__crt_stdio_output@@AB_KABQBDAAV__crt_cached_ptd_host@@ABQAD@?$positional_parameter_base@DV?$stream_output_adapter@D@__crt_stdio_output@@@__crt_stdio_output@@IAE@ABV?$stream_output_adapter@D@1@AB_KABQBDAAV__crt_cached_ptd_host@@ABQAD@Z 1001b57f f i libucrt:output.obj
 0001:0001a5c7       ??$?0ABV?$stream_output_adapter@D@__crt_stdio_output@@AB_KABQBDAAV__crt_cached_ptd_host@@ABQAD@?$standard_base@DV?$stream_output_adapter@D@__crt_stdio_output@@@__crt_stdio_output@@IAE@ABV?$stream_output_adapter@D@1@AB_KABQBDAAV__crt_cached_ptd_host@@ABQAD@Z 1001b5c7 f i libucrt:output.obj
 0001:0001a5fa       ??$?0ABV?$stream_output_adapter@_W@__crt_stdio_output@@AB_KABQB_WAAV__crt_cached_ptd_host@@ABQAD@?$format_validation_base@_WV?$stream_output_adapter@_W@__crt_stdio_output@@@__crt_stdio_output@@IAE@ABV?$stream_output_adapter@_W@1@AB_KABQB_WAAV__crt_cached_ptd_host@@ABQAD@Z 1001b5fa f i libucrt:output.obj
 0001:0001a61d       ??$?0ABV?$stream_output_adapter@_W@__crt_stdio_output@@AB_KABQB_WAAV__crt_cached_ptd_host@@ABQAD@?$positional_parameter_base@_WV?$stream_output_adapter@_W@__crt_stdio_output@@@__crt_stdio_output@@IAE@ABV?$stream_output_adapter@_W@1@AB_KABQB_WAAV__crt_cached_ptd_host@@ABQAD@Z 1001b61d f i libucrt:output.obj
 0001:0001a665       ??$?0ABV?$stream_output_adapter@_W@__crt_stdio_output@@AB_KABQB_WAAV__crt_cached_ptd_host@@ABQAD@?$standard_base@_WV?$stream_output_adapter@_W@__crt_stdio_output@@@__crt_stdio_output@@IAE@ABV?$stream_output_adapter@_W@1@AB_KABQB_WAAV__crt_cached_ptd_host@@ABQAD@Z 1001b665 f i libucrt:output.obj
 0001:0001a698       ??$?0ABV?$string_output_adapter@D@__crt_stdio_output@@AB_KABQBDAAV__crt_cached_ptd_host@@ABQAD@?$format_validation_base@DV?$string_output_adapter@D@__crt_stdio_output@@@__crt_stdio_output@@IAE@ABV?$string_output_adapter@D@1@AB_KABQBDAAV__crt_cached_ptd_host@@ABQAD@Z 1001b698 f i libucrt:output.obj
 0001:0001a6bb       ??$?0ABV?$string_output_adapter@D@__crt_stdio_output@@AB_KABQBDAAV__crt_cached_ptd_host@@ABQAD@?$positional_parameter_base@DV?$string_output_adapter@D@__crt_stdio_output@@@__crt_stdio_output@@IAE@ABV?$string_output_adapter@D@1@AB_KABQBDAAV__crt_cached_ptd_host@@ABQAD@Z 1001b6bb f i libucrt:output.obj
 0001:0001a703       ??$?0ABV?$string_output_adapter@D@__crt_stdio_output@@AB_KABQBDAAV__crt_cached_ptd_host@@ABQAD@?$standard_base@DV?$string_output_adapter@D@__crt_stdio_output@@@__crt_stdio_output@@IAE@ABV?$string_output_adapter@D@1@AB_KABQBDAAV__crt_cached_ptd_host@@ABQAD@Z 1001b703 f i libucrt:output.obj
 0001:0001a736       ??$?0ABV?$string_output_adapter@_W@__crt_stdio_output@@AB_KABQB_WAAV__crt_cached_ptd_host@@ABQAD@?$format_validation_base@_WV?$string_output_adapter@_W@__crt_stdio_output@@@__crt_stdio_output@@IAE@ABV?$string_output_adapter@_W@1@AB_KABQB_WAAV__crt_cached_ptd_host@@ABQAD@Z 1001b736 f i libucrt:output.obj
 0001:0001a759       ??$?0ABV?$string_output_adapter@_W@__crt_stdio_output@@AB_KABQB_WAAV__crt_cached_ptd_host@@ABQAD@?$positional_parameter_base@_WV?$string_output_adapter@_W@__crt_stdio_output@@@__crt_stdio_output@@IAE@ABV?$string_output_adapter@_W@1@AB_KABQB_WAAV__crt_cached_ptd_host@@ABQAD@Z 1001b759 f i libucrt:output.obj
 0001:0001a7a1       ??$?0ABV?$string_output_adapter@_W@__crt_stdio_output@@AB_KABQB_WAAV__crt_cached_ptd_host@@ABQAD@?$standard_base@_WV?$string_output_adapter@_W@__crt_stdio_output@@@__crt_stdio_output@@IAE@ABV?$string_output_adapter@_W@1@AB_KABQB_WAAV__crt_cached_ptd_host@@ABQAD@Z 1001b7a1 f i libucrt:output.obj
 0001:0001aada       ??$__crt_interlocked_read@J@@YAJPDJ@Z 1001bada f i libucrt:output.obj
 0001:0001aae7       ??$_tcstol_internal@DPAPAD$0A@@@YAJAAV__crt_cached_ptd_host@@QBDQAPADH@Z 1001bae7 f i libucrt:output.obj
 0001:0001ab12       ??$_tcstol_internal@_WPAPA_W$0A@@@YAJAAV__crt_cached_ptd_host@@QB_WQAPA_WH@Z 1001bb12 f i libucrt:output.obj
 0001:0001ba6c       ??$count@D@formatting_buffer@__crt_stdio_output@@QBEIXZ 1001ca6c f i libucrt:output.obj
 0001:0001ba84       ??$count@_W@formatting_buffer@__crt_stdio_output@@QBEIXZ 1001ca84 f i libucrt:output.obj
 0001:0001ba9d       ??$data@D@formatting_buffer@__crt_stdio_output@@QAEPADXZ 1001ca9d f i libucrt:output.obj
 0001:0001baaa       ??$data@_W@formatting_buffer@__crt_stdio_output@@QAEPA_WXZ 1001caaa f i libucrt:output.obj
 0001:0001bab7       ??$ensure_buffer_is_big_enough@D@formatting_buffer@__crt_stdio_output@@QAE_NIAAV__crt_cached_ptd_host@@@Z 1001cab7 f i libucrt:output.obj
 0001:0001bb38       ??$ensure_buffer_is_big_enough@_W@formatting_buffer@__crt_stdio_output@@QAE_NIAAV__crt_cached_ptd_host@@@Z 1001cb38 f i libucrt:output.obj
 0001:0001bbba       ??$extract_argument_from_va_list@C_J@?$positional_parameter_base@DV?$stream_output_adapter@D@__crt_stdio_output@@@__crt_stdio_output@@IAE_NAA_J@Z 1001cbba f i libucrt:output.obj
 0001:0001bc49       ??$extract_argument_from_va_list@C_J@?$positional_parameter_base@DV?$string_output_adapter@D@__crt_stdio_output@@@__crt_stdio_output@@IAE_NAA_J@Z 1001cc49 f i libucrt:output.obj
 0001:0001bcd8       ??$extract_argument_from_va_list@C_J@?$positional_parameter_base@_WV?$stream_output_adapter@_W@__crt_stdio_output@@@__crt_stdio_output@@IAE_NAA_J@Z 1001ccd8 f i libucrt:output.obj
 0001:0001bd68       ??$extract_argument_from_va_list@C_J@?$positional_parameter_base@_WV?$string_output_adapter@_W@__crt_stdio_output@@@__crt_stdio_output@@IAE_NAA_J@Z 1001cd68 f i libucrt:output.obj
 0001:0001bdf8       ??$extract_argument_from_va_list@C_J@?$standard_base@DV?$stream_output_adapter@D@__crt_stdio_output@@@__crt_stdio_output@@IAE_NAA_J@Z 1001cdf8 f i libucrt:output.obj
 0001:0001be18       ??$extract_argument_from_va_list@C_J@?$standard_base@DV?$string_output_adapter@D@__crt_stdio_output@@@__crt_stdio_output@@IAE_NAA_J@Z 1001ce18 f i libucrt:output.obj
 0001:0001be38       ??$extract_argument_from_va_list@C_J@?$standard_base@_WV?$stream_output_adapter@_W@__crt_stdio_output@@@__crt_stdio_output@@IAE_NAA_J@Z 1001ce38 f i libucrt:output.obj
 0001:0001be58       ??$extract_argument_from_va_list@C_J@?$standard_base@_WV?$string_output_adapter@_W@__crt_stdio_output@@@__crt_stdio_output@@IAE_NAA_J@Z 1001ce58 f i libucrt:output.obj
 0001:0001be78       ??$extract_argument_from_va_list@E_J@?$positional_parameter_base@DV?$stream_output_adapter@D@__crt_stdio_output@@@__crt_stdio_output@@IAE_NAA_J@Z 1001ce78 f i libucrt:output.obj
 0001:0001bf07       ??$extract_argument_from_va_list@E_J@?$positional_parameter_base@DV?$string_output_adapter@D@__crt_stdio_output@@@__crt_stdio_output@@IAE_NAA_J@Z 1001cf07 f i libucrt:output.obj
 0001:0001bf96       ??$extract_argument_from_va_list@E_J@?$positional_parameter_base@_WV?$stream_output_adapter@_W@__crt_stdio_output@@@__crt_stdio_output@@IAE_NAA_J@Z 1001cf96 f i libucrt:output.obj
 0001:0001c026       ??$extract_argument_from_va_list@E_J@?$positional_parameter_base@_WV?$string_output_adapter@_W@__crt_stdio_output@@@__crt_stdio_output@@IAE_NAA_J@Z 1001d026 f i libucrt:output.obj
 0001:0001c0b6       ??$extract_argument_from_va_list@E_J@?$standard_base@DV?$stream_output_adapter@D@__crt_stdio_output@@@__crt_stdio_output@@IAE_NAA_J@Z 1001d0b6 f i libucrt:output.obj
 0001:0001c0d6       ??$extract_argument_from_va_list@E_J@?$standard_base@DV?$string_output_adapter@D@__crt_stdio_output@@@__crt_stdio_output@@IAE_NAA_J@Z 1001d0d6 f i libucrt:output.obj
 0001:0001c0f6       ??$extract_argument_from_va_list@E_J@?$standard_base@_WV?$stream_output_adapter@_W@__crt_stdio_output@@@__crt_stdio_output@@IAE_NAA_J@Z 1001d0f6 f i libucrt:output.obj
 0001:0001c116       ??$extract_argument_from_va_list@E_J@?$standard_base@_WV?$string_output_adapter@_W@__crt_stdio_output@@@__crt_stdio_output@@IAE_NAA_J@Z 1001d116 f i libucrt:output.obj
 0001:0001c136       ??$extract_argument_from_va_list@F_J@?$positional_parameter_base@DV?$stream_output_adapter@D@__crt_stdio_output@@@__crt_stdio_output@@IAE_NAA_J@Z 1001d136 f i libucrt:output.obj
 0001:0001c1c5       ??$extract_argument_from_va_list@F_J@?$positional_parameter_base@DV?$string_output_adapter@D@__crt_stdio_output@@@__crt_stdio_output@@IAE_NAA_J@Z 1001d1c5 f i libucrt:output.obj
 0001:0001c254       ??$extract_argument_from_va_list@F_J@?$positional_parameter_base@_WV?$stream_output_adapter@_W@__crt_stdio_output@@@__crt_stdio_output@@IAE_NAA_J@Z 1001d254 f i libucrt:output.obj
 0001:0001c2e4       ??$extract_argument_from_va_list@F_J@?$positional_parameter_base@_WV?$string_output_adapter@_W@__crt_stdio_output@@@__crt_stdio_output@@IAE_NAA_J@Z 1001d2e4 f i libucrt:output.obj
 0001:0001c374       ??$extract_argument_from_va_list@F_J@?$standard_base@DV?$stream_output_adapter@D@__crt_stdio_output@@@__crt_stdio_output@@IAE_NAA_J@Z 1001d374 f i libucrt:output.obj
 0001:0001c394       ??$extract_argument_from_va_list@F_J@?$standard_base@DV?$string_output_adapter@D@__crt_stdio_output@@@__crt_stdio_output@@IAE_NAA_J@Z 1001d394 f i libucrt:output.obj
 0001:0001c3b4       ??$extract_argument_from_va_list@F_J@?$standard_base@_WV?$stream_output_adapter@_W@__crt_stdio_output@@@__crt_stdio_output@@IAE_NAA_J@Z 1001d3b4 f i libucrt:output.obj
 0001:0001c3d4       ??$extract_argument_from_va_list@F_J@?$standard_base@_WV?$string_output_adapter@_W@__crt_stdio_output@@@__crt_stdio_output@@IAE_NAA_J@Z 1001d3d4 f i libucrt:output.obj
 0001:0001c3f4       ??$extract_argument_from_va_list@GD@?$positional_parameter_base@DV?$stream_output_adapter@D@__crt_stdio_output@@@__crt_stdio_output@@IAE_NAAD@Z 1001d3f4 f i libucrt:output.obj
 0001:0001c482       ??$extract_argument_from_va_list@GD@?$positional_parameter_base@DV?$string_output_adapter@D@__crt_stdio_output@@@__crt_stdio_output@@IAE_NAAD@Z 1001d482 f i libucrt:output.obj
 0001:0001c510       ??$extract_argument_from_va_list@GD@?$standard_base@DV?$stream_output_adapter@D@__crt_stdio_output@@@__crt_stdio_output@@IAE_NAAD@Z 1001d510 f i libucrt:output.obj
 0001:0001c52b       ??$extract_argument_from_va_list@GD@?$standard_base@DV?$string_output_adapter@D@__crt_stdio_output@@@__crt_stdio_output@@IAE_NAAD@Z 1001d52b f i libucrt:output.obj
 0001:0001c546       ??$extract_argument_from_va_list@G_J@?$positional_parameter_base@DV?$stream_output_adapter@D@__crt_stdio_output@@@__crt_stdio_output@@IAE_NAA_J@Z 1001d546 f i libucrt:output.obj
 0001:0001c5d5       ??$extract_argument_from_va_list@G_J@?$positional_parameter_base@DV?$string_output_adapter@D@__crt_stdio_output@@@__crt_stdio_output@@IAE_NAA_J@Z 1001d5d5 f i libucrt:output.obj
 0001:0001c664       ??$extract_argument_from_va_list@G_J@?$positional_parameter_base@_WV?$stream_output_adapter@_W@__crt_stdio_output@@@__crt_stdio_output@@IAE_NAA_J@Z 1001d664 f i libucrt:output.obj
 0001:0001c6f4       ??$extract_argument_from_va_list@G_J@?$positional_parameter_base@_WV?$string_output_adapter@_W@__crt_stdio_output@@@__crt_stdio_output@@IAE_NAA_J@Z 1001d6f4 f i libucrt:output.obj
 0001:0001c784       ??$extract_argument_from_va_list@G_J@?$standard_base@DV?$stream_output_adapter@D@__crt_stdio_output@@@__crt_stdio_output@@IAE_NAA_J@Z 1001d784 f i libucrt:output.obj
 0001:0001c7a4       ??$extract_argument_from_va_list@G_J@?$standard_base@DV?$string_output_adapter@D@__crt_stdio_output@@@__crt_stdio_output@@IAE_NAA_J@Z 1001d7a4 f i libucrt:output.obj
 0001:0001c7c4       ??$extract_argument_from_va_list@G_J@?$standard_base@_WV?$stream_output_adapter@_W@__crt_stdio_output@@@__crt_stdio_output@@IAE_NAA_J@Z 1001d7c4 f i libucrt:output.obj
 0001:0001c7e4       ??$extract_argument_from_va_list@G_J@?$standard_base@_WV?$string_output_adapter@_W@__crt_stdio_output@@@__crt_stdio_output@@IAE_NAA_J@Z 1001d7e4 f i libucrt:output.obj
 0001:0001c804       ??$extract_argument_from_va_list@H_J@?$positional_parameter_base@DV?$stream_output_adapter@D@__crt_stdio_output@@@__crt_stdio_output@@IAE_NAA_J@Z 1001d804 f i libucrt:output.obj
 0001:0001c88d       ??$extract_argument_from_va_list@H_J@?$positional_parameter_base@DV?$string_output_adapter@D@__crt_stdio_output@@@__crt_stdio_output@@IAE_NAA_J@Z 1001d88d f i libucrt:output.obj
 0001:0001c916       ??$extract_argument_from_va_list@H_J@?$positional_parameter_base@_WV?$stream_output_adapter@_W@__crt_stdio_output@@@__crt_stdio_output@@IAE_NAA_J@Z 1001d916 f i libucrt:output.obj
 0001:0001c9a0       ??$extract_argument_from_va_list@H_J@?$positional_parameter_base@_WV?$string_output_adapter@_W@__crt_stdio_output@@@__crt_stdio_output@@IAE_NAA_J@Z 1001d9a0 f i libucrt:output.obj
 0001:0001ca2a       ??$extract_argument_from_va_list@H_J@?$standard_base@DV?$stream_output_adapter@D@__crt_stdio_output@@@__crt_stdio_output@@IAE_NAA_J@Z 1001da2a f i libucrt:output.obj
 0001:0001ca49       ??$extract_argument_from_va_list@H_J@?$standard_base@DV?$string_output_adapter@D@__crt_stdio_output@@@__crt_stdio_output@@IAE_NAA_J@Z 1001da49 f i libucrt:output.obj
 0001:0001ca68       ??$extract_argument_from_va_list@H_J@?$standard_base@_WV?$stream_output_adapter@_W@__crt_stdio_output@@@__crt_stdio_output@@IAE_NAA_J@Z 1001da68 f i libucrt:output.obj
 0001:0001ca87       ??$extract_argument_from_va_list@H_J@?$standard_base@_WV?$string_output_adapter@_W@__crt_stdio_output@@@__crt_stdio_output@@IAE_NAA_J@Z 1001da87 f i libucrt:output.obj
 0001:0001caa6       ??$extract_argument_from_va_list@I_J@?$positional_parameter_base@DV?$stream_output_adapter@D@__crt_stdio_output@@@__crt_stdio_output@@IAE_NAA_J@Z 1001daa6 f i libucrt:output.obj
 0001:0001cb3c       ??$extract_argument_from_va_list@I_J@?$positional_parameter_base@DV?$string_output_adapter@D@__crt_stdio_output@@@__crt_stdio_output@@IAE_NAA_J@Z 1001db3c f i libucrt:output.obj
 0001:0001cbd2       ??$extract_argument_from_va_list@I_J@?$positional_parameter_base@_WV?$stream_output_adapter@_W@__crt_stdio_output@@@__crt_stdio_output@@IAE_NAA_J@Z 1001dbd2 f i libucrt:output.obj
 0001:0001cc69       ??$extract_argument_from_va_list@I_J@?$positional_parameter_base@_WV?$string_output_adapter@_W@__crt_stdio_output@@@__crt_stdio_output@@IAE_NAA_J@Z 1001dc69 f i libucrt:output.obj
 0001:0001cd00       ??$extract_argument_from_va_list@I_J@?$standard_base@DV?$stream_output_adapter@D@__crt_stdio_output@@@__crt_stdio_output@@IAE_NAA_J@Z 1001dd00 f i libucrt:output.obj
 0001:0001cd1f       ??$extract_argument_from_va_list@I_J@?$standard_base@DV?$string_output_adapter@D@__crt_stdio_output@@@__crt_stdio_output@@IAE_NAA_J@Z 1001dd1f f i libucrt:output.obj
 0001:0001cd3e       ??$extract_argument_from_va_list@I_J@?$standard_base@_WV?$stream_output_adapter@_W@__crt_stdio_output@@@__crt_stdio_output@@IAE_NAA_J@Z 1001dd3e f i libucrt:output.obj
 0001:0001cd5d       ??$extract_argument_from_va_list@I_J@?$standard_base@_WV?$string_output_adapter@_W@__crt_stdio_output@@@__crt_stdio_output@@IAE_NAA_J@Z 1001dd5d f i libucrt:output.obj
 0001:0001cd7c       ??$extract_argument_from_va_list@PADPAD@?$positional_parameter_base@DV?$stream_output_adapter@D@__crt_stdio_output@@@__crt_stdio_output@@IAE_NAAPAD@Z 1001dd7c f i libucrt:output.obj
 0001:0001ce0a       ??$extract_argument_from_va_list@PADPAD@?$positional_parameter_base@DV?$string_output_adapter@D@__crt_stdio_output@@@__crt_stdio_output@@IAE_NAAPAD@Z 1001de0a f i libucrt:output.obj
 0001:0001ce98       ??$extract_argument_from_va_list@PADPAD@?$positional_parameter_base@_WV?$stream_output_adapter@_W@__crt_stdio_output@@@__crt_stdio_output@@IAE_NAAPAD@Z 1001de98 f i libucrt:output.obj
 0001:0001cf27       ??$extract_argument_from_va_list@PADPAD@?$positional_parameter_base@_WV?$string_output_adapter@_W@__crt_stdio_output@@@__crt_stdio_output@@IAE_NAAPAD@Z 1001df27 f i libucrt:output.obj
 0001:0001cfb6       ??$extract_argument_from_va_list@PADPAD@?$standard_base@DV?$stream_output_adapter@D@__crt_stdio_output@@@__crt_stdio_output@@IAE_NAAPAD@Z 1001dfb6 f i libucrt:output.obj
 0001:0001cfd3       ??$extract_argument_from_va_list@PADPAD@?$standard_base@DV?$string_output_adapter@D@__crt_stdio_output@@@__crt_stdio_output@@IAE_NAAPAD@Z 1001dfd3 f i libucrt:output.obj
 0001:0001cff0       ??$extract_argument_from_va_list@PADPAD@?$standard_base@_WV?$stream_output_adapter@_W@__crt_stdio_output@@@__crt_stdio_output@@IAE_NAAPAD@Z 1001dff0 f i libucrt:output.obj
 0001:0001d00d       ??$extract_argument_from_va_list@PADPAD@?$standard_base@_WV?$string_output_adapter@_W@__crt_stdio_output@@@__crt_stdio_output@@IAE_NAAPAD@Z 1001e00d f i libucrt:output.obj
 0001:0001d02a       ??$extract_argument_from_va_list@PAUansi_string@?1??type_case_Z@?$output_processor@DV?$stream_output_adapter@D@__crt_stdio_output@@V?$format_validation_base@DV?$stream_output_adapter@D@__crt_stdio_output@@@2@@__crt_stdio_output@@AAE_NXZ@PAU1?1??234@AAE_NXZ@@?$standard_base@DV?$stream_output_adapter@D@__crt_stdio_output@@@__crt_stdio_output@@IAE_NAAPAUansi_string@?1??type_case_Z@?$output_processor@DV?$stream_output_adapter@D@__crt_stdio_output@@V?$format_validation_base@DV?$stream_output_adapter@D@__crt_stdio_output@@@2@@1@AAE_NXZ@@Z 1001e02a f i libucrt:output.obj
 0001:0001d047       ??$extract_argument_from_va_list@PAUansi_string@?1??type_case_Z@?$output_processor@DV?$stream_output_adapter@D@__crt_stdio_output@@V?$positional_parameter_base@DV?$stream_output_adapter@D@__crt_stdio_output@@@2@@__crt_stdio_output@@AAE_NXZ@PAU1?1??234@AAE_NXZ@@?$positional_parameter_base@DV?$stream_output_adapter@D@__crt_stdio_output@@@__crt_stdio_output@@IAE_NAAPAUansi_string@?1??type_case_Z@?$output_processor@DV?$stream_output_adapter@D@__crt_stdio_output@@V?$positional_parameter_base@DV?$stream_output_adapter@D@__crt_stdio_output@@@2@@1@AAE_NXZ@@Z 1001e047 f i libucrt:output.obj
 0001:0001d0d5       ??$extract_argument_from_va_list@PAUansi_string@?1??type_case_Z@?$output_processor@DV?$stream_output_adapter@D@__crt_stdio_output@@V?$positional_parameter_base@DV?$stream_output_adapter@D@__crt_stdio_output@@@2@@__crt_stdio_output@@AAE_NXZ@PAU1?1??234@AAE_NXZ@@?$standard_base@DV?$stream_output_adapter@D@__crt_stdio_output@@@__crt_stdio_output@@IAE_NAAPAUansi_string@?1??type_case_Z@?$output_processor@DV?$stream_output_adapter@D@__crt_stdio_output@@V?$positional_parameter_base@DV?$stream_output_adapter@D@__crt_stdio_output@@@2@@1@AAE_NXZ@@Z 1001e0d5 f i libucrt:output.obj
 0001:0001d0f2       ??$extract_argument_from_va_list@PAUansi_string@?1??type_case_Z@?$output_processor@DV?$stream_output_adapter@D@__crt_stdio_output@@V?$standard_base@DV?$stream_output_adapter@D@__crt_stdio_output@@@2@@__crt_stdio_output@@AAE_NXZ@PAU1?1??234@AAE_NXZ@@?$standard_base@DV?$stream_output_adapter@D@__crt_stdio_output@@@__crt_stdio_output@@IAE_NAAPAUansi_string@?1??type_case_Z@?$output_processor@DV?$stream_output_adapter@D@__crt_stdio_output@@V?$standard_base@DV?$stream_output_adapter@D@__crt_stdio_output@@@2@@1@AAE_NXZ@@Z 1001e0f2 f i libucrt:output.obj
 0001:0001d10f       ??$extract_argument_from_va_list@PAUansi_string@?1??type_case_Z@?$output_processor@DV?$string_output_adapter@D@__crt_stdio_output@@V?$format_validation_base@DV?$string_output_adapter@D@__crt_stdio_output@@@2@@__crt_stdio_output@@AAE_NXZ@PAU1?1??234@AAE_NXZ@@?$standard_base@DV?$string_output_adapter@D@__crt_stdio_output@@@__crt_stdio_output@@IAE_NAAPAUansi_string@?1??type_case_Z@?$output_processor@DV?$string_output_adapter@D@__crt_stdio_output@@V?$format_validation_base@DV?$string_output_adapter@D@__crt_stdio_output@@@2@@1@AAE_NXZ@@Z 1001e10f f i libucrt:output.obj
 0001:0001d12c       ??$extract_argument_from_va_list@PAUansi_string@?1??type_case_Z@?$output_processor@DV?$string_output_adapter@D@__crt_stdio_output@@V?$positional_parameter_base@DV?$string_output_adapter@D@__crt_stdio_output@@@2@@__crt_stdio_output@@AAE_NXZ@PAU1?1??234@AAE_NXZ@@?$positional_parameter_base@DV?$string_output_adapter@D@__crt_stdio_output@@@__crt_stdio_output@@IAE_NAAPAUansi_string@?1??type_case_Z@?$output_processor@DV?$string_output_adapter@D@__crt_stdio_output@@V?$positional_parameter_base@DV?$string_output_adapter@D@__crt_stdio_output@@@2@@1@AAE_NXZ@@Z 1001e12c f i libucrt:output.obj
 0001:0001d1ba       ??$extract_argument_from_va_list@PAUansi_string@?1??type_case_Z@?$output_processor@DV?$string_output_adapter@D@__crt_stdio_output@@V?$positional_parameter_base@DV?$string_output_adapter@D@__crt_stdio_output@@@2@@__crt_stdio_output@@AAE_NXZ@PAU1?1??234@AAE_NXZ@@?$standard_base@DV?$string_output_adapter@D@__crt_stdio_output@@@__crt_stdio_output@@IAE_NAAPAUansi_string@?1??type_case_Z@?$output_processor@DV?$string_output_adapter@D@__crt_stdio_output@@V?$positional_parameter_base@DV?$string_output_adapter@D@__crt_stdio_output@@@2@@1@AAE_NXZ@@Z 1001e1ba f i libucrt:output.obj
 0001:0001d1d7       ??$extract_argument_from_va_list@PAUansi_string@?1??type_case_Z@?$output_processor@DV?$string_output_adapter@D@__crt_stdio_output@@V?$standard_base@DV?$string_output_adapter@D@__crt_stdio_output@@@2@@__crt_stdio_output@@AAE_NXZ@PAU1?1??234@AAE_NXZ@@?$standard_base@DV?$string_output_adapter@D@__crt_stdio_output@@@__crt_stdio_output@@IAE_NAAPAUansi_string@?1??type_case_Z@?$output_processor@DV?$string_output_adapter@D@__crt_stdio_output@@V?$standard_base@DV?$string_output_adapter@D@__crt_stdio_output@@@2@@1@AAE_NXZ@@Z 1001e1d7 f i libucrt:output.obj
 0001:0001d1f4       ??$extract_argument_from_va_list@PAUansi_string@?1??type_case_Z@?$output_processor@_WV?$stream_output_adapter@_W@__crt_stdio_output@@V?$format_validation_base@_WV?$stream_output_adapter@_W@__crt_stdio_output@@@2@@__crt_stdio_output@@AAE_NXZ@PAU1?1??234@AAE_NXZ@@?$standard_base@_WV?$stream_output_adapter@_W@__crt_stdio_output@@@__crt_stdio_output@@IAE_NAAPAUansi_string@?1??type_case_Z@?$output_processor@_WV?$stream_output_adapter@_W@__crt_stdio_output@@V?$format_validation_base@_WV?$stream_output_adapter@_W@__crt_stdio_output@@@2@@1@AAE_NXZ@@Z 1001e1f4 f i libucrt:output.obj
 0001:0001d211       ??$extract_argument_from_va_list@PAUansi_string@?1??type_case_Z@?$output_processor@_WV?$stream_output_adapter@_W@__crt_stdio_output@@V?$positional_parameter_base@_WV?$stream_output_adapter@_W@__crt_stdio_output@@@2@@__crt_stdio_output@@AAE_NXZ@PAU1?1??234@AAE_NXZ@@?$positional_parameter_base@_WV?$stream_output_adapter@_W@__crt_stdio_output@@@__crt_stdio_output@@IAE_NAAPAUansi_string@?1??type_case_Z@?$output_processor@_WV?$stream_output_adapter@_W@__crt_stdio_output@@V?$positional_parameter_base@_WV?$stream_output_adapter@_W@__crt_stdio_output@@@2@@1@AAE_NXZ@@Z 1001e211 f i libucrt:output.obj
 0001:0001d2a0       ??$extract_argument_from_va_list@PAUansi_string@?1??type_case_Z@?$output_processor@_WV?$stream_output_adapter@_W@__crt_stdio_output@@V?$positional_parameter_base@_WV?$stream_output_adapter@_W@__crt_stdio_output@@@2@@__crt_stdio_output@@AAE_NXZ@PAU1?1??234@AAE_NXZ@@?$standard_base@_WV?$stream_output_adapter@_W@__crt_stdio_output@@@__crt_stdio_output@@IAE_NAAPAUansi_string@?1??type_case_Z@?$output_processor@_WV?$stream_output_adapter@_W@__crt_stdio_output@@V?$positional_parameter_base@_WV?$stream_output_adapter@_W@__crt_stdio_output@@@2@@1@AAE_NXZ@@Z 1001e2a0 f i libucrt:output.obj
 0001:0001d2bd       ??$extract_argument_from_va_list@PAUansi_string@?1??type_case_Z@?$output_processor@_WV?$stream_output_adapter@_W@__crt_stdio_output@@V?$standard_base@_WV?$stream_output_adapter@_W@__crt_stdio_output@@@2@@__crt_stdio_output@@AAE_NXZ@PAU1?1??234@AAE_NXZ@@?$standard_base@_WV?$stream_output_adapter@_W@__crt_stdio_output@@@__crt_stdio_output@@IAE_NAAPAUansi_string@?1??type_case_Z@?$output_processor@_WV?$stream_output_adapter@_W@__crt_stdio_output@@V?$standard_base@_WV?$stream_output_adapter@_W@__crt_stdio_output@@@2@@1@AAE_NXZ@@Z 1001e2bd f i libucrt:output.obj
 0001:0001d2da       ??$extract_argument_from_va_list@PAUansi_string@?1??type_case_Z@?$output_processor@_WV?$string_output_adapter@_W@__crt_stdio_output@@V?$format_validation_base@_WV?$string_output_adapter@_W@__crt_stdio_output@@@2@@__crt_stdio_output@@AAE_NXZ@PAU1?1??234@AAE_NXZ@@?$standard_base@_WV?$string_output_adapter@_W@__crt_stdio_output@@@__crt_stdio_output@@IAE_NAAPAUansi_string@?1??type_case_Z@?$output_processor@_WV?$string_output_adapter@_W@__crt_stdio_output@@V?$format_validation_base@_WV?$string_output_adapter@_W@__crt_stdio_output@@@2@@1@AAE_NXZ@@Z 1001e2da f i libucrt:output.obj
 0001:0001d2f7       ??$extract_argument_from_va_list@PAUansi_string@?1??type_case_Z@?$output_processor@_WV?$string_output_adapter@_W@__crt_stdio_output@@V?$positional_parameter_base@_WV?$string_output_adapter@_W@__crt_stdio_output@@@2@@__crt_stdio_output@@AAE_NXZ@PAU1?1??234@AAE_NXZ@@?$positional_parameter_base@_WV?$string_output_adapter@_W@__crt_stdio_output@@@__crt_stdio_output@@IAE_NAAPAUansi_string@?1??type_case_Z@?$output_processor@_WV?$string_output_adapter@_W@__crt_stdio_output@@V?$positional_parameter_base@_WV?$string_output_adapter@_W@__crt_stdio_output@@@2@@1@AAE_NXZ@@Z 1001e2f7 f i libucrt:output.obj
 0001:0001d386       ??$extract_argument_from_va_list@PAUansi_string@?1??type_case_Z@?$output_processor@_WV?$string_output_adapter@_W@__crt_stdio_output@@V?$positional_parameter_base@_WV?$string_output_adapter@_W@__crt_stdio_output@@@2@@__crt_stdio_output@@AAE_NXZ@PAU1?1??234@AAE_NXZ@@?$standard_base@_WV?$string_output_adapter@_W@__crt_stdio_output@@@__crt_stdio_output@@IAE_NAAPAUansi_string@?1??type_case_Z@?$output_processor@_WV?$string_output_adapter@_W@__crt_stdio_output@@V?$positional_parameter_base@_WV?$string_output_adapter@_W@__crt_stdio_output@@@2@@1@AAE_NXZ@@Z 1001e386 f i libucrt:output.obj
 0001:0001d3a3       ??$extract_argument_from_va_list@PAUansi_string@?1??type_case_Z@?$output_processor@_WV?$string_output_adapter@_W@__crt_stdio_output@@V?$standard_base@_WV?$string_output_adapter@_W@__crt_stdio_output@@@2@@__crt_stdio_output@@AAE_NXZ@PAU1?1??234@AAE_NXZ@@?$standard_base@_WV?$string_output_adapter@_W@__crt_stdio_output@@@__crt_stdio_output@@IAE_NAAPAUansi_string@?1??type_case_Z@?$output_processor@_WV?$string_output_adapter@_W@__crt_stdio_output@@V?$standard_base@_WV?$string_output_adapter@_W@__crt_stdio_output@@@2@@1@AAE_NXZ@@Z 1001e3a3 f i libucrt:output.obj
 0001:0001d3c0       ??$extract_argument_from_va_list@PAXPAX@?$positional_parameter_base@DV?$stream_output_adapter@D@__crt_stdio_output@@@__crt_stdio_output@@IAE_NAAPAX@Z 1001e3c0 f i libucrt:output.obj
 0001:0001d44e       ??$extract_argument_from_va_list@PAXPAX@?$positional_parameter_base@DV?$string_output_adapter@D@__crt_stdio_output@@@__crt_stdio_output@@IAE_NAAPAX@Z 1001e44e f i libucrt:output.obj
 0001:0001d4dc       ??$extract_argument_from_va_list@PAXPAX@?$positional_parameter_base@_WV?$stream_output_adapter@_W@__crt_stdio_output@@@__crt_stdio_output@@IAE_NAAPAX@Z 1001e4dc f i libucrt:output.obj
 0001:0001d56b       ??$extract_argument_from_va_list@PAXPAX@?$positional_parameter_base@_WV?$string_output_adapter@_W@__crt_stdio_output@@@__crt_stdio_output@@IAE_NAAPAX@Z 1001e56b f i libucrt:output.obj
 0001:0001d5fa       ??$extract_argument_from_va_list@PAXPAX@?$standard_base@DV?$stream_output_adapter@D@__crt_stdio_output@@@__crt_stdio_output@@IAE_NAAPAX@Z 1001e5fa f i libucrt:output.obj
 0001:0001d617       ??$extract_argument_from_va_list@PAXPAX@?$standard_base@DV?$string_output_adapter@D@__crt_stdio_output@@@__crt_stdio_output@@IAE_NAAPAX@Z 1001e617 f i libucrt:output.obj
 0001:0001d634       ??$extract_argument_from_va_list@PAXPAX@?$standard_base@_WV?$stream_output_adapter@_W@__crt_stdio_output@@@__crt_stdio_output@@IAE_NAAPAX@Z 1001e634 f i libucrt:output.obj
 0001:0001d651       ??$extract_argument_from_va_list@PAXPAX@?$standard_base@_WV?$string_output_adapter@_W@__crt_stdio_output@@@__crt_stdio_output@@IAE_NAAPAX@Z 1001e651 f i libucrt:output.obj
 0001:0001d66e       ??$extract_argument_from_va_list@U_CRT_DOUBLE@@U1@@?$positional_parameter_base@DV?$stream_output_adapter@D@__crt_stdio_output@@@__crt_stdio_output@@IAE_NAAU_CRT_DOUBLE@@@Z 1001e66e f i libucrt:output.obj
 0001:0001d704       ??$extract_argument_from_va_list@U_CRT_DOUBLE@@U1@@?$positional_parameter_base@DV?$string_output_adapter@D@__crt_stdio_output@@@__crt_stdio_output@@IAE_NAAU_CRT_DOUBLE@@@Z 1001e704 f i libucrt:output.obj
 0001:0001d79a       ??$extract_argument_from_va_list@U_CRT_DOUBLE@@U1@@?$positional_parameter_base@_WV?$stream_output_adapter@_W@__crt_stdio_output@@@__crt_stdio_output@@IAE_NAAU_CRT_DOUBLE@@@Z 1001e79a f i libucrt:output.obj
 0001:0001d831       ??$extract_argument_from_va_list@U_CRT_DOUBLE@@U1@@?$positional_parameter_base@_WV?$string_output_adapter@_W@__crt_stdio_output@@@__crt_stdio_output@@IAE_NAAU_CRT_DOUBLE@@@Z 1001e831 f i libucrt:output.obj
 0001:0001d8c8       ??$extract_argument_from_va_list@U_CRT_DOUBLE@@U1@@?$standard_base@DV?$stream_output_adapter@D@__crt_stdio_output@@@__crt_stdio_output@@IAE_NAAU_CRT_DOUBLE@@@Z 1001e8c8 f i libucrt:output.obj
 0001:0001d8e9       ??$extract_argument_from_va_list@U_CRT_DOUBLE@@U1@@?$standard_base@DV?$string_output_adapter@D@__crt_stdio_output@@@__crt_stdio_output@@IAE_NAAU_CRT_DOUBLE@@@Z 1001e8e9 f i libucrt:output.obj
 0001:0001d90a       ??$extract_argument_from_va_list@U_CRT_DOUBLE@@U1@@?$standard_base@_WV?$stream_output_adapter@_W@__crt_stdio_output@@@__crt_stdio_output@@IAE_NAAU_CRT_DOUBLE@@@Z 1001e90a f i libucrt:output.obj
 0001:0001d92b       ??$extract_argument_from_va_list@U_CRT_DOUBLE@@U1@@?$standard_base@_WV?$string_output_adapter@_W@__crt_stdio_output@@@__crt_stdio_output@@IAE_NAAU_CRT_DOUBLE@@@Z 1001e92b f i libucrt:output.obj
 0001:0001d94c       ??$extract_argument_from_va_list@_J_J@?$positional_parameter_base@DV?$stream_output_adapter@D@__crt_stdio_output@@@__crt_stdio_output@@IAE_NAA_J@Z 1001e94c f i libucrt:output.obj
 0001:0001d9e6       ??$extract_argument_from_va_list@_J_J@?$positional_parameter_base@DV?$string_output_adapter@D@__crt_stdio_output@@@__crt_stdio_output@@IAE_NAA_J@Z 1001e9e6 f i libucrt:output.obj
 0001:0001da80       ??$extract_argument_from_va_list@_J_J@?$positional_parameter_base@_WV?$stream_output_adapter@_W@__crt_stdio_output@@@__crt_stdio_output@@IAE_NAA_J@Z 1001ea80 f i libucrt:output.obj
 0001:0001db1b       ??$extract_argument_from_va_list@_J_J@?$positional_parameter_base@_WV?$string_output_adapter@_W@__crt_stdio_output@@@__crt_stdio_output@@IAE_NAA_J@Z 1001eb1b f i libucrt:output.obj
 0001:0001dbb6       ??$extract_argument_from_va_list@_J_J@?$standard_base@DV?$stream_output_adapter@D@__crt_stdio_output@@@__crt_stdio_output@@IAE_NAA_J@Z 1001ebb6 f i libucrt:output.obj
 0001:0001dbd7       ??$extract_argument_from_va_list@_J_J@?$standard_base@DV?$string_output_adapter@D@__crt_stdio_output@@@__crt_stdio_output@@IAE_NAA_J@Z 1001ebd7 f i libucrt:output.obj
 0001:0001dbf8       ??$extract_argument_from_va_list@_J_J@?$standard_base@_WV?$stream_output_adapter@_W@__crt_stdio_output@@@__crt_stdio_output@@IAE_NAA_J@Z 1001ebf8 f i libucrt:output.obj
 0001:0001dc19       ??$extract_argument_from_va_list@_J_J@?$standard_base@_WV?$string_output_adapter@_W@__crt_stdio_output@@@__crt_stdio_output@@IAE_NAA_J@Z 1001ec19 f i libucrt:output.obj
 0001:0001dc3a       ??$extract_argument_from_va_list@_K_J@?$positional_parameter_base@DV?$stream_output_adapter@D@__crt_stdio_output@@@__crt_stdio_output@@IAE_NAA_J@Z 1001ec3a f i libucrt:output.obj
 0001:0001dcd4       ??$extract_argument_from_va_list@_K_J@?$positional_parameter_base@DV?$string_output_adapter@D@__crt_stdio_output@@@__crt_stdio_output@@IAE_NAA_J@Z 1001ecd4 f i libucrt:output.obj
 0001:0001dd6e       ??$extract_argument_from_va_list@_K_J@?$positional_parameter_base@_WV?$stream_output_adapter@_W@__crt_stdio_output@@@__crt_stdio_output@@IAE_NAA_J@Z 1001ed6e f i libucrt:output.obj
 0001:0001de09       ??$extract_argument_from_va_list@_K_J@?$positional_parameter_base@_WV?$string_output_adapter@_W@__crt_stdio_output@@@__crt_stdio_output@@IAE_NAA_J@Z 1001ee09 f i libucrt:output.obj
 0001:0001dea4       ??$extract_argument_from_va_list@_K_J@?$standard_base@DV?$stream_output_adapter@D@__crt_stdio_output@@@__crt_stdio_output@@IAE_NAA_J@Z 1001eea4 f i libucrt:output.obj
 0001:0001dec5       ??$extract_argument_from_va_list@_K_J@?$standard_base@DV?$string_output_adapter@D@__crt_stdio_output@@@__crt_stdio_output@@IAE_NAA_J@Z 1001eec5 f i libucrt:output.obj
 0001:0001dee6       ??$extract_argument_from_va_list@_K_J@?$standard_base@_WV?$stream_output_adapter@_W@__crt_stdio_output@@@__crt_stdio_output@@IAE_NAA_J@Z 1001eee6 f i libucrt:output.obj
 0001:0001df07       ??$extract_argument_from_va_list@_K_J@?$standard_base@_WV?$string_output_adapter@_W@__crt_stdio_output@@@__crt_stdio_output@@IAE_NAA_J@Z 1001ef07 f i libucrt:output.obj
 0001:0001df28       ??$extract_argument_from_va_list@_W_W@?$positional_parameter_base@DV?$stream_output_adapter@D@__crt_stdio_output@@@__crt_stdio_output@@IAE_NAA_W@Z 1001ef28 f i libucrt:output.obj
 0001:0001dfba       ??$extract_argument_from_va_list@_W_W@?$positional_parameter_base@DV?$string_output_adapter@D@__crt_stdio_output@@@__crt_stdio_output@@IAE_NAA_W@Z 1001efba f i libucrt:output.obj
 0001:0001e04c       ??$extract_argument_from_va_list@_W_W@?$positional_parameter_base@_WV?$stream_output_adapter@_W@__crt_stdio_output@@@__crt_stdio_output@@IAE_NAA_W@Z 1001f04c f i libucrt:output.obj
 0001:0001e0df       ??$extract_argument_from_va_list@_W_W@?$positional_parameter_base@_WV?$string_output_adapter@_W@__crt_stdio_output@@@__crt_stdio_output@@IAE_NAA_W@Z 1001f0df f i libucrt:output.obj
 0001:0001e172       ??$extract_argument_from_va_list@_W_W@?$standard_base@DV?$stream_output_adapter@D@__crt_stdio_output@@@__crt_stdio_output@@IAE_NAA_W@Z 1001f172 f i libucrt:output.obj
 0001:0001e18f       ??$extract_argument_from_va_list@_W_W@?$standard_base@DV?$string_output_adapter@D@__crt_stdio_output@@@__crt_stdio_output@@IAE_NAA_W@Z 1001f18f f i libucrt:output.obj
 0001:0001e1ac       ??$extract_argument_from_va_list@_W_W@?$standard_base@_WV?$stream_output_adapter@_W@__crt_stdio_output@@@__crt_stdio_output@@IAE_NAA_W@Z 1001f1ac f i libucrt:output.obj
 0001:0001e1c9       ??$extract_argument_from_va_list@_W_W@?$standard_base@_WV?$string_output_adapter@_W@__crt_stdio_output@@@__crt_stdio_output@@IAE_NAA_W@Z 1001f1c9 f i libucrt:output.obj
 0001:0001e1e6       ??$get_parameter_type@D@?$positional_parameter_base@DV?$stream_output_adapter@D@__crt_stdio_output@@@__crt_stdio_output@@CA?AW4parameter_type@01@PAD@Z 1001f1e6 f i libucrt:output.obj
 0001:0001e1ea       ??$get_parameter_type@D@?$positional_parameter_base@DV?$string_output_adapter@D@__crt_stdio_output@@@__crt_stdio_output@@CA?AW4parameter_type@01@PAD@Z 1001f1ea f i libucrt:output.obj
 0001:0001e1ee       ??$get_parameter_type@D@?$positional_parameter_base@_WV?$stream_output_adapter@_W@__crt_stdio_output@@@__crt_stdio_output@@CA?AW4parameter_type@01@PAD@Z 1001f1ee f i libucrt:output.obj
 0001:0001e1f2       ??$get_parameter_type@D@?$positional_parameter_base@_WV?$string_output_adapter@_W@__crt_stdio_output@@@__crt_stdio_output@@CA?AW4parameter_type@01@PAD@Z 1001f1f2 f i libucrt:output.obj
 0001:0001e1f6       ??$get_parameter_type@Uansi_string@?1??type_case_Z@?$output_processor@DV?$stream_output_adapter@D@__crt_stdio_output@@V?$positional_parameter_base@DV?$stream_output_adapter@D@__crt_stdio_output@@@2@@__crt_stdio_output@@AAE_NXZ@@?$positional_parameter_base@DV?$stream_output_adapter@D@__crt_stdio_output@@@__crt_stdio_output@@CA?AW4parameter_type@01@PAUansi_string@?1??type_case_Z@?$output_processor@DV?$stream_output_adapter@D@__crt_stdio_output@@V?$positional_parameter_base@DV?$stream_output_adapter@D@__crt_stdio_output@@@2@@1@AAE_NXZ@@Z 1001f1f6 f i libucrt:output.obj
 0001:0001e1fa       ??$get_parameter_type@Uansi_string@?1??type_case_Z@?$output_processor@DV?$string_output_adapter@D@__crt_stdio_output@@V?$positional_parameter_base@DV?$string_output_adapter@D@__crt_stdio_output@@@2@@__crt_stdio_output@@AAE_NXZ@@?$positional_parameter_base@DV?$string_output_adapter@D@__crt_stdio_output@@@__crt_stdio_output@@CA?AW4parameter_type@01@PAUansi_string@?1??type_case_Z@?$output_processor@DV?$string_output_adapter@D@__crt_stdio_output@@V?$positional_parameter_base@DV?$string_output_adapter@D@__crt_stdio_output@@@2@@1@AAE_NXZ@@Z 1001f1fa f i libucrt:output.obj
 0001:0001e1fe       ??$get_parameter_type@Uansi_string@?1??type_case_Z@?$output_processor@_WV?$stream_output_adapter@_W@__crt_stdio_output@@V?$positional_parameter_base@_WV?$stream_output_adapter@_W@__crt_stdio_output@@@2@@__crt_stdio_output@@AAE_NXZ@@?$positional_parameter_base@_WV?$stream_output_adapter@_W@__crt_stdio_output@@@__crt_stdio_output@@CA?AW4parameter_type@01@PAUansi_string@?1??type_case_Z@?$output_processor@_WV?$stream_output_adapter@_W@__crt_stdio_output@@V?$positional_parameter_base@_WV?$stream_output_adapter@_W@__crt_stdio_output@@@2@@1@AAE_NXZ@@Z 1001f1fe f i libucrt:output.obj
 0001:0001e202       ??$get_parameter_type@Uansi_string@?1??type_case_Z@?$output_processor@_WV?$string_output_adapter@_W@__crt_stdio_output@@V?$positional_parameter_base@_WV?$string_output_adapter@_W@__crt_stdio_output@@@2@@__crt_stdio_output@@AAE_NXZ@@?$positional_parameter_base@_WV?$string_output_adapter@_W@__crt_stdio_output@@@__crt_stdio_output@@CA?AW4parameter_type@01@PAUansi_string@?1??type_case_Z@?$output_processor@_WV?$string_output_adapter@_W@__crt_stdio_output@@V?$positional_parameter_base@_WV?$string_output_adapter@_W@__crt_stdio_output@@@2@@1@AAE_NXZ@@Z 1001f202 f i libucrt:output.obj
 0001:0001e206       ??$get_parameter_type@X@?$positional_parameter_base@DV?$stream_output_adapter@D@__crt_stdio_output@@@__crt_stdio_output@@CA?AW4parameter_type@01@PAX@Z 1001f206 f i libucrt:output.obj
 0001:0001e20a       ??$get_parameter_type@X@?$positional_parameter_base@DV?$string_output_adapter@D@__crt_stdio_output@@@__crt_stdio_output@@CA?AW4parameter_type@01@PAX@Z 1001f20a f i libucrt:output.obj
 0001:0001e20e       ??$get_parameter_type@X@?$positional_parameter_base@_WV?$stream_output_adapter@_W@__crt_stdio_output@@@__crt_stdio_output@@CA?AW4parameter_type@01@PAX@Z 1001f20e f i libucrt:output.obj
 0001:0001e212       ??$get_parameter_type@X@?$positional_parameter_base@_WV?$string_output_adapter@_W@__crt_stdio_output@@@__crt_stdio_output@@CA?AW4parameter_type@01@PAX@Z 1001f212 f i libucrt:output.obj
 0001:0001e216       ??$is_character_specifier@D@?$positional_parameter_base@DV?$stream_output_adapter@D@__crt_stdio_output@@@__crt_stdio_output@@CA_ND@Z 1001f216 f i libucrt:output.obj
 0001:0001e22e       ??$is_character_specifier@D@?$positional_parameter_base@DV?$string_output_adapter@D@__crt_stdio_output@@@__crt_stdio_output@@CA_ND@Z 1001f22e f i libucrt:output.obj
 0001:0001e246       ??$is_character_specifier@_W@?$positional_parameter_base@_WV?$stream_output_adapter@_W@__crt_stdio_output@@@__crt_stdio_output@@CA_N_W@Z 1001f246 f i libucrt:output.obj
 0001:0001e261       ??$is_character_specifier@_W@?$positional_parameter_base@_WV?$string_output_adapter@_W@__crt_stdio_output@@@__crt_stdio_output@@CA_N_W@Z 1001f261 f i libucrt:output.obj
 0001:0001e27c       ??$is_integral_specifier@D@?$positional_parameter_base@DV?$stream_output_adapter@D@__crt_stdio_output@@@__crt_stdio_output@@CA_ND@Z 1001f27c f i libucrt:output.obj
 0001:0001e2a8       ??$is_integral_specifier@D@?$positional_parameter_base@DV?$string_output_adapter@D@__crt_stdio_output@@@__crt_stdio_output@@CA_ND@Z 1001f2a8 f i libucrt:output.obj
 0001:0001e2d4       ??$is_integral_specifier@_W@?$positional_parameter_base@_WV?$stream_output_adapter@_W@__crt_stdio_output@@@__crt_stdio_output@@CA_N_W@Z 1001f2d4 f i libucrt:output.obj
 0001:0001e30f       ??$is_integral_specifier@_W@?$positional_parameter_base@_WV?$string_output_adapter@_W@__crt_stdio_output@@@__crt_stdio_output@@CA_N_W@Z 1001f30f f i libucrt:output.obj
 0001:0001e34a       ??$is_overflow_condition@K@__crt_strtox@@YA_NIK@Z 1001f34a f i libucrt:output.obj
 0001:0001e37e       ??$is_pointer_specifier@D@?$positional_parameter_base@DV?$stream_output_adapter@D@__crt_stdio_output@@@__crt_stdio_output@@CA_ND@Z 1001f37e f i libucrt:output.obj
 0001:0001e38c       ??$is_pointer_specifier@D@?$positional_parameter_base@DV?$string_output_adapter@D@__crt_stdio_output@@@__crt_stdio_output@@CA_ND@Z 1001f38c f i libucrt:output.obj
 0001:0001e39a       ??$is_pointer_specifier@_W@?$positional_parameter_base@_WV?$stream_output_adapter@_W@__crt_stdio_output@@@__crt_stdio_output@@CA_N_W@Z 1001f39a f i libucrt:output.obj
 0001:0001e3a9       ??$is_pointer_specifier@_W@?$positional_parameter_base@_WV?$string_output_adapter@_W@__crt_stdio_output@@@__crt_stdio_output@@CA_N_W@Z 1001f3a9 f i libucrt:output.obj
 0001:0001e3b8       ??$is_string_specifier@D@?$positional_parameter_base@DV?$stream_output_adapter@D@__crt_stdio_output@@@__crt_stdio_output@@CA_ND@Z 1001f3b8 f i libucrt:output.obj
 0001:0001e3d0       ??$is_string_specifier@D@?$positional_parameter_base@DV?$string_output_adapter@D@__crt_stdio_output@@@__crt_stdio_output@@CA_ND@Z 1001f3d0 f i libucrt:output.obj
 0001:0001e3e8       ??$is_string_specifier@_W@?$positional_parameter_base@_WV?$stream_output_adapter@_W@__crt_stdio_output@@@__crt_stdio_output@@CA_N_W@Z 1001f3e8 f i libucrt:output.obj
 0001:0001e403       ??$is_string_specifier@_W@?$positional_parameter_base@_WV?$string_output_adapter@_W@__crt_stdio_output@@@__crt_stdio_output@@CA_N_W@Z 1001f403 f i libucrt:output.obj
 0001:0001e41e       ??$is_wide_character_specifier@D@__crt_stdio_output@@YA_N_KDW4length_modifier@0@@Z 1001f41e f i libucrt:output.obj
 0001:0001e44f       ??$is_wide_character_specifier@_W@__crt_stdio_output@@YA_N_K_WW4length_modifier@0@@Z 1001f44f f i libucrt:output.obj
 0001:0001e49d       ??$make_c_string_character_source@DPAPAD@__crt_strtox@@YA?AV?$c_string_character_source@D@0@QBDQAPAD@Z 1001f49d f i libucrt:output.obj
 0001:0001e4b8       ??$make_c_string_character_source@_WPAPA_W@__crt_strtox@@YA?AV?$c_string_character_source@_W@0@QB_WQAPA_W@Z 1001f4b8 f i libucrt:output.obj
 0001:0001e4d3       ??$parse_integer@KV?$c_string_character_source@D@__crt_strtox@@$0A@@__crt_strtox@@YAKAAV__crt_cached_ptd_host@@V?$c_string_character_source@D@0@H_N@Z 1001f4d3 f i libucrt:output.obj
 0001:0001e6e2       ??$parse_integer@KV?$c_string_character_source@_W@__crt_strtox@@$0A@@__crt_strtox@@YAKAAV__crt_cached_ptd_host@@V?$c_string_character_source@_W@0@H_N@Z 1001f6e2 f i libucrt:output.obj
 0001:0001ecb5       ??$peek_va_arg@C@__crt_stdio_output@@YACPAD@Z 1001fcb5 f i libucrt:output.obj
 0001:0001ecc1       ??$peek_va_arg@E@__crt_stdio_output@@YAEPAD@Z 1001fcc1 f i libucrt:output.obj
 0001:0001eccd       ??$peek_va_arg@F@__crt_stdio_output@@YAFPAD@Z 1001fccd f i libucrt:output.obj
 0001:0001ecda       ??$peek_va_arg@G@__crt_stdio_output@@YAGPAD@Z 1001fcda f i libucrt:output.obj
 0001:0001ece7       ??$peek_va_arg@H@__crt_stdio_output@@YAHPAD@Z 1001fce7 f i libucrt:output.obj
 0001:0001ecf3       ??$peek_va_arg@I@__crt_stdio_output@@YAIPAD@Z 1001fcf3 f i libucrt:output.obj
 0001:0001ecff       ??$peek_va_arg@PAD@__crt_stdio_output@@YAPADPAD@Z 1001fcff f i libucrt:output.obj
 0001:0001ed0b       ??$peek_va_arg@PAUansi_string@?1??type_case_Z@?$output_processor@DV?$stream_output_adapter@D@__crt_stdio_output@@V?$positional_parameter_base@DV?$stream_output_adapter@D@__crt_stdio_output@@@2@@__crt_stdio_output@@AAE_NXZ@@__crt_stdio_output@@YAPAUansi_string@?1??type_case_Z@?$output_processor@DV?$stream_output_adapter@D@__crt_stdio_output@@V?$positional_parameter_base@DV?$stream_output_adapter@D@__crt_stdio_output@@@2@@0@AAE_NXZ@PAD@Z 1001fd0b f i libucrt:output.obj
 0001:0001ed17       ??$peek_va_arg@PAUansi_string@?1??type_case_Z@?$output_processor@DV?$string_output_adapter@D@__crt_stdio_output@@V?$positional_parameter_base@DV?$string_output_adapter@D@__crt_stdio_output@@@2@@__crt_stdio_output@@AAE_NXZ@@__crt_stdio_output@@YAPAUansi_string@?1??type_case_Z@?$output_processor@DV?$string_output_adapter@D@__crt_stdio_output@@V?$positional_parameter_base@DV?$string_output_adapter@D@__crt_stdio_output@@@2@@0@AAE_NXZ@PAD@Z 1001fd17 f i libucrt:output.obj
 0001:0001ed23       ??$peek_va_arg@PAUansi_string@?1??type_case_Z@?$output_processor@_WV?$stream_output_adapter@_W@__crt_stdio_output@@V?$positional_parameter_base@_WV?$stream_output_adapter@_W@__crt_stdio_output@@@2@@__crt_stdio_output@@AAE_NXZ@@__crt_stdio_output@@YAPAUansi_string@?1??type_case_Z@?$output_processor@_WV?$stream_output_adapter@_W@__crt_stdio_output@@V?$positional_parameter_base@_WV?$stream_output_adapter@_W@__crt_stdio_output@@@2@@0@AAE_NXZ@PAD@Z 1001fd23 f i libucrt:output.obj
 0001:0001ed2f       ??$peek_va_arg@PAUansi_string@?1??type_case_Z@?$output_processor@_WV?$string_output_adapter@_W@__crt_stdio_output@@V?$positional_parameter_base@_WV?$string_output_adapter@_W@__crt_stdio_output@@@2@@__crt_stdio_output@@AAE_NXZ@@__crt_stdio_output@@YAPAUansi_string@?1??type_case_Z@?$output_processor@_WV?$string_output_adapter@_W@__crt_stdio_output@@V?$positional_parameter_base@_WV?$string_output_adapter@_W@__crt_stdio_output@@@2@@0@AAE_NXZ@PAD@Z 1001fd2f f i libucrt:output.obj
 0001:0001ed3b       ??$peek_va_arg@PAX@__crt_stdio_output@@YAPAXPAD@Z 1001fd3b f i libucrt:output.obj
 0001:0001ed47       ??$peek_va_arg@U_CRT_DOUBLE@@@__crt_stdio_output@@YA?AU_CRT_DOUBLE@@PAD@Z 1001fd47 f i libucrt:output.obj
 0001:0001ed56       ??$peek_va_arg@_J@__crt_stdio_output@@YA_JPAD@Z 1001fd56 f i libucrt:output.obj
 0001:0001ed65       ??$peek_va_arg@_K@__crt_stdio_output@@YA_KPAD@Z 1001fd65 f i libucrt:output.obj
 0001:0001ed74       ??$peek_va_arg@_W@__crt_stdio_output@@YA_WPAD@Z 1001fd74 f i libucrt:output.obj
 0001:0001ed81       ??$puttc_nolock_internal@ABDPAU_iobuf@@AAV__crt_cached_ptd_host@@@?$__crt_char_traits@D@@SAHABD$$QAPAU_iobuf@@AAV__crt_cached_ptd_host@@@Z 1001fd81 f i libucrt:output.obj
 0001:0001ed9f       ??$puttc_nolock_internal@AB_WPAU_iobuf@@AAV__crt_cached_ptd_host@@@?$__crt_char_traits@_W@@SAGAB_W$$QAPAU_iobuf@@AAV__crt_cached_ptd_host@@@Z 1001fd9f f i libucrt:output.obj
 0001:0001edbd       ??$read_va_arg@C@__crt_stdio_output@@YACAAPAD@Z 1001fdbd f i libucrt:output.obj
 0001:0001edd0       ??$read_va_arg@E@__crt_stdio_output@@YAEAAPAD@Z 1001fdd0 f i libucrt:output.obj
 0001:0001ede3       ??$read_va_arg@F@__crt_stdio_output@@YAFAAPAD@Z 1001fde3 f i libucrt:output.obj
 0001:0001edf7       ??$read_va_arg@G@__crt_stdio_output@@YAGAAPAD@Z 1001fdf7 f i libucrt:output.obj
 0001:0001ee0b       ??$read_va_arg@H@__crt_stdio_output@@YAHAAPAD@Z 1001fe0b f i libucrt:output.obj
 0001:0001ee1e       ??$read_va_arg@I@__crt_stdio_output@@YAIAAPAD@Z 1001fe1e f i libucrt:output.obj
 0001:0001ee31       ??$read_va_arg@PAD@__crt_stdio_output@@YAPADAAPAD@Z 1001fe31 f i libucrt:output.obj
 0001:0001ee44       ??$read_va_arg@PAUansi_string@?1??type_case_Z@?$output_processor@DV?$stream_output_adapter@D@__crt_stdio_output@@V?$format_validation_base@DV?$stream_output_adapter@D@__crt_stdio_output@@@2@@__crt_stdio_output@@AAE_NXZ@@__crt_stdio_output@@YAPAUansi_string@?1??type_case_Z@?$output_processor@DV?$stream_output_adapter@D@__crt_stdio_output@@V?$format_validation_base@DV?$stream_output_adapter@D@__crt_stdio_output@@@2@@0@AAE_NXZ@AAPAD@Z 1001fe44 f i libucrt:output.obj
 0001:0001ee57       ??$read_va_arg@PAUansi_string@?1??type_case_Z@?$output_processor@DV?$stream_output_adapter@D@__crt_stdio_output@@V?$positional_parameter_base@DV?$stream_output_adapter@D@__crt_stdio_output@@@2@@__crt_stdio_output@@AAE_NXZ@@__crt_stdio_output@@YAPAUansi_string@?1??type_case_Z@?$output_processor@DV?$stream_output_adapter@D@__crt_stdio_output@@V?$positional_parameter_base@DV?$stream_output_adapter@D@__crt_stdio_output@@@2@@0@AAE_NXZ@AAPAD@Z 1001fe57 f i libucrt:output.obj
 0001:0001ee6a       ??$read_va_arg@PAUansi_string@?1??type_case_Z@?$output_processor@DV?$stream_output_adapter@D@__crt_stdio_output@@V?$standard_base@DV?$stream_output_adapter@D@__crt_stdio_output@@@2@@__crt_stdio_output@@AAE_NXZ@@__crt_stdio_output@@YAPAUansi_string@?1??type_case_Z@?$output_processor@DV?$stream_output_adapter@D@__crt_stdio_output@@V?$standard_base@DV?$stream_output_adapter@D@__crt_stdio_output@@@2@@0@AAE_NXZ@AAPAD@Z 1001fe6a f i libucrt:output.obj
 0001:0001ee7d       ??$read_va_arg@PAUansi_string@?1??type_case_Z@?$output_processor@DV?$string_output_adapter@D@__crt_stdio_output@@V?$format_validation_base@DV?$string_output_adapter@D@__crt_stdio_output@@@2@@__crt_stdio_output@@AAE_NXZ@@__crt_stdio_output@@YAPAUansi_string@?1??type_case_Z@?$output_processor@DV?$string_output_adapter@D@__crt_stdio_output@@V?$format_validation_base@DV?$string_output_adapter@D@__crt_stdio_output@@@2@@0@AAE_NXZ@AAPAD@Z 1001fe7d f i libucrt:output.obj
 0001:0001ee90       ??$read_va_arg@PAUansi_string@?1??type_case_Z@?$output_processor@DV?$string_output_adapter@D@__crt_stdio_output@@V?$positional_parameter_base@DV?$string_output_adapter@D@__crt_stdio_output@@@2@@__crt_stdio_output@@AAE_NXZ@@__crt_stdio_output@@YAPAUansi_string@?1??type_case_Z@?$output_processor@DV?$string_output_adapter@D@__crt_stdio_output@@V?$positional_parameter_base@DV?$string_output_adapter@D@__crt_stdio_output@@@2@@0@AAE_NXZ@AAPAD@Z 1001fe90 f i libucrt:output.obj
 0001:0001eea3       ??$read_va_arg@PAUansi_string@?1??type_case_Z@?$output_processor@DV?$string_output_adapter@D@__crt_stdio_output@@V?$standard_base@DV?$string_output_adapter@D@__crt_stdio_output@@@2@@__crt_stdio_output@@AAE_NXZ@@__crt_stdio_output@@YAPAUansi_string@?1??type_case_Z@?$output_processor@DV?$string_output_adapter@D@__crt_stdio_output@@V?$standard_base@DV?$string_output_adapter@D@__crt_stdio_output@@@2@@0@AAE_NXZ@AAPAD@Z 1001fea3 f i libucrt:output.obj
 0001:0001eeb6       ??$read_va_arg@PAUansi_string@?1??type_case_Z@?$output_processor@_WV?$stream_output_adapter@_W@__crt_stdio_output@@V?$format_validation_base@_WV?$stream_output_adapter@_W@__crt_stdio_output@@@2@@__crt_stdio_output@@AAE_NXZ@@__crt_stdio_output@@YAPAUansi_string@?1??type_case_Z@?$output_processor@_WV?$stream_output_adapter@_W@__crt_stdio_output@@V?$format_validation_base@_WV?$stream_output_adapter@_W@__crt_stdio_output@@@2@@0@AAE_NXZ@AAPAD@Z 1001feb6 f i libucrt:output.obj
 0001:0001eec9       ??$read_va_arg@PAUansi_string@?1??type_case_Z@?$output_processor@_WV?$stream_output_adapter@_W@__crt_stdio_output@@V?$positional_parameter_base@_WV?$stream_output_adapter@_W@__crt_stdio_output@@@2@@__crt_stdio_output@@AAE_NXZ@@__crt_stdio_output@@YAPAUansi_string@?1??type_case_Z@?$output_processor@_WV?$stream_output_adapter@_W@__crt_stdio_output@@V?$positional_parameter_base@_WV?$stream_output_adapter@_W@__crt_stdio_output@@@2@@0@AAE_NXZ@AAPAD@Z 1001fec9 f i libucrt:output.obj
 0001:0001eedc       ??$read_va_arg@PAUansi_string@?1??type_case_Z@?$output_processor@_WV?$stream_output_adapter@_W@__crt_stdio_output@@V?$standard_base@_WV?$stream_output_adapter@_W@__crt_stdio_output@@@2@@__crt_stdio_output@@AAE_NXZ@@__crt_stdio_output@@YAPAUansi_string@?1??type_case_Z@?$output_processor@_WV?$stream_output_adapter@_W@__crt_stdio_output@@V?$standard_base@_WV?$stream_output_adapter@_W@__crt_stdio_output@@@2@@0@AAE_NXZ@AAPAD@Z 1001fedc f i libucrt:output.obj
 0001:0001eeef       ??$read_va_arg@PAUansi_string@?1??type_case_Z@?$output_processor@_WV?$string_output_adapter@_W@__crt_stdio_output@@V?$format_validation_base@_WV?$string_output_adapter@_W@__crt_stdio_output@@@2@@__crt_stdio_output@@AAE_NXZ@@__crt_stdio_output@@YAPAUansi_string@?1??type_case_Z@?$output_processor@_WV?$string_output_adapter@_W@__crt_stdio_output@@V?$format_validation_base@_WV?$string_output_adapter@_W@__crt_stdio_output@@@2@@0@AAE_NXZ@AAPAD@Z 1001feef f i libucrt:output.obj
 0001:0001ef02       ??$read_va_arg@PAUansi_string@?1??type_case_Z@?$output_processor@_WV?$string_output_adapter@_W@__crt_stdio_output@@V?$positional_parameter_base@_WV?$string_output_adapter@_W@__crt_stdio_output@@@2@@__crt_stdio_output@@AAE_NXZ@@__crt_stdio_output@@YAPAUansi_string@?1??type_case_Z@?$output_processor@_WV?$string_output_adapter@_W@__crt_stdio_output@@V?$positional_parameter_base@_WV?$string_output_adapter@_W@__crt_stdio_output@@@2@@0@AAE_NXZ@AAPAD@Z 1001ff02 f i libucrt:output.obj
 0001:0001ef15       ??$read_va_arg@PAUansi_string@?1??type_case_Z@?$output_processor@_WV?$string_output_adapter@_W@__crt_stdio_output@@V?$standard_base@_WV?$string_output_adapter@_W@__crt_stdio_output@@@2@@__crt_stdio_output@@AAE_NXZ@@__crt_stdio_output@@YAPAUansi_string@?1??type_case_Z@?$output_processor@_WV?$string_output_adapter@_W@__crt_stdio_output@@V?$standard_base@_WV?$string_output_adapter@_W@__crt_stdio_output@@@2@@0@AAE_NXZ@AAPAD@Z 1001ff15 f i libucrt:output.obj
 0001:0001ef28       ??$read_va_arg@PAX@__crt_stdio_output@@YAPAXAAPAD@Z 1001ff28 f i libucrt:output.obj
 0001:0001ef3b       ??$read_va_arg@U_CRT_DOUBLE@@@__crt_stdio_output@@YA?AU_CRT_DOUBLE@@AAPAD@Z 1001ff3b f i libucrt:output.obj
 0001:0001ef51       ??$read_va_arg@_J@__crt_stdio_output@@YA_JAAPAD@Z 1001ff51 f i libucrt:output.obj
 0001:0001ef67       ??$read_va_arg@_K@__crt_stdio_output@@YA_KAAPAD@Z 1001ff67 f i libucrt:output.obj
 0001:0001ef7d       ??$read_va_arg@_W@__crt_stdio_output@@YA_WAAPAD@Z 1001ff7d f i libucrt:output.obj
 0001:0001ef91       ??$scratch_count@D@formatting_buffer@__crt_stdio_output@@QBEIXZ 1001ff91 f i libucrt:output.obj
 0001:0001ef96       ??$scratch_data@D@formatting_buffer@__crt_stdio_output@@QAEPADXZ 1001ff96 f i libucrt:output.obj
 0001:0001efb4       ??$type_case_integer@$07@?$output_processor@DV?$stream_output_adapter@D@__crt_stdio_output@@V?$format_validation_base@DV?$stream_output_adapter@D@__crt_stdio_output@@@2@@__crt_stdio_output@@AAE_N_N@Z 1001ffb4 f i libucrt:output.obj
 0001:0001f141       ??$type_case_integer@$07@?$output_processor@DV?$stream_output_adapter@D@__crt_stdio_output@@V?$positional_parameter_base@DV?$stream_output_adapter@D@__crt_stdio_output@@@2@@__crt_stdio_output@@AAE_N_N@Z 10020141 f i libucrt:output.obj
 0001:0001f2dd       ??$type_case_integer@$07@?$output_processor@DV?$stream_output_adapter@D@__crt_stdio_output@@V?$standard_base@DV?$stream_output_adapter@D@__crt_stdio_output@@@2@@__crt_stdio_output@@AAE_N_N@Z 100202dd f i libucrt:output.obj
 0001:0001f46a       ??$type_case_integer@$07@?$output_processor@DV?$string_output_adapter@D@__crt_stdio_output@@V?$format_validation_base@DV?$string_output_adapter@D@__crt_stdio_output@@@2@@__crt_stdio_output@@AAE_N_N@Z 1002046a f i libucrt:output.obj
 0001:0001f5f7       ??$type_case_integer@$07@?$output_processor@DV?$string_output_adapter@D@__crt_stdio_output@@V?$positional_parameter_base@DV?$string_output_adapter@D@__crt_stdio_output@@@2@@__crt_stdio_output@@AAE_N_N@Z 100205f7 f i libucrt:output.obj
 0001:0001f793       ??$type_case_integer@$07@?$output_processor@DV?$string_output_adapter@D@__crt_stdio_output@@V?$standard_base@DV?$string_output_adapter@D@__crt_stdio_output@@@2@@__crt_stdio_output@@AAE_N_N@Z 10020793 f i libucrt:output.obj
 0001:0001f920       ??$type_case_integer@$07@?$output_processor@_WV?$stream_output_adapter@_W@__crt_stdio_output@@V?$format_validation_base@_WV?$stream_output_adapter@_W@__crt_stdio_output@@@2@@__crt_stdio_output@@AAE_N_N@Z 10020920 f i libucrt:output.obj
 0001:0001fab2       ??$type_case_integer@$07@?$output_processor@_WV?$stream_output_adapter@_W@__crt_stdio_output@@V?$positional_parameter_base@_WV?$stream_output_adapter@_W@__crt_stdio_output@@@2@@__crt_stdio_output@@AAE_N_N@Z 10020ab2 f i libucrt:output.obj
 0001:0001fc52       ??$type_case_integer@$07@?$output_processor@_WV?$stream_output_adapter@_W@__crt_stdio_output@@V?$standard_base@_WV?$stream_output_adapter@_W@__crt_stdio_output@@@2@@__crt_stdio_output@@AAE_N_N@Z 10020c52 f i libucrt:output.obj
 0001:0001fde4       ??$type_case_integer@$07@?$output_processor@_WV?$string_output_adapter@_W@__crt_stdio_output@@V?$format_validation_base@_WV?$string_output_adapter@_W@__crt_stdio_output@@@2@@__crt_stdio_output@@AAE_N_N@Z 10020de4 f i libucrt:output.obj
 0001:0001ff76       ??$type_case_integer@$07@?$output_processor@_WV?$string_output_adapter@_W@__crt_stdio_output@@V?$positional_parameter_base@_WV?$string_output_adapter@_W@__crt_stdio_output@@@2@@__crt_stdio_output@@AAE_N_N@Z 10020f76 f i libucrt:output.obj
 0001:00020116       ??$type_case_integer@$07@?$output_processor@_WV?$string_output_adapter@_W@__crt_stdio_output@@V?$standard_base@_WV?$string_output_adapter@_W@__crt_stdio_output@@@2@@__crt_stdio_output@@AAE_N_N@Z 10021116 f i libucrt:output.obj
 0001:000202a8       ??$type_case_integer@$09@?$output_processor@DV?$stream_output_adapter@D@__crt_stdio_output@@V?$format_validation_base@DV?$stream_output_adapter@D@__crt_stdio_output@@@2@@__crt_stdio_output@@AAE_N_N@Z 100212a8 f i libucrt:output.obj
 0001:00020435       ??$type_case_integer@$09@?$output_processor@DV?$stream_output_adapter@D@__crt_stdio_output@@V?$positional_parameter_base@DV?$stream_output_adapter@D@__crt_stdio_output@@@2@@__crt_stdio_output@@AAE_N_N@Z 10021435 f i libucrt:output.obj
 0001:000205d1       ??$type_case_integer@$09@?$output_processor@DV?$stream_output_adapter@D@__crt_stdio_output@@V?$standard_base@DV?$stream_output_adapter@D@__crt_stdio_output@@@2@@__crt_stdio_output@@AAE_N_N@Z 100215d1 f i libucrt:output.obj
 0001:0002075e       ??$type_case_integer@$09@?$output_processor@DV?$string_output_adapter@D@__crt_stdio_output@@V?$format_validation_base@DV?$string_output_adapter@D@__crt_stdio_output@@@2@@__crt_stdio_output@@AAE_N_N@Z 1002175e f i libucrt:output.obj
 0001:000208eb       ??$type_case_integer@$09@?$output_processor@DV?$string_output_adapter@D@__crt_stdio_output@@V?$positional_parameter_base@DV?$string_output_adapter@D@__crt_stdio_output@@@2@@__crt_stdio_output@@AAE_N_N@Z 100218eb f i libucrt:output.obj
 0001:00020a87       ??$type_case_integer@$09@?$output_processor@DV?$string_output_adapter@D@__crt_stdio_output@@V?$standard_base@DV?$string_output_adapter@D@__crt_stdio_output@@@2@@__crt_stdio_output@@AAE_N_N@Z 10021a87 f i libucrt:output.obj
 0001:00020c14       ??$type_case_integer@$09@?$output_processor@_WV?$stream_output_adapter@_W@__crt_stdio_output@@V?$format_validation_base@_WV?$stream_output_adapter@_W@__crt_stdio_output@@@2@@__crt_stdio_output@@AAE_N_N@Z 10021c14 f i libucrt:output.obj
 0001:00020da6       ??$type_case_integer@$09@?$output_processor@_WV?$stream_output_adapter@_W@__crt_stdio_output@@V?$positional_parameter_base@_WV?$stream_output_adapter@_W@__crt_stdio_output@@@2@@__crt_stdio_output@@AAE_N_N@Z 10021da6 f i libucrt:output.obj
 0001:00020f46       ??$type_case_integer@$09@?$output_processor@_WV?$stream_output_adapter@_W@__crt_stdio_output@@V?$standard_base@_WV?$stream_output_adapter@_W@__crt_stdio_output@@@2@@__crt_stdio_output@@AAE_N_N@Z 10021f46 f i libucrt:output.obj
 0001:000210d8       ??$type_case_integer@$09@?$output_processor@_WV?$string_output_adapter@_W@__crt_stdio_output@@V?$format_validation_base@_WV?$string_output_adapter@_W@__crt_stdio_output@@@2@@__crt_stdio_output@@AAE_N_N@Z 100220d8 f i libucrt:output.obj
 0001:0002126a       ??$type_case_integer@$09@?$output_processor@_WV?$string_output_adapter@_W@__crt_stdio_output@@V?$positional_parameter_base@_WV?$string_output_adapter@_W@__crt_stdio_output@@@2@@__crt_stdio_output@@AAE_N_N@Z 1002226a f i libucrt:output.obj
 0001:0002140a       ??$type_case_integer@$09@?$output_processor@_WV?$string_output_adapter@_W@__crt_stdio_output@@V?$standard_base@_WV?$string_output_adapter@_W@__crt_stdio_output@@@2@@__crt_stdio_output@@AAE_N_N@Z 1002240a f i libucrt:output.obj
 0001:0002159c       ??$type_case_integer@$0BA@@?$output_processor@DV?$stream_output_adapter@D@__crt_stdio_output@@V?$format_validation_base@DV?$stream_output_adapter@D@__crt_stdio_output@@@2@@__crt_stdio_output@@AAE_N_N@Z 1002259c f i libucrt:output.obj
 0001:00021729       ??$type_case_integer@$0BA@@?$output_processor@DV?$stream_output_adapter@D@__crt_stdio_output@@V?$positional_parameter_base@DV?$stream_output_adapter@D@__crt_stdio_output@@@2@@__crt_stdio_output@@AAE_N_N@Z 10022729 f i libucrt:output.obj
 0001:000218c5       ??$type_case_integer@$0BA@@?$output_processor@DV?$stream_output_adapter@D@__crt_stdio_output@@V?$standard_base@DV?$stream_output_adapter@D@__crt_stdio_output@@@2@@__crt_stdio_output@@AAE_N_N@Z 100228c5 f i libucrt:output.obj
 0001:00021a52       ??$type_case_integer@$0BA@@?$output_processor@DV?$string_output_adapter@D@__crt_stdio_output@@V?$format_validation_base@DV?$string_output_adapter@D@__crt_stdio_output@@@2@@__crt_stdio_output@@AAE_N_N@Z 10022a52 f i libucrt:output.obj
 0001:00021bdf       ??$type_case_integer@$0BA@@?$output_processor@DV?$string_output_adapter@D@__crt_stdio_output@@V?$positional_parameter_base@DV?$string_output_adapter@D@__crt_stdio_output@@@2@@__crt_stdio_output@@AAE_N_N@Z 10022bdf f i libucrt:output.obj
 0001:00021d7b       ??$type_case_integer@$0BA@@?$output_processor@DV?$string_output_adapter@D@__crt_stdio_output@@V?$standard_base@DV?$string_output_adapter@D@__crt_stdio_output@@@2@@__crt_stdio_output@@AAE_N_N@Z 10022d7b f i libucrt:output.obj
 0001:00021f08       ??$type_case_integer@$0BA@@?$output_processor@_WV?$stream_output_adapter@_W@__crt_stdio_output@@V?$format_validation_base@_WV?$stream_output_adapter@_W@__crt_stdio_output@@@2@@__crt_stdio_output@@AAE_N_N@Z 10022f08 f i libucrt:output.obj
 0001:0002209a       ??$type_case_integer@$0BA@@?$output_processor@_WV?$stream_output_adapter@_W@__crt_stdio_output@@V?$positional_parameter_base@_WV?$stream_output_adapter@_W@__crt_stdio_output@@@2@@__crt_stdio_output@@AAE_N_N@Z 1002309a f i libucrt:output.obj
 0001:0002223a       ??$type_case_integer@$0BA@@?$output_processor@_WV?$stream_output_adapter@_W@__crt_stdio_output@@V?$standard_base@_WV?$stream_output_adapter@_W@__crt_stdio_output@@@2@@__crt_stdio_output@@AAE_N_N@Z 1002323a f i libucrt:output.obj
 0001:000223cc       ??$type_case_integer@$0BA@@?$output_processor@_WV?$string_output_adapter@_W@__crt_stdio_output@@V?$format_validation_base@_WV?$string_output_adapter@_W@__crt_stdio_output@@@2@@__crt_stdio_output@@AAE_N_N@Z 100233cc f i libucrt:output.obj
 0001:0002255e       ??$type_case_integer@$0BA@@?$output_processor@_WV?$string_output_adapter@_W@__crt_stdio_output@@V?$positional_parameter_base@_WV?$string_output_adapter@_W@__crt_stdio_output@@@2@@__crt_stdio_output@@AAE_N_N@Z 1002355e f i libucrt:output.obj
 0001:000226fe       ??$type_case_integer@$0BA@@?$output_processor@_WV?$string_output_adapter@_W@__crt_stdio_output@@V?$standard_base@_WV?$string_output_adapter@_W@__crt_stdio_output@@@2@@__crt_stdio_output@@AAE_N_N@Z 100236fe f i libucrt:output.obj
 0001:00022890       ??$type_case_integer_parse_into_buffer@I$07@?$output_processor@DV?$stream_output_adapter@D@__crt_stdio_output@@V?$format_validation_base@DV?$stream_output_adapter@D@__crt_stdio_output@@@2@@__crt_stdio_output@@AAEXI_N@Z 10023890 f i libucrt:output.obj
 0001:000228f3       ??$type_case_integer_parse_into_buffer@I$07@?$output_processor@DV?$stream_output_adapter@D@__crt_stdio_output@@V?$positional_parameter_base@DV?$stream_output_adapter@D@__crt_stdio_output@@@2@@__crt_stdio_output@@AAEXI_N@Z 100238f3 f i libucrt:output.obj
 0001:00022956       ??$type_case_integer_parse_into_buffer@I$07@?$output_processor@DV?$stream_output_adapter@D@__crt_stdio_output@@V?$standard_base@DV?$stream_output_adapter@D@__crt_stdio_output@@@2@@__crt_stdio_output@@AAEXI_N@Z 10023956 f i libucrt:output.obj
 0001:000229b9       ??$type_case_integer_parse_into_buffer@I$07@?$output_processor@DV?$string_output_adapter@D@__crt_stdio_output@@V?$format_validation_base@DV?$string_output_adapter@D@__crt_stdio_output@@@2@@__crt_stdio_output@@AAEXI_N@Z 100239b9 f i libucrt:output.obj
 0001:00022a1c       ??$type_case_integer_parse_into_buffer@I$07@?$output_processor@DV?$string_output_adapter@D@__crt_stdio_output@@V?$positional_parameter_base@DV?$string_output_adapter@D@__crt_stdio_output@@@2@@__crt_stdio_output@@AAEXI_N@Z 10023a1c f i libucrt:output.obj
 0001:00022a7f       ??$type_case_integer_parse_into_buffer@I$07@?$output_processor@DV?$string_output_adapter@D@__crt_stdio_output@@V?$standard_base@DV?$string_output_adapter@D@__crt_stdio_output@@@2@@__crt_stdio_output@@AAEXI_N@Z 10023a7f f i libucrt:output.obj
 0001:00022ae2       ??$type_case_integer_parse_into_buffer@I$07@?$output_processor@_WV?$stream_output_adapter@_W@__crt_stdio_output@@V?$format_validation_base@_WV?$stream_output_adapter@_W@__crt_stdio_output@@@2@@__crt_stdio_output@@AAEXI_N@Z 10023ae2 f i libucrt:output.obj
 0001:00022b55       ??$type_case_integer_parse_into_buffer@I$07@?$output_processor@_WV?$stream_output_adapter@_W@__crt_stdio_output@@V?$positional_parameter_base@_WV?$stream_output_adapter@_W@__crt_stdio_output@@@2@@__crt_stdio_output@@AAEXI_N@Z 10023b55 f i libucrt:output.obj
 0001:00022bc8       ??$type_case_integer_parse_into_buffer@I$07@?$output_processor@_WV?$stream_output_adapter@_W@__crt_stdio_output@@V?$standard_base@_WV?$stream_output_adapter@_W@__crt_stdio_output@@@2@@__crt_stdio_output@@AAEXI_N@Z 10023bc8 f i libucrt:output.obj
 0001:00022c3b       ??$type_case_integer_parse_into_buffer@I$07@?$output_processor@_WV?$string_output_adapter@_W@__crt_stdio_output@@V?$format_validation_base@_WV?$string_output_adapter@_W@__crt_stdio_output@@@2@@__crt_stdio_output@@AAEXI_N@Z 10023c3b f i libucrt:output.obj
 0001:00022cae       ??$type_case_integer_parse_into_buffer@I$07@?$output_processor@_WV?$string_output_adapter@_W@__crt_stdio_output@@V?$positional_parameter_base@_WV?$string_output_adapter@_W@__crt_stdio_output@@@2@@__crt_stdio_output@@AAEXI_N@Z 10023cae f i libucrt:output.obj
 0001:00022d21       ??$type_case_integer_parse_into_buffer@I$07@?$output_processor@_WV?$string_output_adapter@_W@__crt_stdio_output@@V?$standard_base@_WV?$string_output_adapter@_W@__crt_stdio_output@@@2@@__crt_stdio_output@@AAEXI_N@Z 10023d21 f i libucrt:output.obj
 0001:00022d94       ??$type_case_integer_parse_into_buffer@I$09@?$output_processor@DV?$stream_output_adapter@D@__crt_stdio_output@@V?$format_validation_base@DV?$stream_output_adapter@D@__crt_stdio_output@@@2@@__crt_stdio_output@@AAEXI_N@Z 10023d94 f i libucrt:output.obj
 0001:00022e1b       ??$type_case_integer_parse_into_buffer@I$09@?$output_processor@DV?$stream_output_adapter@D@__crt_stdio_output@@V?$positional_parameter_base@DV?$stream_output_adapter@D@__crt_stdio_output@@@2@@__crt_stdio_output@@AAEXI_N@Z 10023e1b f i libucrt:output.obj
 0001:00022ea2       ??$type_case_integer_parse_into_buffer@I$09@?$output_processor@DV?$stream_output_adapter@D@__crt_stdio_output@@V?$standard_base@DV?$stream_output_adapter@D@__crt_stdio_output@@@2@@__crt_stdio_output@@AAEXI_N@Z 10023ea2 f i libucrt:output.obj
 0001:00022f29       ??$type_case_integer_parse_into_buffer@I$09@?$output_processor@DV?$string_output_adapter@D@__crt_stdio_output@@V?$format_validation_base@DV?$string_output_adapter@D@__crt_stdio_output@@@2@@__crt_stdio_output@@AAEXI_N@Z 10023f29 f i libucrt:output.obj
 0001:00022fb0       ??$type_case_integer_parse_into_buffer@I$09@?$output_processor@DV?$string_output_adapter@D@__crt_stdio_output@@V?$positional_parameter_base@DV?$string_output_adapter@D@__crt_stdio_output@@@2@@__crt_stdio_output@@AAEXI_N@Z 10023fb0 f i libucrt:output.obj
 0001:00023037       ??$type_case_integer_parse_into_buffer@I$09@?$output_processor@DV?$string_output_adapter@D@__crt_stdio_output@@V?$standard_base@DV?$string_output_adapter@D@__crt_stdio_output@@@2@@__crt_stdio_output@@AAEXI_N@Z 10024037 f i libucrt:output.obj
 0001:000230be       ??$type_case_integer_parse_into_buffer@I$09@?$output_processor@_WV?$stream_output_adapter@_W@__crt_stdio_output@@V?$format_validation_base@_WV?$stream_output_adapter@_W@__crt_stdio_output@@@2@@__crt_stdio_output@@AAEXI_N@Z 100240be f i libucrt:output.obj
 0001:0002315a       ??$type_case_integer_parse_into_buffer@I$09@?$output_processor@_WV?$stream_output_adapter@_W@__crt_stdio_output@@V?$positional_parameter_base@_WV?$stream_output_adapter@_W@__crt_stdio_output@@@2@@__crt_stdio_output@@AAEXI_N@Z 1002415a f i libucrt:output.obj
 0001:000231f6       ??$type_case_integer_parse_into_buffer@I$09@?$output_processor@_WV?$stream_output_adapter@_W@__crt_stdio_output@@V?$standard_base@_WV?$stream_output_adapter@_W@__crt_stdio_output@@@2@@__crt_stdio_output@@AAEXI_N@Z 100241f6 f i libucrt:output.obj
 0001:00023292       ??$type_case_integer_parse_into_buffer@I$09@?$output_processor@_WV?$string_output_adapter@_W@__crt_stdio_output@@V?$format_validation_base@_WV?$string_output_adapter@_W@__crt_stdio_output@@@2@@__crt_stdio_output@@AAEXI_N@Z 10024292 f i libucrt:output.obj
 0001:0002332e       ??$type_case_integer_parse_into_buffer@I$09@?$output_processor@_WV?$string_output_adapter@_W@__crt_stdio_output@@V?$positional_parameter_base@_WV?$string_output_adapter@_W@__crt_stdio_output@@@2@@__crt_stdio_output@@AAEXI_N@Z 1002432e f i libucrt:output.obj
 0001:000233ca       ??$type_case_integer_parse_into_buffer@I$09@?$output_processor@_WV?$string_output_adapter@_W@__crt_stdio_output@@V?$standard_base@_WV?$string_output_adapter@_W@__crt_stdio_output@@@2@@__crt_stdio_output@@AAEXI_N@Z 100243ca f i libucrt:output.obj
 0001:00023466       ??$type_case_integer_parse_into_buffer@I$0BA@@?$output_processor@DV?$stream_output_adapter@D@__crt_stdio_output@@V?$format_validation_base@DV?$stream_output_adapter@D@__crt_stdio_output@@@2@@__crt_stdio_output@@AAEXI_N@Z 10024466 f i libucrt:output.obj
 0001:000234e3       ??$type_case_integer_parse_into_buffer@I$0BA@@?$output_processor@DV?$stream_output_adapter@D@__crt_stdio_output@@V?$positional_parameter_base@DV?$stream_output_adapter@D@__crt_stdio_output@@@2@@__crt_stdio_output@@AAEXI_N@Z 100244e3 f i libucrt:output.obj
 0001:00023560       ??$type_case_integer_parse_into_buffer@I$0BA@@?$output_processor@DV?$stream_output_adapter@D@__crt_stdio_output@@V?$standard_base@DV?$stream_output_adapter@D@__crt_stdio_output@@@2@@__crt_stdio_output@@AAEXI_N@Z 10024560 f i libucrt:output.obj
 0001:000235dd       ??$type_case_integer_parse_into_buffer@I$0BA@@?$output_processor@DV?$string_output_adapter@D@__crt_stdio_output@@V?$format_validation_base@DV?$string_output_adapter@D@__crt_stdio_output@@@2@@__crt_stdio_output@@AAEXI_N@Z 100245dd f i libucrt:output.obj
 0001:0002365a       ??$type_case_integer_parse_into_buffer@I$0BA@@?$output_processor@DV?$string_output_adapter@D@__crt_stdio_output@@V?$positional_parameter_base@DV?$string_output_adapter@D@__crt_stdio_output@@@2@@__crt_stdio_output@@AAEXI_N@Z 1002465a f i libucrt:output.obj
 0001:000236d7       ??$type_case_integer_parse_into_buffer@I$0BA@@?$output_processor@DV?$string_output_adapter@D@__crt_stdio_output@@V?$standard_base@DV?$string_output_adapter@D@__crt_stdio_output@@@2@@__crt_stdio_output@@AAEXI_N@Z 100246d7 f i libucrt:output.obj
 0001:00023754       ??$type_case_integer_parse_into_buffer@I$0BA@@?$output_processor@_WV?$stream_output_adapter@_W@__crt_stdio_output@@V?$format_validation_base@_WV?$stream_output_adapter@_W@__crt_stdio_output@@@2@@__crt_stdio_output@@AAEXI_N@Z 10024754 f i libucrt:output.obj
 0001:000237de       ??$type_case_integer_parse_into_buffer@I$0BA@@?$output_processor@_WV?$stream_output_adapter@_W@__crt_stdio_output@@V?$positional_parameter_base@_WV?$stream_output_adapter@_W@__crt_stdio_output@@@2@@__crt_stdio_output@@AAEXI_N@Z 100247de f i libucrt:output.obj
 0001:00023868       ??$type_case_integer_parse_into_buffer@I$0BA@@?$output_processor@_WV?$stream_output_adapter@_W@__crt_stdio_output@@V?$standard_base@_WV?$stream_output_adapter@_W@__crt_stdio_output@@@2@@__crt_stdio_output@@AAEXI_N@Z 10024868 f i libucrt:output.obj
 0001:000238f2       ??$type_case_integer_parse_into_buffer@I$0BA@@?$output_processor@_WV?$string_output_adapter@_W@__crt_stdio_output@@V?$format_validation_base@_WV?$string_output_adapter@_W@__crt_stdio_output@@@2@@__crt_stdio_output@@AAEXI_N@Z 100248f2 f i libucrt:output.obj
 0001:0002397c       ??$type_case_integer_parse_into_buffer@I$0BA@@?$output_processor@_WV?$string_output_adapter@_W@__crt_stdio_output@@V?$positional_parameter_base@_WV?$string_output_adapter@_W@__crt_stdio_output@@@2@@__crt_stdio_output@@AAEXI_N@Z 1002497c f i libucrt:output.obj
 0001:00023a06       ??$type_case_integer_parse_into_buffer@I$0BA@@?$output_processor@_WV?$string_output_adapter@_W@__crt_stdio_output@@V?$standard_base@_WV?$string_output_adapter@_W@__crt_stdio_output@@@2@@__crt_stdio_output@@AAEXI_N@Z 10024a06 f i libucrt:output.obj
 0001:00023a90       ??$type_case_integer_parse_into_buffer@_K$07@?$output_processor@DV?$stream_output_adapter@D@__crt_stdio_output@@V?$format_validation_base@DV?$stream_output_adapter@D@__crt_stdio_output@@@2@@__crt_stdio_output@@AAEX_K_N@Z 10024a90 f i libucrt:output.obj
 0001:00023b08       ??$type_case_integer_parse_into_buffer@_K$07@?$output_processor@DV?$stream_output_adapter@D@__crt_stdio_output@@V?$positional_parameter_base@DV?$stream_output_adapter@D@__crt_stdio_output@@@2@@__crt_stdio_output@@AAEX_K_N@Z 10024b08 f i libucrt:output.obj
 0001:00023b80       ??$type_case_integer_parse_into_buffer@_K$07@?$output_processor@DV?$stream_output_adapter@D@__crt_stdio_output@@V?$standard_base@DV?$stream_output_adapter@D@__crt_stdio_output@@@2@@__crt_stdio_output@@AAEX_K_N@Z 10024b80 f i libucrt:output.obj
 0001:00023bf8       ??$type_case_integer_parse_into_buffer@_K$07@?$output_processor@DV?$string_output_adapter@D@__crt_stdio_output@@V?$format_validation_base@DV?$string_output_adapter@D@__crt_stdio_output@@@2@@__crt_stdio_output@@AAEX_K_N@Z 10024bf8 f i libucrt:output.obj
 0001:00023c70       ??$type_case_integer_parse_into_buffer@_K$07@?$output_processor@DV?$string_output_adapter@D@__crt_stdio_output@@V?$positional_parameter_base@DV?$string_output_adapter@D@__crt_stdio_output@@@2@@__crt_stdio_output@@AAEX_K_N@Z 10024c70 f i libucrt:output.obj
 0001:00023ce8       ??$type_case_integer_parse_into_buffer@_K$07@?$output_processor@DV?$string_output_adapter@D@__crt_stdio_output@@V?$standard_base@DV?$string_output_adapter@D@__crt_stdio_output@@@2@@__crt_stdio_output@@AAEX_K_N@Z 10024ce8 f i libucrt:output.obj
 0001:00023d60       ??$type_case_integer_parse_into_buffer@_K$07@?$output_processor@_WV?$stream_output_adapter@_W@__crt_stdio_output@@V?$format_validation_base@_WV?$stream_output_adapter@_W@__crt_stdio_output@@@2@@__crt_stdio_output@@AAEX_K_N@Z 10024d60 f i libucrt:output.obj
 0001:00023de7       ??$type_case_integer_parse_into_buffer@_K$07@?$output_processor@_WV?$stream_output_adapter@_W@__crt_stdio_output@@V?$positional_parameter_base@_WV?$stream_output_adapter@_W@__crt_stdio_output@@@2@@__crt_stdio_output@@AAEX_K_N@Z 10024de7 f i libucrt:output.obj
 0001:00023e6e       ??$type_case_integer_parse_into_buffer@_K$07@?$output_processor@_WV?$stream_output_adapter@_W@__crt_stdio_output@@V?$standard_base@_WV?$stream_output_adapter@_W@__crt_stdio_output@@@2@@__crt_stdio_output@@AAEX_K_N@Z 10024e6e f i libucrt:output.obj
 0001:00023ef5       ??$type_case_integer_parse_into_buffer@_K$07@?$output_processor@_WV?$string_output_adapter@_W@__crt_stdio_output@@V?$format_validation_base@_WV?$string_output_adapter@_W@__crt_stdio_output@@@2@@__crt_stdio_output@@AAEX_K_N@Z 10024ef5 f i libucrt:output.obj
 0001:00023f7c       ??$type_case_integer_parse_into_buffer@_K$07@?$output_processor@_WV?$string_output_adapter@_W@__crt_stdio_output@@V?$positional_parameter_base@_WV?$string_output_adapter@_W@__crt_stdio_output@@@2@@__crt_stdio_output@@AAEX_K_N@Z 10024f7c f i libucrt:output.obj
 0001:00024003       ??$type_case_integer_parse_into_buffer@_K$07@?$output_processor@_WV?$string_output_adapter@_W@__crt_stdio_output@@V?$standard_base@_WV?$string_output_adapter@_W@__crt_stdio_output@@@2@@__crt_stdio_output@@AAEX_K_N@Z 10025003 f i libucrt:output.obj
 0001:0002408a       ??$type_case_integer_parse_into_buffer@_K$09@?$output_processor@DV?$stream_output_adapter@D@__crt_stdio_output@@V?$format_validation_base@DV?$stream_output_adapter@D@__crt_stdio_output@@@2@@__crt_stdio_output@@AAEX_K_N@Z 1002508a f i libucrt:output.obj
 0001:00024131       ??$type_case_integer_parse_into_buffer@_K$09@?$output_processor@DV?$stream_output_adapter@D@__crt_stdio_output@@V?$positional_parameter_base@DV?$stream_output_adapter@D@__crt_stdio_output@@@2@@__crt_stdio_output@@AAEX_K_N@Z 10025131 f i libucrt:output.obj
 0001:000241d8       ??$type_case_integer_parse_into_buffer@_K$09@?$output_processor@DV?$stream_output_adapter@D@__crt_stdio_output@@V?$standard_base@DV?$stream_output_adapter@D@__crt_stdio_output@@@2@@__crt_stdio_output@@AAEX_K_N@Z 100251d8 f i libucrt:output.obj
 0001:0002427f       ??$type_case_integer_parse_into_buffer@_K$09@?$output_processor@DV?$string_output_adapter@D@__crt_stdio_output@@V?$format_validation_base@DV?$string_output_adapter@D@__crt_stdio_output@@@2@@__crt_stdio_output@@AAEX_K_N@Z 1002527f f i libucrt:output.obj
 0001:00024326       ??$type_case_integer_parse_into_buffer@_K$09@?$output_processor@DV?$string_output_adapter@D@__crt_stdio_output@@V?$positional_parameter_base@DV?$string_output_adapter@D@__crt_stdio_output@@@2@@__crt_stdio_output@@AAEX_K_N@Z 10025326 f i libucrt:output.obj
 0001:000243cd       ??$type_case_integer_parse_into_buffer@_K$09@?$output_processor@DV?$string_output_adapter@D@__crt_stdio_output@@V?$standard_base@DV?$string_output_adapter@D@__crt_stdio_output@@@2@@__crt_stdio_output@@AAEX_K_N@Z 100253cd f i libucrt:output.obj
 0001:00024474       ??$type_case_integer_parse_into_buffer@_K$09@?$output_processor@_WV?$stream_output_adapter@_W@__crt_stdio_output@@V?$format_validation_base@_WV?$stream_output_adapter@_W@__crt_stdio_output@@@2@@__crt_stdio_output@@AAEX_K_N@Z 10025474 f i libucrt:output.obj
 0001:00024531       ??$type_case_integer_parse_into_buffer@_K$09@?$output_processor@_WV?$stream_output_adapter@_W@__crt_stdio_output@@V?$positional_parameter_base@_WV?$stream_output_adapter@_W@__crt_stdio_output@@@2@@__crt_stdio_output@@AAEX_K_N@Z 10025531 f i libucrt:output.obj
 0001:000245ee       ??$type_case_integer_parse_into_buffer@_K$09@?$output_processor@_WV?$stream_output_adapter@_W@__crt_stdio_output@@V?$standard_base@_WV?$stream_output_adapter@_W@__crt_stdio_output@@@2@@__crt_stdio_output@@AAEX_K_N@Z 100255ee f i libucrt:output.obj
 0001:000246ab       ??$type_case_integer_parse_into_buffer@_K$09@?$output_processor@_WV?$string_output_adapter@_W@__crt_stdio_output@@V?$format_validation_base@_WV?$string_output_adapter@_W@__crt_stdio_output@@@2@@__crt_stdio_output@@AAEX_K_N@Z 100256ab f i libucrt:output.obj
 0001:00024768       ??$type_case_integer_parse_into_buffer@_K$09@?$output_processor@_WV?$string_output_adapter@_W@__crt_stdio_output@@V?$positional_parameter_base@_WV?$string_output_adapter@_W@__crt_stdio_output@@@2@@__crt_stdio_output@@AAEX_K_N@Z 10025768 f i libucrt:output.obj
 0001:00024825       ??$type_case_integer_parse_into_buffer@_K$09@?$output_processor@_WV?$string_output_adapter@_W@__crt_stdio_output@@V?$standard_base@_WV?$string_output_adapter@_W@__crt_stdio_output@@@2@@__crt_stdio_output@@AAEX_K_N@Z 10025825 f i libucrt:output.obj
 0001:000248e2       ??$type_case_integer_parse_into_buffer@_K$0BA@@?$output_processor@DV?$stream_output_adapter@D@__crt_stdio_output@@V?$format_validation_base@DV?$stream_output_adapter@D@__crt_stdio_output@@@2@@__crt_stdio_output@@AAEX_K_N@Z 100258e2 f i libucrt:output.obj
 0001:0002496c       ??$type_case_integer_parse_into_buffer@_K$0BA@@?$output_processor@DV?$stream_output_adapter@D@__crt_stdio_output@@V?$positional_parameter_base@DV?$stream_output_adapter@D@__crt_stdio_output@@@2@@__crt_stdio_output@@AAEX_K_N@Z 1002596c f i libucrt:output.obj
 0001:000249f6       ??$type_case_integer_parse_into_buffer@_K$0BA@@?$output_processor@DV?$stream_output_adapter@D@__crt_stdio_output@@V?$standard_base@DV?$stream_output_adapter@D@__crt_stdio_output@@@2@@__crt_stdio_output@@AAEX_K_N@Z 100259f6 f i libucrt:output.obj
 0001:00024a80       ??$type_case_integer_parse_into_buffer@_K$0BA@@?$output_processor@DV?$string_output_adapter@D@__crt_stdio_output@@V?$format_validation_base@DV?$string_output_adapter@D@__crt_stdio_output@@@2@@__crt_stdio_output@@AAEX_K_N@Z 10025a80 f i libucrt:output.obj
 0001:00024b0a       ??$type_case_integer_parse_into_buffer@_K$0BA@@?$output_processor@DV?$string_output_adapter@D@__crt_stdio_output@@V?$positional_parameter_base@DV?$string_output_adapter@D@__crt_stdio_output@@@2@@__crt_stdio_output@@AAEX_K_N@Z 10025b0a f i libucrt:output.obj
 0001:00024b94       ??$type_case_integer_parse_into_buffer@_K$0BA@@?$output_processor@DV?$string_output_adapter@D@__crt_stdio_output@@V?$standard_base@DV?$string_output_adapter@D@__crt_stdio_output@@@2@@__crt_stdio_output@@AAEX_K_N@Z 10025b94 f i libucrt:output.obj
 0001:00024c1e       ??$type_case_integer_parse_into_buffer@_K$0BA@@?$output_processor@_WV?$stream_output_adapter@_W@__crt_stdio_output@@V?$format_validation_base@_WV?$stream_output_adapter@_W@__crt_stdio_output@@@2@@__crt_stdio_output@@AAEX_K_N@Z 10025c1e f i libucrt:output.obj
 0001:00024cb4       ??$type_case_integer_parse_into_buffer@_K$0BA@@?$output_processor@_WV?$stream_output_adapter@_W@__crt_stdio_output@@V?$positional_parameter_base@_WV?$stream_output_adapter@_W@__crt_stdio_output@@@2@@__crt_stdio_output@@AAEX_K_N@Z 10025cb4 f i libucrt:output.obj
 0001:00024d4a       ??$type_case_integer_parse_into_buffer@_K$0BA@@?$output_processor@_WV?$stream_output_adapter@_W@__crt_stdio_output@@V?$standard_base@_WV?$stream_output_adapter@_W@__crt_stdio_output@@@2@@__crt_stdio_output@@AAEX_K_N@Z 10025d4a f i libucrt:output.obj
 0001:00024de0       ??$type_case_integer_parse_into_buffer@_K$0BA@@?$output_processor@_WV?$string_output_adapter@_W@__crt_stdio_output@@V?$format_validation_base@_WV?$string_output_adapter@_W@__crt_stdio_output@@@2@@__crt_stdio_output@@AAEX_K_N@Z 10025de0 f i libucrt:output.obj
 0001:00024e76       ??$type_case_integer_parse_into_buffer@_K$0BA@@?$output_processor@_WV?$string_output_adapter@_W@__crt_stdio_output@@V?$positional_parameter_base@_WV?$string_output_adapter@_W@__crt_stdio_output@@@2@@__crt_stdio_output@@AAEX_K_N@Z 10025e76 f i libucrt:output.obj
 0001:00024f0c       ??$type_case_integer_parse_into_buffer@_K$0BA@@?$output_processor@_WV?$string_output_adapter@_W@__crt_stdio_output@@V?$standard_base@_WV?$string_output_adapter@_W@__crt_stdio_output@@@2@@__crt_stdio_output@@AAEX_K_N@Z 10025f0c f i libucrt:output.obj
 0001:00024fa2       ??$write_multiple_characters@V?$stream_output_adapter@D@__crt_stdio_output@@D@__crt_stdio_output@@YAXABV?$stream_output_adapter@D@0@DHQAHAAV__crt_cached_ptd_host@@@Z 10025fa2 f i libucrt:output.obj
 0001:00024fd1       ??$write_multiple_characters@V?$stream_output_adapter@_W@__crt_stdio_output@@D@__crt_stdio_output@@YAXABV?$stream_output_adapter@_W@0@DHQAHAAV__crt_cached_ptd_host@@@Z 10025fd1 f i libucrt:output.obj
 0001:00025005       ??$write_multiple_characters@V?$string_output_adapter@D@__crt_stdio_output@@D@__crt_stdio_output@@YAXABV?$string_output_adapter@D@0@DHQAHAAV__crt_cached_ptd_host@@@Z 10026005 f i libucrt:output.obj
 0001:00025068       ??$write_multiple_characters@V?$string_output_adapter@_W@__crt_stdio_output@@D@__crt_stdio_output@@YAXABV?$string_output_adapter@_W@0@DHQAHAAV__crt_cached_ptd_host@@@Z 10026068 f i libucrt:output.obj
 0001:00025297       ??0?$c_string_character_source@D@__crt_strtox@@QAE@QBDQAPBD@Z 10026297 f i libucrt:output.obj
 0001:000252b3       ??0?$c_string_character_source@_W@__crt_strtox@@QAE@QB_WQAPB_W@Z 100262b3 f i libucrt:output.obj
 0001:000252cf       ??0?$common_data@D@__crt_stdio_output@@IAE@AAV__crt_cached_ptd_host@@@Z 100262cf f i libucrt:output.obj
 0001:00025316       ??0?$common_data@_W@__crt_stdio_output@@IAE@AAV__crt_cached_ptd_host@@@Z 10026316 f i libucrt:output.obj
 0001:00025362       ??0?$output_adapter_data@DV?$stream_output_adapter@D@__crt_stdio_output@@@__crt_stdio_output@@IAE@ABV?$stream_output_adapter@D@1@_KQBDAAV__crt_cached_ptd_host@@QAD@Z 10026362 f i libucrt:output.obj
 0001:000253c9       ??0?$output_adapter_data@DV?$string_output_adapter@D@__crt_stdio_output@@@__crt_stdio_output@@IAE@ABV?$string_output_adapter@D@1@_KQBDAAV__crt_cached_ptd_host@@QAD@Z 100263c9 f i libucrt:output.obj
 0001:00025430       ??0?$output_adapter_data@_WV?$stream_output_adapter@_W@__crt_stdio_output@@@__crt_stdio_output@@IAE@ABV?$stream_output_adapter@_W@1@_KQB_WAAV__crt_cached_ptd_host@@QAD@Z 10026430 f i libucrt:output.obj
 0001:0002549c       ??0?$output_adapter_data@_WV?$string_output_adapter@_W@__crt_stdio_output@@@__crt_stdio_output@@IAE@ABV?$string_output_adapter@_W@1@_KQB_WAAV__crt_cached_ptd_host@@QAD@Z 1002649c f i libucrt:output.obj
 0001:00025508       ??0?$output_processor@DV?$stream_output_adapter@D@__crt_stdio_output@@V?$format_validation_base@DV?$stream_output_adapter@D@__crt_stdio_output@@@2@@__crt_stdio_output@@QAE@ABV?$stream_output_adapter@D@1@_KQBDAAV__crt_cached_ptd_host@@QAD@Z 10026508 f i libucrt:output.obj
 0001:00025535       ??0?$output_processor@DV?$stream_output_adapter@D@__crt_stdio_output@@V?$positional_parameter_base@DV?$stream_output_adapter@D@__crt_stdio_output@@@2@@__crt_stdio_output@@QAE@ABV?$stream_output_adapter@D@1@_KQBDAAV__crt_cached_ptd_host@@QAD@Z 10026535 f i libucrt:output.obj
 0001:0002555b       ??0?$output_processor@DV?$stream_output_adapter@D@__crt_stdio_output@@V?$standard_base@DV?$stream_output_adapter@D@__crt_stdio_output@@@2@@__crt_stdio_output@@QAE@ABV?$stream_output_adapter@D@1@_KQBDAAV__crt_cached_ptd_host@@QAD@Z 1002655b f i libucrt:output.obj
 0001:00025588       ??0?$output_processor@DV?$string_output_adapter@D@__crt_stdio_output@@V?$format_validation_base@DV?$string_output_adapter@D@__crt_stdio_output@@@2@@__crt_stdio_output@@QAE@ABV?$string_output_adapter@D@1@_KQBDAAV__crt_cached_ptd_host@@QAD@Z 10026588 f i libucrt:output.obj
 0001:000255b5       ??0?$output_processor@DV?$string_output_adapter@D@__crt_stdio_output@@V?$positional_parameter_base@DV?$string_output_adapter@D@__crt_stdio_output@@@2@@__crt_stdio_output@@QAE@ABV?$string_output_adapter@D@1@_KQBDAAV__crt_cached_ptd_host@@QAD@Z 100265b5 f i libucrt:output.obj
 0001:000255db       ??0?$output_processor@DV?$string_output_adapter@D@__crt_stdio_output@@V?$standard_base@DV?$string_output_adapter@D@__crt_stdio_output@@@2@@__crt_stdio_output@@QAE@ABV?$string_output_adapter@D@1@_KQBDAAV__crt_cached_ptd_host@@QAD@Z 100265db f i libucrt:output.obj
 0001:00025608       ??0?$output_processor@_WV?$stream_output_adapter@_W@__crt_stdio_output@@V?$format_validation_base@_WV?$stream_output_adapter@_W@__crt_stdio_output@@@2@@__crt_stdio_output@@QAE@ABV?$stream_output_adapter@_W@1@_KQB_WAAV__crt_cached_ptd_host@@QAD@Z 10026608 f i libucrt:output.obj
 0001:00025635       ??0?$output_processor@_WV?$stream_output_adapter@_W@__crt_stdio_output@@V?$positional_parameter_base@_WV?$stream_output_adapter@_W@__crt_stdio_output@@@2@@__crt_stdio_output@@QAE@ABV?$stream_output_adapter@_W@1@_KQB_WAAV__crt_cached_ptd_host@@QAD@Z 10026635 f i libucrt:output.obj
 0001:0002565b       ??0?$output_processor@_WV?$stream_output_adapter@_W@__crt_stdio_output@@V?$standard_base@_WV?$stream_output_adapter@_W@__crt_stdio_output@@@2@@__crt_stdio_output@@QAE@ABV?$stream_output_adapter@_W@1@_KQB_WAAV__crt_cached_ptd_host@@QAD@Z 1002665b f i libucrt:output.obj
 0001:00025688       ??0?$output_processor@_WV?$string_output_adapter@_W@__crt_stdio_output@@V?$format_validation_base@_WV?$string_output_adapter@_W@__crt_stdio_output@@@2@@__crt_stdio_output@@QAE@ABV?$string_output_adapter@_W@1@_KQB_WAAV__crt_cached_ptd_host@@QAD@Z 10026688 f i libucrt:output.obj
 0001:000256b5       ??0?$output_processor@_WV?$string_output_adapter@_W@__crt_stdio_output@@V?$positional_parameter_base@_WV?$string_output_adapter@_W@__crt_stdio_output@@@2@@__crt_stdio_output@@QAE@ABV?$string_output_adapter@_W@1@_KQB_WAAV__crt_cached_ptd_host@@QAD@Z 100266b5 f i libucrt:output.obj
 0001:000256db       ??0?$output_processor@_WV?$string_output_adapter@_W@__crt_stdio_output@@V?$standard_base@_WV?$string_output_adapter@_W@__crt_stdio_output@@@2@@__crt_stdio_output@@QAE@ABV?$string_output_adapter@_W@1@_KQB_WAAV__crt_cached_ptd_host@@QAD@Z 100266db f i libucrt:output.obj
 0001:00025708       ??0?$stream_output_adapter@D@__crt_stdio_output@@QAE@QAU_iobuf@@@Z 10026708 f i libucrt:output.obj
 0001:00025718       ??0?$stream_output_adapter@_W@__crt_stdio_output@@QAE@QAU_iobuf@@@Z 10026718 f i libucrt:output.obj
 0001:00025728       ??0?$string_output_adapter@D@__crt_stdio_output@@QAE@QAU?$string_output_adapter_context@D@1@@Z 10026728 f i libucrt:output.obj
 0001:00025738       ??0?$string_output_adapter@_W@__crt_stdio_output@@QAE@QAU?$string_output_adapter_context@_W@1@@Z 10026738 f i libucrt:output.obj
 0001:00025748       ??0__acrt_stdio_temporary_buffering_guard@@QAE@QAU_iobuf@@AAV__crt_cached_ptd_host@@@Z 10026748 f i libucrt:output.obj
 0001:0002576c       ??0__crt_stdio_stream@@QAE@QAU_iobuf@@@Z 1002676c f i libucrt:output.obj
 0001:0002577c       ??0formatting_buffer@__crt_stdio_output@@QAE@XZ 1002677c f i libucrt:output.obj
 0001:0002578d       ??0guard@?$cached@H@__crt_cached_ptd_host@@QAE@AAU12@@Z 1002678d f i libucrt:output.obj
 0001:000257ac       ??1?$c_string_character_source@D@__crt_strtox@@QAE@XZ 100267ac f i libucrt:output.obj
 0001:000257b8       ??1?$c_string_character_source@_W@__crt_strtox@@QAE@XZ 100267b8 f i libucrt:output.obj
 0001:000257c4       ??1?$common_data@D@__crt_stdio_output@@QAE@XZ 100267c4 f i libucrt:output.obj
 0001:000257cc       ??1?$common_data@_W@__crt_stdio_output@@QAE@XZ 100267cc f i libucrt:output.obj
 0001:000257d4       ??1?$format_validation_base@DV?$stream_output_adapter@D@__crt_stdio_output@@@__crt_stdio_output@@QAE@XZ 100267d4 f i libucrt:output.obj
 0001:000257dc       ??1?$format_validation_base@DV?$string_output_adapter@D@__crt_stdio_output@@@__crt_stdio_output@@QAE@XZ 100267dc f i libucrt:output.obj
 0001:000257e4       ??1?$format_validation_base@_WV?$stream_output_adapter@_W@__crt_stdio_output@@@__crt_stdio_output@@QAE@XZ 100267e4 f i libucrt:output.obj
 0001:000257ec       ??1?$format_validation_base@_WV?$string_output_adapter@_W@__crt_stdio_output@@@__crt_stdio_output@@QAE@XZ 100267ec f i libucrt:output.obj
 0001:000257f4       ??1?$output_adapter_data@DV?$stream_output_adapter@D@__crt_stdio_output@@@__crt_stdio_output@@QAE@XZ 100267f4 f i libucrt:output.obj
 0001:000257fc       ??1?$output_adapter_data@DV?$string_output_adapter@D@__crt_stdio_output@@@__crt_stdio_output@@QAE@XZ 100267fc f i libucrt:output.obj
 0001:00025804       ??1?$output_adapter_data@_WV?$stream_output_adapter@_W@__crt_stdio_output@@@__crt_stdio_output@@QAE@XZ 10026804 f i libucrt:output.obj
 0001:0002580c       ??1?$output_adapter_data@_WV?$string_output_adapter@_W@__crt_stdio_output@@@__crt_stdio_output@@QAE@XZ 1002680c f i libucrt:output.obj
 0001:00025814       ??1?$output_processor@DV?$stream_output_adapter@D@__crt_stdio_output@@V?$format_validation_base@DV?$stream_output_adapter@D@__crt_stdio_output@@@2@@__crt_stdio_output@@QAE@XZ 10026814 f i libucrt:output.obj
 0001:0002581c       ??1?$output_processor@DV?$stream_output_adapter@D@__crt_stdio_output@@V?$positional_parameter_base@DV?$stream_output_adapter@D@__crt_stdio_output@@@2@@__crt_stdio_output@@QAE@XZ 1002681c f i libucrt:output.obj
 0001:00025824       ??1?$output_processor@DV?$stream_output_adapter@D@__crt_stdio_output@@V?$standard_base@DV?$stream_output_adapter@D@__crt_stdio_output@@@2@@__crt_stdio_output@@QAE@XZ 10026824 f i libucrt:output.obj
 0001:0002582c       ??1?$output_processor@DV?$string_output_adapter@D@__crt_stdio_output@@V?$format_validation_base@DV?$string_output_adapter@D@__crt_stdio_output@@@2@@__crt_stdio_output@@QAE@XZ 1002682c f i libucrt:output.obj
 0001:00025834       ??1?$output_processor@DV?$string_output_adapter@D@__crt_stdio_output@@V?$positional_parameter_base@DV?$string_output_adapter@D@__crt_stdio_output@@@2@@__crt_stdio_output@@QAE@XZ 10026834 f i libucrt:output.obj
 0001:0002583c       ??1?$output_processor@DV?$string_output_adapter@D@__crt_stdio_output@@V?$standard_base@DV?$string_output_adapter@D@__crt_stdio_output@@@2@@__crt_stdio_output@@QAE@XZ 1002683c f i libucrt:output.obj
 0001:00025844       ??1?$output_processor@_WV?$stream_output_adapter@_W@__crt_stdio_output@@V?$format_validation_base@_WV?$stream_output_adapter@_W@__crt_stdio_output@@@2@@__crt_stdio_output@@QAE@XZ 10026844 f i libucrt:output.obj
 0001:0002584c       ??1?$output_processor@_WV?$stream_output_adapter@_W@__crt_stdio_output@@V?$positional_parameter_base@_WV?$stream_output_adapter@_W@__crt_stdio_output@@@2@@__crt_stdio_output@@QAE@XZ 1002684c f i libucrt:output.obj
 0001:00025854       ??1?$output_processor@_WV?$stream_output_adapter@_W@__crt_stdio_output@@V?$standard_base@_WV?$stream_output_adapter@_W@__crt_stdio_output@@@2@@__crt_stdio_output@@QAE@XZ 10026854 f i libucrt:output.obj
 0001:0002585c       ??1?$output_processor@_WV?$string_output_adapter@_W@__crt_stdio_output@@V?$format_validation_base@_WV?$string_output_adapter@_W@__crt_stdio_output@@@2@@__crt_stdio_output@@QAE@XZ 1002685c f i libucrt:output.obj
 0001:00025864       ??1?$output_processor@_WV?$string_output_adapter@_W@__crt_stdio_output@@V?$positional_parameter_base@_WV?$string_output_adapter@_W@__crt_stdio_output@@@2@@__crt_stdio_output@@QAE@XZ 10026864 f i libucrt:output.obj
 0001:0002586c       ??1?$output_processor@_WV?$string_output_adapter@_W@__crt_stdio_output@@V?$standard_base@_WV?$string_output_adapter@_W@__crt_stdio_output@@@2@@__crt_stdio_output@@QAE@XZ 1002686c f i libucrt:output.obj
 0001:00025874       ??1?$positional_parameter_base@DV?$stream_output_adapter@D@__crt_stdio_output@@@__crt_stdio_output@@QAE@XZ 10026874 f i libucrt:output.obj
 0001:0002587c       ??1?$positional_parameter_base@DV?$string_output_adapter@D@__crt_stdio_output@@@__crt_stdio_output@@QAE@XZ 1002687c f i libucrt:output.obj
 0001:00025884       ??1?$positional_parameter_base@_WV?$stream_output_adapter@_W@__crt_stdio_output@@@__crt_stdio_output@@QAE@XZ 10026884 f i libucrt:output.obj
 0001:0002588c       ??1?$positional_parameter_base@_WV?$string_output_adapter@_W@__crt_stdio_output@@@__crt_stdio_output@@QAE@XZ 1002688c f i libucrt:output.obj
 0001:00025894       ??1?$standard_base@DV?$stream_output_adapter@D@__crt_stdio_output@@@__crt_stdio_output@@QAE@XZ 10026894 f i libucrt:output.obj
 0001:0002589c       ??1?$standard_base@DV?$string_output_adapter@D@__crt_stdio_output@@@__crt_stdio_output@@QAE@XZ 1002689c f i libucrt:output.obj
 0001:000258a4       ??1?$standard_base@_WV?$stream_output_adapter@_W@__crt_stdio_output@@@__crt_stdio_output@@QAE@XZ 100268a4 f i libucrt:output.obj
 0001:000258ac       ??1?$standard_base@_WV?$string_output_adapter@_W@__crt_stdio_output@@@__crt_stdio_output@@QAE@XZ 100268ac f i libucrt:output.obj
 0001:000258b4       ??1__acrt_stdio_temporary_buffering_guard@@QAE@XZ 100268b4 f i libucrt:output.obj
 0001:000258c7       ??1formatting_buffer@__crt_stdio_output@@QAE@XZ 100268c7 f i libucrt:output.obj
 0001:000258e1       ??1guard@?$cached@H@__crt_cached_ptd_host@@QAE@XZ 100268e1 f i libucrt:output.obj
 0001:000258f7       ??4?$__crt_unique_heap_ptr@DU__crt_internal_free_policy@@@@QAEAAV0@$$QAV0@@Z 100268f7 f i libucrt:output.obj
 0001:0002591b       ??A?$spectre_mitigated_lookup_table@Ustate_transition_pair@__crt_stdio_output@@$0IA@@__crt_stdio_output@@QBEABUstate_transition_pair@1@I@Z 1002691b f i libucrt:output.obj
 0001:0002592d       ??C__crt_stdio_stream@@QBEPAU__crt_stdio_stream_data@@XZ 1002692d f i libucrt:output.obj
 0001:00025d96       ?adjust_hexit@?$output_processor@DV?$stream_output_adapter@D@__crt_stdio_output@@V?$format_validation_base@DV?$stream_output_adapter@D@__crt_stdio_output@@@2@@__crt_stdio_output@@CADH_N@Z 10026d96 f i libucrt:output.obj
 0001:00025daa       ?adjust_hexit@?$output_processor@DV?$stream_output_adapter@D@__crt_stdio_output@@V?$positional_parameter_base@DV?$stream_output_adapter@D@__crt_stdio_output@@@2@@__crt_stdio_output@@CADH_N@Z 10026daa f i libucrt:output.obj
 0001:00025dbe       ?adjust_hexit@?$output_processor@DV?$stream_output_adapter@D@__crt_stdio_output@@V?$standard_base@DV?$stream_output_adapter@D@__crt_stdio_output@@@2@@__crt_stdio_output@@CADH_N@Z 10026dbe f i libucrt:output.obj
 0001:00025dd2       ?adjust_hexit@?$output_processor@DV?$string_output_adapter@D@__crt_stdio_output@@V?$format_validation_base@DV?$string_output_adapter@D@__crt_stdio_output@@@2@@__crt_stdio_output@@CADH_N@Z 10026dd2 f i libucrt:output.obj
 0001:00025de6       ?adjust_hexit@?$output_processor@DV?$string_output_adapter@D@__crt_stdio_output@@V?$positional_parameter_base@DV?$string_output_adapter@D@__crt_stdio_output@@@2@@__crt_stdio_output@@CADH_N@Z 10026de6 f i libucrt:output.obj
 0001:00025dfa       ?adjust_hexit@?$output_processor@DV?$string_output_adapter@D@__crt_stdio_output@@V?$standard_base@DV?$string_output_adapter@D@__crt_stdio_output@@@2@@__crt_stdio_output@@CADH_N@Z 10026dfa f i libucrt:output.obj
 0001:00025e0e       ?adjust_hexit@?$output_processor@_WV?$stream_output_adapter@_W@__crt_stdio_output@@V?$format_validation_base@_WV?$stream_output_adapter@_W@__crt_stdio_output@@@2@@__crt_stdio_output@@CADH_N@Z 10026e0e f i libucrt:output.obj
 0001:00025e22       ?adjust_hexit@?$output_processor@_WV?$stream_output_adapter@_W@__crt_stdio_output@@V?$positional_parameter_base@_WV?$stream_output_adapter@_W@__crt_stdio_output@@@2@@__crt_stdio_output@@CADH_N@Z 10026e22 f i libucrt:output.obj
 0001:00025e36       ?adjust_hexit@?$output_processor@_WV?$stream_output_adapter@_W@__crt_stdio_output@@V?$standard_base@_WV?$stream_output_adapter@_W@__crt_stdio_output@@@2@@__crt_stdio_output@@CADH_N@Z 10026e36 f i libucrt:output.obj
 0001:00025e4a       ?adjust_hexit@?$output_processor@_WV?$string_output_adapter@_W@__crt_stdio_output@@V?$format_validation_base@_WV?$string_output_adapter@_W@__crt_stdio_output@@@2@@__crt_stdio_output@@CADH_N@Z 10026e4a f i libucrt:output.obj
 0001:00025e5e       ?adjust_hexit@?$output_processor@_WV?$string_output_adapter@_W@__crt_stdio_output@@V?$positional_parameter_base@_WV?$string_output_adapter@_W@__crt_stdio_output@@@2@@__crt_stdio_output@@CADH_N@Z 10026e5e f i libucrt:output.obj
 0001:00025e72       ?adjust_hexit@?$output_processor@_WV?$string_output_adapter@_W@__crt_stdio_output@@V?$standard_base@_WV?$string_output_adapter@_W@__crt_stdio_output@@@2@@__crt_stdio_output@@CADH_N@Z 10026e72 f i libucrt:output.obj
 0001:00025e86       ?advance_to_next_pass@?$positional_parameter_base@DV?$stream_output_adapter@D@__crt_stdio_output@@@__crt_stdio_output@@IAE_NXZ 10026e86 f i libucrt:output.obj
 0001:00025ed4       ?advance_to_next_pass@?$positional_parameter_base@DV?$string_output_adapter@D@__crt_stdio_output@@@__crt_stdio_output@@IAE_NXZ 10026ed4 f i libucrt:output.obj
 0001:00025f22       ?advance_to_next_pass@?$positional_parameter_base@_WV?$stream_output_adapter@_W@__crt_stdio_output@@@__crt_stdio_output@@IAE_NXZ 10026f22 f i libucrt:output.obj
 0001:00025f70       ?advance_to_next_pass@?$positional_parameter_base@_WV?$string_output_adapter@_W@__crt_stdio_output@@@__crt_stdio_output@@IAE_NXZ 10026f70 f i libucrt:output.obj
 0001:00025fbe       ?advance_to_next_pass@?$standard_base@DV?$stream_output_adapter@D@__crt_stdio_output@@@__crt_stdio_output@@IAE_NXZ 10026fbe f i libucrt:output.obj
 0001:00025fcf       ?advance_to_next_pass@?$standard_base@DV?$string_output_adapter@D@__crt_stdio_output@@@__crt_stdio_output@@IAE_NXZ 10026fcf f i libucrt:output.obj
 0001:00025fe0       ?advance_to_next_pass@?$standard_base@_WV?$stream_output_adapter@_W@__crt_stdio_output@@@__crt_stdio_output@@IAE_NXZ 10026fe0 f i libucrt:output.obj
 0001:00025ff1       ?advance_to_next_pass@?$standard_base@_WV?$string_output_adapter@_W@__crt_stdio_output@@@__crt_stdio_output@@IAE_NXZ 10026ff1 f i libucrt:output.obj
 0001:00026002       ?check@?$cached@H@__crt_cached_ptd_host@@QBE_NH@Z 10027002 f i libucrt:output.obj
 0001:0002601e       ?create_guard@?$cached@H@__crt_cached_ptd_host@@QAE?AVguard@12@XZ 1002701e f i libucrt:output.obj
 0001:0002603b       ?crop_zeroes@__crt_stdio_output@@YAXPADQAU__crt_locale_pointers@@@Z 1002703b f i libucrt:output.obj
 0001:0002609b       ?disable@guard@?$cached@H@__crt_cached_ptd_host@@QAEXXZ 1002709b f i libucrt:output.obj
 0001:000260a0       ?enable@guard@?$cached@H@__crt_cached_ptd_host@@QAEXXZ 100270a0 f i libucrt:output.obj
 0001:000260a5       ?find_next_state@?$output_processor@DV?$stream_output_adapter@D@__crt_stdio_output@@V?$format_validation_base@DV?$stream_output_adapter@D@__crt_stdio_output@@@2@@__crt_stdio_output@@ABE?AW4state@2@DW432@@Z 100270a5 f i libucrt:output.obj
 0001:000260e2       ?find_next_state@?$output_processor@DV?$stream_output_adapter@D@__crt_stdio_output@@V?$positional_parameter_base@DV?$stream_output_adapter@D@__crt_stdio_output@@@2@@__crt_stdio_output@@ABE?AW4state@2@DW432@@Z 100270e2 f i libucrt:output.obj
 0001:0002611f       ?find_next_state@?$output_processor@DV?$stream_output_adapter@D@__crt_stdio_output@@V?$standard_base@DV?$stream_output_adapter@D@__crt_stdio_output@@@2@@__crt_stdio_output@@ABE?AW4state@2@DW432@@Z 1002711f f i libucrt:output.obj
 0001:0002615a       ?find_next_state@?$output_processor@DV?$string_output_adapter@D@__crt_stdio_output@@V?$format_validation_base@DV?$string_output_adapter@D@__crt_stdio_output@@@2@@__crt_stdio_output@@ABE?AW4state@2@DW432@@Z 1002715a f i libucrt:output.obj
 0001:00026197       ?find_next_state@?$output_processor@DV?$string_output_adapter@D@__crt_stdio_output@@V?$positional_parameter_base@DV?$string_output_adapter@D@__crt_stdio_output@@@2@@__crt_stdio_output@@ABE?AW4state@2@DW432@@Z 10027197 f i libucrt:output.obj
 0001:000261d4       ?find_next_state@?$output_processor@DV?$string_output_adapter@D@__crt_stdio_output@@V?$standard_base@DV?$string_output_adapter@D@__crt_stdio_output@@@2@@__crt_stdio_output@@ABE?AW4state@2@DW432@@Z 100271d4 f i libucrt:output.obj
 0001:0002620f       ?find_next_state@?$output_processor@_WV?$stream_output_adapter@_W@__crt_stdio_output@@V?$format_validation_base@_WV?$stream_output_adapter@_W@__crt_stdio_output@@@2@@__crt_stdio_output@@ABE?AW4state@2@_WW432@@Z 1002720f f i libucrt:output.obj
 0001:0002624b       ?find_next_state@?$output_processor@_WV?$stream_output_adapter@_W@__crt_stdio_output@@V?$positional_parameter_base@_WV?$stream_output_adapter@_W@__crt_stdio_output@@@2@@__crt_stdio_output@@ABE?AW4state@2@_WW432@@Z 1002724b f i libucrt:output.obj
 0001:00026287       ?find_next_state@?$output_processor@_WV?$stream_output_adapter@_W@__crt_stdio_output@@V?$standard_base@_WV?$stream_output_adapter@_W@__crt_stdio_output@@@2@@__crt_stdio_output@@ABE?AW4state@2@_WW432@@Z 10027287 f i libucrt:output.obj
 0001:000262c1       ?find_next_state@?$output_processor@_WV?$string_output_adapter@_W@__crt_stdio_output@@V?$format_validation_base@_WV?$string_output_adapter@_W@__crt_stdio_output@@@2@@__crt_stdio_output@@ABE?AW4state@2@_WW432@@Z 100272c1 f i libucrt:output.obj
 0001:000262fd       ?find_next_state@?$output_processor@_WV?$string_output_adapter@_W@__crt_stdio_output@@V?$positional_parameter_base@_WV?$string_output_adapter@_W@__crt_stdio_output@@@2@@__crt_stdio_output@@ABE?AW4state@2@_WW432@@Z 100272fd f i libucrt:output.obj
 0001:00026339       ?find_next_state@?$output_processor@_WV?$string_output_adapter@_W@__crt_stdio_output@@V?$standard_base@_WV?$string_output_adapter@_W@__crt_stdio_output@@@2@@__crt_stdio_output@@ABE?AW4state@2@_WW432@@Z 10027339 f i libucrt:output.obj
 0001:00026373       ?force_decimal_point@__crt_stdio_output@@YAXPADQAU__crt_locale_pointers@@@Z 10027373 f i libucrt:output.obj
 0001:000263cf       ?get@?$c_string_character_source@D@__crt_strtox@@QAEDXZ 100273cf f i libucrt:output.obj
 0001:000263d7       ?get@?$c_string_character_source@_W@__crt_strtox@@QAE_WXZ 100273d7 f i libucrt:output.obj
 0001:000263e2       ?get_flags@__crt_stdio_stream@@QBEJXZ 100273e2 f i libucrt:output.obj
 0001:000263f0       ?get_locale@__crt_cached_ptd_host@@QAEPAU__crt_locale_pointers@@XZ 100273f0 f i libucrt:output.obj
 0001:00026405       ?get_parameter_type@?$positional_parameter_base@DV?$stream_output_adapter@D@__crt_stdio_output@@@__crt_stdio_output@@CA?AW4parameter_type@12@F@Z 10027405 f i libucrt:output.obj
 0001:00026409       ?get_parameter_type@?$positional_parameter_base@DV?$stream_output_adapter@D@__crt_stdio_output@@@__crt_stdio_output@@CA?AW4parameter_type@12@G@Z 10027409 f i libucrt:output.obj
 0001:0002640d       ?get_parameter_type@?$positional_parameter_base@DV?$stream_output_adapter@D@__crt_stdio_output@@@__crt_stdio_output@@CA?AW4parameter_type@12@H@Z 1002740d f i libucrt:output.obj
 0001:00026411       ?get_parameter_type@?$positional_parameter_base@DV?$stream_output_adapter@D@__crt_stdio_output@@@__crt_stdio_output@@CA?AW4parameter_type@12@I@Z 10027411 f i libucrt:output.obj
 0001:00026415       ?get_parameter_type@?$positional_parameter_base@DV?$stream_output_adapter@D@__crt_stdio_output@@@__crt_stdio_output@@CA?AW4parameter_type@12@U_CRT_DOUBLE@@@Z 10027415 f i libucrt:output.obj
 0001:00026419       ?get_parameter_type@?$positional_parameter_base@DV?$stream_output_adapter@D@__crt_stdio_output@@@__crt_stdio_output@@CA?AW4parameter_type@12@_J@Z 10027419 f i libucrt:output.obj
 0001:0002641d       ?get_parameter_type@?$positional_parameter_base@DV?$stream_output_adapter@D@__crt_stdio_output@@@__crt_stdio_output@@CA?AW4parameter_type@12@_K@Z 1002741d f i libucrt:output.obj
 0001:00026421       ?get_parameter_type@?$positional_parameter_base@DV?$stream_output_adapter@D@__crt_stdio_output@@@__crt_stdio_output@@CA?AW4parameter_type@12@_W@Z 10027421 f i libucrt:output.obj
 0001:00026425       ?get_parameter_type@?$positional_parameter_base@DV?$string_output_adapter@D@__crt_stdio_output@@@__crt_stdio_output@@CA?AW4parameter_type@12@F@Z 10027425 f i libucrt:output.obj
 0001:00026429       ?get_parameter_type@?$positional_parameter_base@DV?$string_output_adapter@D@__crt_stdio_output@@@__crt_stdio_output@@CA?AW4parameter_type@12@G@Z 10027429 f i libucrt:output.obj
 0001:0002642d       ?get_parameter_type@?$positional_parameter_base@DV?$string_output_adapter@D@__crt_stdio_output@@@__crt_stdio_output@@CA?AW4parameter_type@12@H@Z 1002742d f i libucrt:output.obj
 0001:00026431       ?get_parameter_type@?$positional_parameter_base@DV?$string_output_adapter@D@__crt_stdio_output@@@__crt_stdio_output@@CA?AW4parameter_type@12@I@Z 10027431 f i libucrt:output.obj
 0001:00026435       ?get_parameter_type@?$positional_parameter_base@DV?$string_output_adapter@D@__crt_stdio_output@@@__crt_stdio_output@@CA?AW4parameter_type@12@U_CRT_DOUBLE@@@Z 10027435 f i libucrt:output.obj
 0001:00026439       ?get_parameter_type@?$positional_parameter_base@DV?$string_output_adapter@D@__crt_stdio_output@@@__crt_stdio_output@@CA?AW4parameter_type@12@_J@Z 10027439 f i libucrt:output.obj
 0001:0002643d       ?get_parameter_type@?$positional_parameter_base@DV?$string_output_adapter@D@__crt_stdio_output@@@__crt_stdio_output@@CA?AW4parameter_type@12@_K@Z 1002743d f i libucrt:output.obj
 0001:00026441       ?get_parameter_type@?$positional_parameter_base@DV?$string_output_adapter@D@__crt_stdio_output@@@__crt_stdio_output@@CA?AW4parameter_type@12@_W@Z 10027441 f i libucrt:output.obj
 0001:00026445       ?get_parameter_type@?$positional_parameter_base@_WV?$stream_output_adapter@_W@__crt_stdio_output@@@__crt_stdio_output@@CA?AW4parameter_type@12@F@Z 10027445 f i libucrt:output.obj
 0001:00026449       ?get_parameter_type@?$positional_parameter_base@_WV?$stream_output_adapter@_W@__crt_stdio_output@@@__crt_stdio_output@@CA?AW4parameter_type@12@G@Z 10027449 f i libucrt:output.obj
 0001:0002644d       ?get_parameter_type@?$positional_parameter_base@_WV?$stream_output_adapter@_W@__crt_stdio_output@@@__crt_stdio_output@@CA?AW4parameter_type@12@H@Z 1002744d f i libucrt:output.obj
 0001:00026451       ?get_parameter_type@?$positional_parameter_base@_WV?$stream_output_adapter@_W@__crt_stdio_output@@@__crt_stdio_output@@CA?AW4parameter_type@12@I@Z 10027451 f i libucrt:output.obj
 0001:00026455       ?get_parameter_type@?$positional_parameter_base@_WV?$stream_output_adapter@_W@__crt_stdio_output@@@__crt_stdio_output@@CA?AW4parameter_type@12@U_CRT_DOUBLE@@@Z 10027455 f i libucrt:output.obj
 0001:00026459       ?get_parameter_type@?$positional_parameter_base@_WV?$stream_output_adapter@_W@__crt_stdio_output@@@__crt_stdio_output@@CA?AW4parameter_type@12@_J@Z 10027459 f i libucrt:output.obj
 0001:0002645d       ?get_parameter_type@?$positional_parameter_base@_WV?$stream_output_adapter@_W@__crt_stdio_output@@@__crt_stdio_output@@CA?AW4parameter_type@12@_K@Z 1002745d f i libucrt:output.obj
 0001:00026461       ?get_parameter_type@?$positional_parameter_base@_WV?$stream_output_adapter@_W@__crt_stdio_output@@@__crt_stdio_output@@CA?AW4parameter_type@12@_W@Z 10027461 f i libucrt:output.obj
 0001:00026465       ?get_parameter_type@?$positional_parameter_base@_WV?$string_output_adapter@_W@__crt_stdio_output@@@__crt_stdio_output@@CA?AW4parameter_type@12@F@Z 10027465 f i libucrt:output.obj
 0001:00026469       ?get_parameter_type@?$positional_parameter_base@_WV?$string_output_adapter@_W@__crt_stdio_output@@@__crt_stdio_output@@CA?AW4parameter_type@12@G@Z 10027469 f i libucrt:output.obj
 0001:0002646d       ?get_parameter_type@?$positional_parameter_base@_WV?$string_output_adapter@_W@__crt_stdio_output@@@__crt_stdio_output@@CA?AW4parameter_type@12@H@Z 1002746d f i libucrt:output.obj
 0001:00026471       ?get_parameter_type@?$positional_parameter_base@_WV?$string_output_adapter@_W@__crt_stdio_output@@@__crt_stdio_output@@CA?AW4parameter_type@12@I@Z 10027471 f i libucrt:output.obj
 0001:00026475       ?get_parameter_type@?$positional_parameter_base@_WV?$string_output_adapter@_W@__crt_stdio_output@@@__crt_stdio_output@@CA?AW4parameter_type@12@U_CRT_DOUBLE@@@Z 10027475 f i libucrt:output.obj
 0001:00026479       ?get_parameter_type@?$positional_parameter_base@_WV?$string_output_adapter@_W@__crt_stdio_output@@@__crt_stdio_output@@CA?AW4parameter_type@12@_J@Z 10027479 f i libucrt:output.obj
 0001:0002647d       ?get_parameter_type@?$positional_parameter_base@_WV?$string_output_adapter@_W@__crt_stdio_output@@@__crt_stdio_output@@CA?AW4parameter_type@12@_K@Z 1002747d f i libucrt:output.obj
 0001:00026481       ?get_parameter_type@?$positional_parameter_base@_WV?$string_output_adapter@_W@__crt_stdio_output@@@__crt_stdio_output@@CA?AW4parameter_type@12@_W@Z 10027481 f i libucrt:output.obj
 0001:00026485       ?has_flag@?$output_processor@DV?$stream_output_adapter@D@__crt_stdio_output@@V?$format_validation_base@DV?$stream_output_adapter@D@__crt_stdio_output@@@2@@__crt_stdio_output@@ABE_NI@Z 10027485 f i libucrt:output.obj
 0001:00026497       ?has_flag@?$output_processor@DV?$stream_output_adapter@D@__crt_stdio_output@@V?$positional_parameter_base@DV?$stream_output_adapter@D@__crt_stdio_output@@@2@@__crt_stdio_output@@ABE_NI@Z 10027497 f i libucrt:output.obj
 0001:000264a9       ?has_flag@?$output_processor@DV?$stream_output_adapter@D@__crt_stdio_output@@V?$standard_base@DV?$stream_output_adapter@D@__crt_stdio_output@@@2@@__crt_stdio_output@@ABE_NI@Z 100274a9 f i libucrt:output.obj
 0001:000264bb       ?has_flag@?$output_processor@DV?$string_output_adapter@D@__crt_stdio_output@@V?$format_validation_base@DV?$string_output_adapter@D@__crt_stdio_output@@@2@@__crt_stdio_output@@ABE_NI@Z 100274bb f i libucrt:output.obj
 0001:000264cd       ?has_flag@?$output_processor@DV?$string_output_adapter@D@__crt_stdio_output@@V?$positional_parameter_base@DV?$string_output_adapter@D@__crt_stdio_output@@@2@@__crt_stdio_output@@ABE_NI@Z 100274cd f i libucrt:output.obj
 0001:000264df       ?has_flag@?$output_processor@DV?$string_output_adapter@D@__crt_stdio_output@@V?$standard_base@DV?$string_output_adapter@D@__crt_stdio_output@@@2@@__crt_stdio_output@@ABE_NI@Z 100274df f i libucrt:output.obj
 0001:000264f1       ?has_flag@?$output_processor@_WV?$stream_output_adapter@_W@__crt_stdio_output@@V?$format_validation_base@_WV?$stream_output_adapter@_W@__crt_stdio_output@@@2@@__crt_stdio_output@@ABE_NI@Z 100274f1 f i libucrt:output.obj
 0001:00026503       ?has_flag@?$output_processor@_WV?$stream_output_adapter@_W@__crt_stdio_output@@V?$positional_parameter_base@_WV?$stream_output_adapter@_W@__crt_stdio_output@@@2@@__crt_stdio_output@@ABE_NI@Z 10027503 f i libucrt:output.obj
 0001:00026515       ?has_flag@?$output_processor@_WV?$stream_output_adapter@_W@__crt_stdio_output@@V?$standard_base@_WV?$stream_output_adapter@_W@__crt_stdio_output@@@2@@__crt_stdio_output@@ABE_NI@Z 10027515 f i libucrt:output.obj
 0001:00026527       ?has_flag@?$output_processor@_WV?$string_output_adapter@_W@__crt_stdio_output@@V?$format_validation_base@_WV?$string_output_adapter@_W@__crt_stdio_output@@@2@@__crt_stdio_output@@ABE_NI@Z 10027527 f i libucrt:output.obj
 0001:00026539       ?has_flag@?$output_processor@_WV?$string_output_adapter@_W@__crt_stdio_output@@V?$positional_parameter_base@_WV?$string_output_adapter@_W@__crt_stdio_output@@@2@@__crt_stdio_output@@ABE_NI@Z 10027539 f i libucrt:output.obj
 0001:0002654b       ?has_flag@?$output_processor@_WV?$string_output_adapter@_W@__crt_stdio_output@@V?$standard_base@_WV?$string_output_adapter@_W@__crt_stdio_output@@@2@@__crt_stdio_output@@ABE_NI@Z 1002754b f i libucrt:output.obj
 0001:0002655d       ?is_positional_parameter_reappearance_consistent@?$positional_parameter_base@DV?$stream_output_adapter@D@__crt_stdio_output@@@__crt_stdio_output@@AAE_NABUparameter_data@12@W4parameter_type@12@DW4length_modifier@2@@Z 1002755d f i libucrt:output.obj
 0001:00026677       ?is_positional_parameter_reappearance_consistent@?$positional_parameter_base@DV?$string_output_adapter@D@__crt_stdio_output@@@__crt_stdio_output@@AAE_NABUparameter_data@12@W4parameter_type@12@DW4length_modifier@2@@Z 10027677 f i libucrt:output.obj
 0001:00026791       ?is_positional_parameter_reappearance_consistent@?$positional_parameter_base@_WV?$stream_output_adapter@_W@__crt_stdio_output@@@__crt_stdio_output@@AAE_NABUparameter_data@12@W4parameter_type@12@_WW4length_modifier@2@@Z 10027791 f i libucrt:output.obj
 0001:000268ac       ?is_positional_parameter_reappearance_consistent@?$positional_parameter_base@_WV?$string_output_adapter@_W@__crt_stdio_output@@@__crt_stdio_output@@AAE_NABUparameter_data@12@W4parameter_type@12@_WW4length_modifier@2@@Z 100278ac f i libucrt:output.obj
 0001:000269c7       ?is_string_backed@__crt_stdio_stream@@QBE_NXZ 100279c7 f i libucrt:output.obj
 0001:000269d3       ?maximum_signed_value@__crt_strtox@@YAJK@Z 100279d3 f i libucrt:output.obj
 0001:000269d9       ?minimum_signed_value@__crt_strtox@@YAJK@Z 100279d9 f i libucrt:output.obj
 0001:000269df       ?narrow_null_string@?$output_processor@DV?$stream_output_adapter@D@__crt_stdio_output@@V?$format_validation_base@DV?$stream_output_adapter@D@__crt_stdio_output@@@2@@__crt_stdio_output@@CAPADXZ 100279df f i libucrt:output.obj
 0001:000269e5       ?narrow_null_string@?$output_processor@DV?$stream_output_adapter@D@__crt_stdio_output@@V?$positional_parameter_base@DV?$stream_output_adapter@D@__crt_stdio_output@@@2@@__crt_stdio_output@@CAPADXZ 100279e5 f i libucrt:output.obj
 0001:000269eb       ?narrow_null_string@?$output_processor@DV?$stream_output_adapter@D@__crt_stdio_output@@V?$standard_base@DV?$stream_output_adapter@D@__crt_stdio_output@@@2@@__crt_stdio_output@@CAPADXZ 100279eb f i libucrt:output.obj
 0001:000269f1       ?narrow_null_string@?$output_processor@DV?$string_output_adapter@D@__crt_stdio_output@@V?$format_validation_base@DV?$string_output_adapter@D@__crt_stdio_output@@@2@@__crt_stdio_output@@CAPADXZ 100279f1 f i libucrt:output.obj
 0001:000269f7       ?narrow_null_string@?$output_processor@DV?$string_output_adapter@D@__crt_stdio_output@@V?$positional_parameter_base@DV?$string_output_adapter@D@__crt_stdio_output@@@2@@__crt_stdio_output@@CAPADXZ 100279f7 f i libucrt:output.obj
 0001:000269fd       ?narrow_null_string@?$output_processor@DV?$string_output_adapter@D@__crt_stdio_output@@V?$standard_base@DV?$string_output_adapter@D@__crt_stdio_output@@@2@@__crt_stdio_output@@CAPADXZ 100279fd f i libucrt:output.obj
 0001:00026a03       ?narrow_null_string@?$output_processor@_WV?$stream_output_adapter@_W@__crt_stdio_output@@V?$format_validation_base@_WV?$stream_output_adapter@_W@__crt_stdio_output@@@2@@__crt_stdio_output@@CAPADXZ 10027a03 f i libucrt:output.obj
 0001:00026a09       ?narrow_null_string@?$output_processor@_WV?$stream_output_adapter@_W@__crt_stdio_output@@V?$positional_parameter_base@_WV?$stream_output_adapter@_W@__crt_stdio_output@@@2@@__crt_stdio_output@@CAPADXZ 10027a09 f i libucrt:output.obj
 0001:00026a0f       ?narrow_null_string@?$output_processor@_WV?$stream_output_adapter@_W@__crt_stdio_output@@V?$standard_base@_WV?$stream_output_adapter@_W@__crt_stdio_output@@@2@@__crt_stdio_output@@CAPADXZ 10027a0f f i libucrt:output.obj
 0001:00026a15       ?narrow_null_string@?$output_processor@_WV?$string_output_adapter@_W@__crt_stdio_output@@V?$format_validation_base@_WV?$string_output_adapter@_W@__crt_stdio_output@@@2@@__crt_stdio_output@@CAPADXZ 10027a15 f i libucrt:output.obj
 0001:00026a1b       ?narrow_null_string@?$output_processor@_WV?$string_output_adapter@_W@__crt_stdio_output@@V?$positional_parameter_base@_WV?$string_output_adapter@_W@__crt_stdio_output@@@2@@__crt_stdio_output@@CAPADXZ 10027a1b f i libucrt:output.obj
 0001:00026a21       ?narrow_null_string@?$output_processor@_WV?$string_output_adapter@_W@__crt_stdio_output@@V?$standard_base@_WV?$string_output_adapter@_W@__crt_stdio_output@@@2@@__crt_stdio_output@@CAPADXZ 10027a21 f i libucrt:output.obj
 0001:00026a27       ?parse_digit@__crt_strtox@@YAID@Z 10027a27 f i libucrt:output.obj
 0001:00026a61       ?parse_digit@__crt_strtox@@YAI_W@Z 10027a61 f i libucrt:output.obj
 0001:00026c29       ?parse_int_from_format_string@?$output_processor@DV?$stream_output_adapter@D@__crt_stdio_output@@V?$format_validation_base@DV?$stream_output_adapter@D@__crt_stdio_output@@@2@@__crt_stdio_output@@AAE_NQAH@Z 10027c29 f i libucrt:output.obj
 0001:00026ca1       ?parse_int_from_format_string@?$output_processor@DV?$stream_output_adapter@D@__crt_stdio_output@@V?$positional_parameter_base@DV?$stream_output_adapter@D@__crt_stdio_output@@@2@@__crt_stdio_output@@AAE_NQAH@Z 10027ca1 f i libucrt:output.obj
 0001:00026d19       ?parse_int_from_format_string@?$output_processor@DV?$stream_output_adapter@D@__crt_stdio_output@@V?$standard_base@DV?$stream_output_adapter@D@__crt_stdio_output@@@2@@__crt_stdio_output@@AAE_NQAH@Z 10027d19 f i libucrt:output.obj
 0001:00026d91       ?parse_int_from_format_string@?$output_processor@DV?$string_output_adapter@D@__crt_stdio_output@@V?$format_validation_base@DV?$string_output_adapter@D@__crt_stdio_output@@@2@@__crt_stdio_output@@AAE_NQAH@Z 10027d91 f i libucrt:output.obj
 0001:00026e09       ?parse_int_from_format_string@?$output_processor@DV?$string_output_adapter@D@__crt_stdio_output@@V?$positional_parameter_base@DV?$string_output_adapter@D@__crt_stdio_output@@@2@@__crt_stdio_output@@AAE_NQAH@Z 10027e09 f i libucrt:output.obj
 0001:00026e81       ?parse_int_from_format_string@?$output_processor@DV?$string_output_adapter@D@__crt_stdio_output@@V?$standard_base@DV?$string_output_adapter@D@__crt_stdio_output@@@2@@__crt_stdio_output@@AAE_NQAH@Z 10027e81 f i libucrt:output.obj
 0001:00026ef9       ?parse_int_from_format_string@?$output_processor@_WV?$stream_output_adapter@_W@__crt_stdio_output@@V?$format_validation_base@_WV?$stream_output_adapter@_W@__crt_stdio_output@@@2@@__crt_stdio_output@@AAE_NQAH@Z 10027ef9 f i libucrt:output.obj
 0001:00026f73       ?parse_int_from_format_string@?$output_processor@_WV?$stream_output_adapter@_W@__crt_stdio_output@@V?$positional_parameter_base@_WV?$stream_output_adapter@_W@__crt_stdio_output@@@2@@__crt_stdio_output@@AAE_NQAH@Z 10027f73 f i libucrt:output.obj
 0001:00026fed       ?parse_int_from_format_string@?$output_processor@_WV?$stream_output_adapter@_W@__crt_stdio_output@@V?$standard_base@_WV?$stream_output_adapter@_W@__crt_stdio_output@@@2@@__crt_stdio_output@@AAE_NQAH@Z 10027fed f i libucrt:output.obj
 0001:00027067       ?parse_int_from_format_string@?$output_processor@_WV?$string_output_adapter@_W@__crt_stdio_output@@V?$format_validation_base@_WV?$string_output_adapter@_W@__crt_stdio_output@@@2@@__crt_stdio_output@@AAE_NQAH@Z 10028067 f i libucrt:output.obj
 0001:000270e1       ?parse_int_from_format_string@?$output_processor@_WV?$string_output_adapter@_W@__crt_stdio_output@@V?$positional_parameter_base@_WV?$string_output_adapter@_W@__crt_stdio_output@@@2@@__crt_stdio_output@@AAE_NQAH@Z 100280e1 f i libucrt:output.obj
 0001:0002715b       ?parse_int_from_format_string@?$output_processor@_WV?$string_output_adapter@_W@__crt_stdio_output@@V?$standard_base@_WV?$string_output_adapter@_W@__crt_stdio_output@@@2@@__crt_stdio_output@@AAE_NQAH@Z 1002815b f i libucrt:output.obj
 0001:000271d5       ?process@?$output_processor@DV?$stream_output_adapter@D@__crt_stdio_output@@V?$format_validation_base@DV?$stream_output_adapter@D@__crt_stdio_output@@@2@@__crt_stdio_output@@QAEHXZ 100281d5 f i libucrt:output.obj
 0001:00027495       ?process@?$output_processor@DV?$stream_output_adapter@D@__crt_stdio_output@@V?$positional_parameter_base@DV?$stream_output_adapter@D@__crt_stdio_output@@@2@@__crt_stdio_output@@QAEHXZ 10028495 f i libucrt:output.obj
 0001:00027769       ?process@?$output_processor@DV?$stream_output_adapter@D@__crt_stdio_output@@V?$standard_base@DV?$stream_output_adapter@D@__crt_stdio_output@@@2@@__crt_stdio_output@@QAEHXZ 10028769 f i libucrt:output.obj
 0001:00027a19       ?process@?$output_processor@DV?$string_output_adapter@D@__crt_stdio_output@@V?$format_validation_base@DV?$string_output_adapter@D@__crt_stdio_output@@@2@@__crt_stdio_output@@QAEHXZ 10028a19 f i libucrt:output.obj
 0001:00027cfd       ?process@?$output_processor@DV?$string_output_adapter@D@__crt_stdio_output@@V?$positional_parameter_base@DV?$string_output_adapter@D@__crt_stdio_output@@@2@@__crt_stdio_output@@QAEHXZ 10028cfd f i libucrt:output.obj
 0001:00027ffd       ?process@?$output_processor@DV?$string_output_adapter@D@__crt_stdio_output@@V?$standard_base@DV?$string_output_adapter@D@__crt_stdio_output@@@2@@__crt_stdio_output@@QAEHXZ 10028ffd f i libucrt:output.obj
 0001:000282d1       ?process@?$output_processor@_WV?$stream_output_adapter@_W@__crt_stdio_output@@V?$format_validation_base@_WV?$stream_output_adapter@_W@__crt_stdio_output@@@2@@__crt_stdio_output@@QAEHXZ 100292d1 f i libucrt:output.obj
 0001:000284ed       ?process@?$output_processor@_WV?$stream_output_adapter@_W@__crt_stdio_output@@V?$positional_parameter_base@_WV?$stream_output_adapter@_W@__crt_stdio_output@@@2@@__crt_stdio_output@@QAEHXZ 100294ed f i libucrt:output.obj
 0001:00028741       ?process@?$output_processor@_WV?$stream_output_adapter@_W@__crt_stdio_output@@V?$standard_base@_WV?$stream_output_adapter@_W@__crt_stdio_output@@@2@@__crt_stdio_output@@QAEHXZ 10029741 f i libucrt:output.obj
 0001:00028951       ?process@?$output_processor@_WV?$string_output_adapter@_W@__crt_stdio_output@@V?$format_validation_base@_WV?$string_output_adapter@_W@__crt_stdio_output@@@2@@__crt_stdio_output@@QAEHXZ 10029951 f i libucrt:output.obj
 0001:00028b91       ?process@?$output_processor@_WV?$string_output_adapter@_W@__crt_stdio_output@@V?$positional_parameter_base@_WV?$string_output_adapter@_W@__crt_stdio_output@@@2@@__crt_stdio_output@@QAEHXZ 10029b91 f i libucrt:output.obj
 0001:00028df9       ?process@?$output_processor@_WV?$string_output_adapter@_W@__crt_stdio_output@@V?$standard_base@_WV?$string_output_adapter@_W@__crt_stdio_output@@@2@@__crt_stdio_output@@QAEHXZ 10029df9 f i libucrt:output.obj
 0001:00029035       ?public_stream@__crt_stdio_stream@@QBEPAU_iobuf@@XZ 1002a035 f i libucrt:output.obj
 0001:00029038       ?restore_state@?$c_string_character_source@D@__crt_strtox@@QAE_NQBD@Z 1002a038 f i libucrt:output.obj
 0001:00029048       ?restore_state@?$c_string_character_source@_W@__crt_strtox@@QAE_NQB_W@Z 1002a048 f i libucrt:output.obj
 0001:00029058       ?save_state@?$c_string_character_source@D@__crt_strtox@@QBEPBDXZ 1002a058 f i libucrt:output.obj
 0001:0002905b       ?save_state@?$c_string_character_source@_W@__crt_strtox@@QBEPB_WXZ 1002a05b f i libucrt:output.obj
 0001:0002905e       ?set_flag@?$output_processor@DV?$stream_output_adapter@D@__crt_stdio_output@@V?$format_validation_base@DV?$stream_output_adapter@D@__crt_stdio_output@@@2@@__crt_stdio_output@@AAEXI@Z 1002a05e f i libucrt:output.obj
 0001:0002906d       ?set_flag@?$output_processor@DV?$stream_output_adapter@D@__crt_stdio_output@@V?$positional_parameter_base@DV?$stream_output_adapter@D@__crt_stdio_output@@@2@@__crt_stdio_output@@AAEXI@Z 1002a06d f i libucrt:output.obj
 0001:0002907c       ?set_flag@?$output_processor@DV?$stream_output_adapter@D@__crt_stdio_output@@V?$standard_base@DV?$stream_output_adapter@D@__crt_stdio_output@@@2@@__crt_stdio_output@@AAEXI@Z 1002a07c f i libucrt:output.obj
 0001:0002908b       ?set_flag@?$output_processor@DV?$string_output_adapter@D@__crt_stdio_output@@V?$format_validation_base@DV?$string_output_adapter@D@__crt_stdio_output@@@2@@__crt_stdio_output@@AAEXI@Z 1002a08b f i libucrt:output.obj
 0001:0002909a       ?set_flag@?$output_processor@DV?$string_output_adapter@D@__crt_stdio_output@@V?$positional_parameter_base@DV?$string_output_adapter@D@__crt_stdio_output@@@2@@__crt_stdio_output@@AAEXI@Z 1002a09a f i libucrt:output.obj
 0001:000290a9       ?set_flag@?$output_processor@DV?$string_output_adapter@D@__crt_stdio_output@@V?$standard_base@DV?$string_output_adapter@D@__crt_stdio_output@@@2@@__crt_stdio_output@@AAEXI@Z 1002a0a9 f i libucrt:output.obj
 0001:000290b8       ?set_flag@?$output_processor@_WV?$stream_output_adapter@_W@__crt_stdio_output@@V?$format_validation_base@_WV?$stream_output_adapter@_W@__crt_stdio_output@@@2@@__crt_stdio_output@@AAEXI@Z 1002a0b8 f i libucrt:output.obj
 0001:000290c7       ?set_flag@?$output_processor@_WV?$stream_output_adapter@_W@__crt_stdio_output@@V?$positional_parameter_base@_WV?$stream_output_adapter@_W@__crt_stdio_output@@@2@@__crt_stdio_output@@AAEXI@Z 1002a0c7 f i libucrt:output.obj
 0001:000290d6       ?set_flag@?$output_processor@_WV?$stream_output_adapter@_W@__crt_stdio_output@@V?$standard_base@_WV?$stream_output_adapter@_W@__crt_stdio_output@@@2@@__crt_stdio_output@@AAEXI@Z 1002a0d6 f i libucrt:output.obj
 0001:000290e5       ?set_flag@?$output_processor@_WV?$string_output_adapter@_W@__crt_stdio_output@@V?$format_validation_base@_WV?$string_output_adapter@_W@__crt_stdio_output@@@2@@__crt_stdio_output@@AAEXI@Z 1002a0e5 f i libucrt:output.obj
 0001:000290f4       ?set_flag@?$output_processor@_WV?$string_output_adapter@_W@__crt_stdio_output@@V?$positional_parameter_base@_WV?$string_output_adapter@_W@__crt_stdio_output@@@2@@__crt_stdio_output@@AAEXI@Z 1002a0f4 f i libucrt:output.obj
 0001:00029103       ?set_flag@?$output_processor@_WV?$string_output_adapter@_W@__crt_stdio_output@@V?$standard_base@_WV?$string_output_adapter@_W@__crt_stdio_output@@@2@@__crt_stdio_output@@AAEXI@Z 1002a103 f i libucrt:output.obj
 0001:00029112       ?should_format@?$positional_parameter_base@DV?$stream_output_adapter@D@__crt_stdio_output@@@__crt_stdio_output@@IAE_NXZ 1002a112 f i libucrt:output.obj
 0001:00029128       ?should_format@?$positional_parameter_base@DV?$string_output_adapter@D@__crt_stdio_output@@@__crt_stdio_output@@IAE_NXZ 1002a128 f i libucrt:output.obj
 0001:0002913e       ?should_format@?$positional_parameter_base@_WV?$stream_output_adapter@_W@__crt_stdio_output@@@__crt_stdio_output@@IAE_NXZ 1002a13e f i libucrt:output.obj
 0001:00029154       ?should_format@?$positional_parameter_base@_WV?$string_output_adapter@_W@__crt_stdio_output@@@__crt_stdio_output@@IAE_NXZ 1002a154 f i libucrt:output.obj
 0001:0002916a       ?should_format@?$standard_base@DV?$stream_output_adapter@D@__crt_stdio_output@@@__crt_stdio_output@@IAE_NXZ 1002a16a f i libucrt:output.obj
 0001:0002916d       ?should_format@?$standard_base@DV?$string_output_adapter@D@__crt_stdio_output@@@__crt_stdio_output@@IAE_NXZ 1002a16d f i libucrt:output.obj
 0001:00029170       ?should_format@?$standard_base@_WV?$stream_output_adapter@_W@__crt_stdio_output@@@__crt_stdio_output@@IAE_NXZ 1002a170 f i libucrt:output.obj
 0001:00029173       ?should_format@?$standard_base@_WV?$string_output_adapter@_W@__crt_stdio_output@@@__crt_stdio_output@@IAE_NXZ 1002a173 f i libucrt:output.obj
 0001:00029176       ?should_skip_normal_state_processing@?$positional_parameter_base@DV?$stream_output_adapter@D@__crt_stdio_output@@@__crt_stdio_output@@IAE_NXZ 1002a176 f i libucrt:output.obj
 0001:000291a0       ?should_skip_normal_state_processing@?$positional_parameter_base@DV?$string_output_adapter@D@__crt_stdio_output@@@__crt_stdio_output@@IAE_NXZ 1002a1a0 f i libucrt:output.obj
 0001:000291ca       ?should_skip_normal_state_processing@?$positional_parameter_base@_WV?$stream_output_adapter@_W@__crt_stdio_output@@@__crt_stdio_output@@IAE_NXZ 1002a1ca f i libucrt:output.obj
 0001:000291f4       ?should_skip_normal_state_processing@?$positional_parameter_base@_WV?$string_output_adapter@_W@__crt_stdio_output@@@__crt_stdio_output@@IAE_NXZ 1002a1f4 f i libucrt:output.obj
 0001:0002921e       ?should_skip_normal_state_processing@?$standard_base@DV?$stream_output_adapter@D@__crt_stdio_output@@@__crt_stdio_output@@IAE_NXZ 1002a21e f i libucrt:output.obj
 0001:00029221       ?should_skip_normal_state_processing@?$standard_base@DV?$string_output_adapter@D@__crt_stdio_output@@@__crt_stdio_output@@IAE_NXZ 1002a221 f i libucrt:output.obj
 0001:00029224       ?should_skip_normal_state_processing@?$standard_base@_WV?$stream_output_adapter@_W@__crt_stdio_output@@@__crt_stdio_output@@IAE_NXZ 1002a224 f i libucrt:output.obj
 0001:00029227       ?should_skip_normal_state_processing@?$standard_base@_WV?$string_output_adapter@_W@__crt_stdio_output@@@__crt_stdio_output@@IAE_NXZ 1002a227 f i libucrt:output.obj
 0001:0002922a       ?should_skip_type_state_output@?$positional_parameter_base@DV?$stream_output_adapter@D@__crt_stdio_output@@@__crt_stdio_output@@IBE_NXZ 1002a22a f i libucrt:output.obj
 0001:00029241       ?should_skip_type_state_output@?$positional_parameter_base@DV?$string_output_adapter@D@__crt_stdio_output@@@__crt_stdio_output@@IBE_NXZ 1002a241 f i libucrt:output.obj
 0001:00029258       ?should_skip_type_state_output@?$positional_parameter_base@_WV?$stream_output_adapter@_W@__crt_stdio_output@@@__crt_stdio_output@@IBE_NXZ 1002a258 f i libucrt:output.obj
 0001:0002926f       ?should_skip_type_state_output@?$positional_parameter_base@_WV?$string_output_adapter@_W@__crt_stdio_output@@@__crt_stdio_output@@IBE_NXZ 1002a26f f i libucrt:output.obj
 0001:00029286       ?should_skip_type_state_output@?$standard_base@DV?$stream_output_adapter@D@__crt_stdio_output@@@__crt_stdio_output@@IBE_NXZ 1002a286 f i libucrt:output.obj
 0001:00029289       ?should_skip_type_state_output@?$standard_base@DV?$string_output_adapter@D@__crt_stdio_output@@@__crt_stdio_output@@IBE_NXZ 1002a289 f i libucrt:output.obj
 0001:0002928c       ?should_skip_type_state_output@?$standard_base@_WV?$stream_output_adapter@_W@__crt_stdio_output@@@__crt_stdio_output@@IBE_NXZ 1002a28c f i libucrt:output.obj
 0001:0002928f       ?should_skip_type_state_output@?$standard_base@_WV?$string_output_adapter@_W@__crt_stdio_output@@@__crt_stdio_output@@IBE_NXZ 1002a28f f i libucrt:output.obj
 0001:00029292       ?state_case_dot@?$output_processor@DV?$stream_output_adapter@D@__crt_stdio_output@@V?$format_validation_base@DV?$stream_output_adapter@D@__crt_stdio_output@@@2@@__crt_stdio_output@@AAE_NXZ 1002a292 f i libucrt:output.obj
 0001:00029299       ?state_case_dot@?$output_processor@DV?$stream_output_adapter@D@__crt_stdio_output@@V?$positional_parameter_base@DV?$stream_output_adapter@D@__crt_stdio_output@@@2@@__crt_stdio_output@@AAE_NXZ 1002a299 f i libucrt:output.obj
 0001:000292a0       ?state_case_dot@?$output_processor@DV?$stream_output_adapter@D@__crt_stdio_output@@V?$standard_base@DV?$stream_output_adapter@D@__crt_stdio_output@@@2@@__crt_stdio_output@@AAE_NXZ 1002a2a0 f i libucrt:output.obj
 0001:000292a7       ?state_case_dot@?$output_processor@DV?$string_output_adapter@D@__crt_stdio_output@@V?$format_validation_base@DV?$string_output_adapter@D@__crt_stdio_output@@@2@@__crt_stdio_output@@AAE_NXZ 1002a2a7 f i libucrt:output.obj
 0001:000292ae       ?state_case_dot@?$output_processor@DV?$string_output_adapter@D@__crt_stdio_output@@V?$positional_parameter_base@DV?$string_output_adapter@D@__crt_stdio_output@@@2@@__crt_stdio_output@@AAE_NXZ 1002a2ae f i libucrt:output.obj
 0001:000292b5       ?state_case_dot@?$output_processor@DV?$string_output_adapter@D@__crt_stdio_output@@V?$standard_base@DV?$string_output_adapter@D@__crt_stdio_output@@@2@@__crt_stdio_output@@AAE_NXZ 1002a2b5 f i libucrt:output.obj
 0001:000292bc       ?state_case_dot@?$output_processor@_WV?$stream_output_adapter@_W@__crt_stdio_output@@V?$format_validation_base@_WV?$stream_output_adapter@_W@__crt_stdio_output@@@2@@__crt_stdio_output@@AAE_NXZ 1002a2bc f i libucrt:output.obj
 0001:000292c3       ?state_case_dot@?$output_processor@_WV?$stream_output_adapter@_W@__crt_stdio_output@@V?$positional_parameter_base@_WV?$stream_output_adapter@_W@__crt_stdio_output@@@2@@__crt_stdio_output@@AAE_NXZ 1002a2c3 f i libucrt:output.obj
 0001:000292ca       ?state_case_dot@?$output_processor@_WV?$stream_output_adapter@_W@__crt_stdio_output@@V?$standard_base@_WV?$stream_output_adapter@_W@__crt_stdio_output@@@2@@__crt_stdio_output@@AAE_NXZ 1002a2ca f i libucrt:output.obj
 0001:000292d1       ?state_case_dot@?$output_processor@_WV?$string_output_adapter@_W@__crt_stdio_output@@V?$format_validation_base@_WV?$string_output_adapter@_W@__crt_stdio_output@@@2@@__crt_stdio_output@@AAE_NXZ 1002a2d1 f i libucrt:output.obj
 0001:000292d8       ?state_case_dot@?$output_processor@_WV?$string_output_adapter@_W@__crt_stdio_output@@V?$positional_parameter_base@_WV?$string_output_adapter@_W@__crt_stdio_output@@@2@@__crt_stdio_output@@AAE_NXZ 1002a2d8 f i libucrt:output.obj
 0001:000292df       ?state_case_dot@?$output_processor@_WV?$string_output_adapter@_W@__crt_stdio_output@@V?$standard_base@_WV?$string_output_adapter@_W@__crt_stdio_output@@@2@@__crt_stdio_output@@AAE_NXZ 1002a2df f i libucrt:output.obj
 0001:000292e6       ?state_case_flag@?$output_processor@DV?$stream_output_adapter@D@__crt_stdio_output@@V?$format_validation_base@DV?$stream_output_adapter@D@__crt_stdio_output@@@2@@__crt_stdio_output@@AAE_NXZ 1002a2e6 f i libucrt:output.obj
 0001:00029323       ?state_case_flag@?$output_processor@DV?$stream_output_adapter@D@__crt_stdio_output@@V?$positional_parameter_base@DV?$stream_output_adapter@D@__crt_stdio_output@@@2@@__crt_stdio_output@@AAE_NXZ 1002a323 f i libucrt:output.obj
 0001:00029360       ?state_case_flag@?$output_processor@DV?$stream_output_adapter@D@__crt_stdio_output@@V?$standard_base@DV?$stream_output_adapter@D@__crt_stdio_output@@@2@@__crt_stdio_output@@AAE_NXZ 1002a360 f i libucrt:output.obj
 0001:0002939d       ?state_case_flag@?$output_processor@DV?$string_output_adapter@D@__crt_stdio_output@@V?$format_validation_base@DV?$string_output_adapter@D@__crt_stdio_output@@@2@@__crt_stdio_output@@AAE_NXZ 1002a39d f i libucrt:output.obj
 0001:000293da       ?state_case_flag@?$output_processor@DV?$string_output_adapter@D@__crt_stdio_output@@V?$positional_parameter_base@DV?$string_output_adapter@D@__crt_stdio_output@@@2@@__crt_stdio_output@@AAE_NXZ 1002a3da f i libucrt:output.obj
 0001:00029417       ?state_case_flag@?$output_processor@DV?$string_output_adapter@D@__crt_stdio_output@@V?$standard_base@DV?$string_output_adapter@D@__crt_stdio_output@@@2@@__crt_stdio_output@@AAE_NXZ 1002a417 f i libucrt:output.obj
 0001:00029454       ?state_case_flag@?$output_processor@_WV?$stream_output_adapter@_W@__crt_stdio_output@@V?$format_validation_base@_WV?$stream_output_adapter@_W@__crt_stdio_output@@@2@@__crt_stdio_output@@AAE_NXZ 1002a454 f i libucrt:output.obj
 0001:00029491       ?state_case_flag@?$output_processor@_WV?$stream_output_adapter@_W@__crt_stdio_output@@V?$positional_parameter_base@_WV?$stream_output_adapter@_W@__crt_stdio_output@@@2@@__crt_stdio_output@@AAE_NXZ 1002a491 f i libucrt:output.obj
 0001:000294ce       ?state_case_flag@?$output_processor@_WV?$stream_output_adapter@_W@__crt_stdio_output@@V?$standard_base@_WV?$stream_output_adapter@_W@__crt_stdio_output@@@2@@__crt_stdio_output@@AAE_NXZ 1002a4ce f i libucrt:output.obj
 0001:0002950b       ?state_case_flag@?$output_processor@_WV?$string_output_adapter@_W@__crt_stdio_output@@V?$format_validation_base@_WV?$string_output_adapter@_W@__crt_stdio_output@@@2@@__crt_stdio_output@@AAE_NXZ 1002a50b f i libucrt:output.obj
 0001:00029548       ?state_case_flag@?$output_processor@_WV?$string_output_adapter@_W@__crt_stdio_output@@V?$positional_parameter_base@_WV?$string_output_adapter@_W@__crt_stdio_output@@@2@@__crt_stdio_output@@AAE_NXZ 1002a548 f i libucrt:output.obj
 0001:00029585       ?state_case_flag@?$output_processor@_WV?$string_output_adapter@_W@__crt_stdio_output@@V?$standard_base@_WV?$string_output_adapter@_W@__crt_stdio_output@@@2@@__crt_stdio_output@@AAE_NXZ 1002a585 f i libucrt:output.obj
 0001:000295c2       ?state_case_normal@?$output_processor@DV?$stream_output_adapter@D@__crt_stdio_output@@V?$format_validation_base@DV?$stream_output_adapter@D@__crt_stdio_output@@@2@@__crt_stdio_output@@AAE_NXZ 1002a5c2 f i libucrt:output.obj
 0001:0002967f       ?state_case_normal@?$output_processor@DV?$stream_output_adapter@D@__crt_stdio_output@@V?$positional_parameter_base@DV?$stream_output_adapter@D@__crt_stdio_output@@@2@@__crt_stdio_output@@AAE_NXZ 1002a67f f i libucrt:output.obj
 0001:00029747       ?state_case_normal@?$output_processor@DV?$stream_output_adapter@D@__crt_stdio_output@@V?$standard_base@DV?$stream_output_adapter@D@__crt_stdio_output@@@2@@__crt_stdio_output@@AAE_NXZ 1002a747 f i libucrt:output.obj
 0001:00029804       ?state_case_normal@?$output_processor@DV?$string_output_adapter@D@__crt_stdio_output@@V?$format_validation_base@DV?$string_output_adapter@D@__crt_stdio_output@@@2@@__crt_stdio_output@@AAE_NXZ 1002a804 f i libucrt:output.obj
 0001:00029900       ?state_case_normal@?$output_processor@DV?$string_output_adapter@D@__crt_stdio_output@@V?$positional_parameter_base@DV?$string_output_adapter@D@__crt_stdio_output@@@2@@__crt_stdio_output@@AAE_NXZ 1002a900 f i libucrt:output.obj
 0001:00029a07       ?state_case_normal@?$output_processor@DV?$string_output_adapter@D@__crt_stdio_output@@V?$standard_base@DV?$string_output_adapter@D@__crt_stdio_output@@@2@@__crt_stdio_output@@AAE_NXZ 1002aa07 f i libucrt:output.obj
 0001:00029b03       ?state_case_normal@?$output_processor@_WV?$stream_output_adapter@_W@__crt_stdio_output@@V?$format_validation_base@_WV?$stream_output_adapter@_W@__crt_stdio_output@@@2@@__crt_stdio_output@@AAE_NXZ 1002ab03 f i libucrt:output.obj
 0001:00029b21       ?state_case_normal@?$output_processor@_WV?$stream_output_adapter@_W@__crt_stdio_output@@V?$positional_parameter_base@_WV?$stream_output_adapter@_W@__crt_stdio_output@@@2@@__crt_stdio_output@@AAE_NXZ 1002ab21 f i libucrt:output.obj
 0001:00029b4e       ?state_case_normal@?$output_processor@_WV?$stream_output_adapter@_W@__crt_stdio_output@@V?$standard_base@_WV?$stream_output_adapter@_W@__crt_stdio_output@@@2@@__crt_stdio_output@@AAE_NXZ 1002ab4e f i libucrt:output.obj
 0001:00029b6c       ?state_case_normal@?$output_processor@_WV?$string_output_adapter@_W@__crt_stdio_output@@V?$format_validation_base@_WV?$string_output_adapter@_W@__crt_stdio_output@@@2@@__crt_stdio_output@@AAE_NXZ 1002ab6c f i libucrt:output.obj
 0001:00029bb4       ?state_case_normal@?$output_processor@_WV?$string_output_adapter@_W@__crt_stdio_output@@V?$positional_parameter_base@_WV?$string_output_adapter@_W@__crt_stdio_output@@@2@@__crt_stdio_output@@AAE_NXZ 1002abb4 f i libucrt:output.obj
 0001:00029c07       ?state_case_normal@?$output_processor@_WV?$string_output_adapter@_W@__crt_stdio_output@@V?$standard_base@_WV?$string_output_adapter@_W@__crt_stdio_output@@@2@@__crt_stdio_output@@AAE_NXZ 1002ac07 f i libucrt:output.obj
 0001:00029c4f       ?state_case_normal_common@?$output_processor@DV?$stream_output_adapter@D@__crt_stdio_output@@V?$format_validation_base@DV?$stream_output_adapter@D@__crt_stdio_output@@@2@@__crt_stdio_output@@AAE_NXZ 1002ac4f f i libucrt:output.obj
 0001:00029ce7       ?state_case_normal_common@?$output_processor@DV?$stream_output_adapter@D@__crt_stdio_output@@V?$positional_parameter_base@DV?$stream_output_adapter@D@__crt_stdio_output@@@2@@__crt_stdio_output@@AAE_NXZ 1002ace7 f i libucrt:output.obj
 0001:00029d7f       ?state_case_normal_common@?$output_processor@DV?$stream_output_adapter@D@__crt_stdio_output@@V?$standard_base@DV?$stream_output_adapter@D@__crt_stdio_output@@@2@@__crt_stdio_output@@AAE_NXZ 1002ad7f f i libucrt:output.obj
 0001:00029e17       ?state_case_normal_common@?$output_processor@DV?$string_output_adapter@D@__crt_stdio_output@@V?$format_validation_base@DV?$string_output_adapter@D@__crt_stdio_output@@@2@@__crt_stdio_output@@AAE_NXZ 1002ae17 f i libucrt:output.obj
 0001:00029ef7       ?state_case_normal_common@?$output_processor@DV?$string_output_adapter@D@__crt_stdio_output@@V?$positional_parameter_base@DV?$string_output_adapter@D@__crt_stdio_output@@@2@@__crt_stdio_output@@AAE_NXZ 1002aef7 f i libucrt:output.obj
 0001:00029fd7       ?state_case_normal_common@?$output_processor@DV?$string_output_adapter@D@__crt_stdio_output@@V?$standard_base@DV?$string_output_adapter@D@__crt_stdio_output@@@2@@__crt_stdio_output@@AAE_NXZ 1002afd7 f i libucrt:output.obj
 0001:0002a0b7       ?state_case_normal_common@?$output_processor@_WV?$stream_output_adapter@_W@__crt_stdio_output@@V?$format_validation_base@_WV?$stream_output_adapter@_W@__crt_stdio_output@@@2@@__crt_stdio_output@@AAE_NXZ 1002b0b7 f i libucrt:output.obj
 0001:0002a0d5       ?state_case_normal_common@?$output_processor@_WV?$stream_output_adapter@_W@__crt_stdio_output@@V?$positional_parameter_base@_WV?$stream_output_adapter@_W@__crt_stdio_output@@@2@@__crt_stdio_output@@AAE_NXZ 1002b0d5 f i libucrt:output.obj
 0001:0002a0f3       ?state_case_normal_common@?$output_processor@_WV?$stream_output_adapter@_W@__crt_stdio_output@@V?$standard_base@_WV?$stream_output_adapter@_W@__crt_stdio_output@@@2@@__crt_stdio_output@@AAE_NXZ 1002b0f3 f i libucrt:output.obj
 0001:0002a111       ?state_case_normal_common@?$output_processor@_WV?$string_output_adapter@_W@__crt_stdio_output@@V?$format_validation_base@_WV?$string_output_adapter@_W@__crt_stdio_output@@@2@@__crt_stdio_output@@AAE_NXZ 1002b111 f i libucrt:output.obj
 0001:0002a159       ?state_case_normal_common@?$output_processor@_WV?$string_output_adapter@_W@__crt_stdio_output@@V?$positional_parameter_base@_WV?$string_output_adapter@_W@__crt_stdio_output@@@2@@__crt_stdio_output@@AAE_NXZ 1002b159 f i libucrt:output.obj
 0001:0002a1a1       ?state_case_normal_common@?$output_processor@_WV?$string_output_adapter@_W@__crt_stdio_output@@V?$standard_base@_WV?$string_output_adapter@_W@__crt_stdio_output@@@2@@__crt_stdio_output@@AAE_NXZ 1002b1a1 f i libucrt:output.obj
 0001:0002a1e9       ?state_case_normal_tchar@?$output_processor@DV?$stream_output_adapter@D@__crt_stdio_output@@V?$format_validation_base@DV?$stream_output_adapter@D@__crt_stdio_output@@@2@@__crt_stdio_output@@AAE_ND@Z 1002b1e9 f i libucrt:output.obj
 0001:0002a270       ?state_case_normal_tchar@?$output_processor@DV?$stream_output_adapter@D@__crt_stdio_output@@V?$positional_parameter_base@DV?$stream_output_adapter@D@__crt_stdio_output@@@2@@__crt_stdio_output@@AAE_ND@Z 1002b270 f i libucrt:output.obj
 0001:0002a2f7       ?state_case_normal_tchar@?$output_processor@DV?$stream_output_adapter@D@__crt_stdio_output@@V?$standard_base@DV?$stream_output_adapter@D@__crt_stdio_output@@@2@@__crt_stdio_output@@AAE_ND@Z 1002b2f7 f i libucrt:output.obj
 0001:0002a37e       ?state_case_normal_tchar@?$output_processor@DV?$string_output_adapter@D@__crt_stdio_output@@V?$format_validation_base@DV?$string_output_adapter@D@__crt_stdio_output@@@2@@__crt_stdio_output@@AAE_ND@Z 1002b37e f i libucrt:output.obj
 0001:0002a429       ?state_case_normal_tchar@?$output_processor@DV?$string_output_adapter@D@__crt_stdio_output@@V?$positional_parameter_base@DV?$string_output_adapter@D@__crt_stdio_output@@@2@@__crt_stdio_output@@AAE_ND@Z 1002b429 f i libucrt:output.obj
 0001:0002a4d4       ?state_case_normal_tchar@?$output_processor@DV?$string_output_adapter@D@__crt_stdio_output@@V?$standard_base@DV?$string_output_adapter@D@__crt_stdio_output@@@2@@__crt_stdio_output@@AAE_ND@Z 1002b4d4 f i libucrt:output.obj
 0001:0002a57f       ?state_case_normal_tchar@?$output_processor@_WV?$stream_output_adapter@_W@__crt_stdio_output@@V?$format_validation_base@_WV?$stream_output_adapter@_W@__crt_stdio_output@@@2@@__crt_stdio_output@@AAE_N_W@Z 1002b57f f i libucrt:output.obj
 0001:0002a588       ?state_case_normal_tchar@?$output_processor@_WV?$stream_output_adapter@_W@__crt_stdio_output@@V?$positional_parameter_base@_WV?$stream_output_adapter@_W@__crt_stdio_output@@@2@@__crt_stdio_output@@AAE_N_W@Z 1002b588 f i libucrt:output.obj
 0001:0002a591       ?state_case_normal_tchar@?$output_processor@_WV?$stream_output_adapter@_W@__crt_stdio_output@@V?$standard_base@_WV?$stream_output_adapter@_W@__crt_stdio_output@@@2@@__crt_stdio_output@@AAE_N_W@Z 1002b591 f i libucrt:output.obj
 0001:0002a59a       ?state_case_normal_tchar@?$output_processor@_WV?$string_output_adapter@_W@__crt_stdio_output@@V?$format_validation_base@_WV?$string_output_adapter@_W@__crt_stdio_output@@@2@@__crt_stdio_output@@AAE_N_W@Z 1002b59a f i libucrt:output.obj
 0001:0002a5a3       ?state_case_normal_tchar@?$output_processor@_WV?$string_output_adapter@_W@__crt_stdio_output@@V?$positional_parameter_base@_WV?$string_output_adapter@_W@__crt_stdio_output@@@2@@__crt_stdio_output@@AAE_N_W@Z 1002b5a3 f i libucrt:output.obj
 0001:0002a5ac       ?state_case_normal_tchar@?$output_processor@_WV?$string_output_adapter@_W@__crt_stdio_output@@V?$standard_base@_WV?$string_output_adapter@_W@__crt_stdio_output@@@2@@__crt_stdio_output@@AAE_N_W@Z 1002b5ac f i libucrt:output.obj
 0001:0002a5b5       ?state_case_percent@?$output_processor@DV?$stream_output_adapter@D@__crt_stdio_output@@V?$format_validation_base@DV?$stream_output_adapter@D@__crt_stdio_output@@@2@@__crt_stdio_output@@AAE_NXZ 1002b5b5 f i libucrt:output.obj
 0001:0002a5cd       ?state_case_percent@?$output_processor@DV?$stream_output_adapter@D@__crt_stdio_output@@V?$positional_parameter_base@DV?$stream_output_adapter@D@__crt_stdio_output@@@2@@__crt_stdio_output@@AAE_NXZ 1002b5cd f i libucrt:output.obj
 0001:0002a5e5       ?state_case_percent@?$output_processor@DV?$stream_output_adapter@D@__crt_stdio_output@@V?$standard_base@DV?$stream_output_adapter@D@__crt_stdio_output@@@2@@__crt_stdio_output@@AAE_NXZ 1002b5e5 f i libucrt:output.obj
 0001:0002a5fd       ?state_case_percent@?$output_processor@DV?$string_output_adapter@D@__crt_stdio_output@@V?$format_validation_base@DV?$string_output_adapter@D@__crt_stdio_output@@@2@@__crt_stdio_output@@AAE_NXZ 1002b5fd f i libucrt:output.obj
 0001:0002a615       ?state_case_percent@?$output_processor@DV?$string_output_adapter@D@__crt_stdio_output@@V?$positional_parameter_base@DV?$string_output_adapter@D@__crt_stdio_output@@@2@@__crt_stdio_output@@AAE_NXZ 1002b615 f i libucrt:output.obj
 0001:0002a62d       ?state_case_percent@?$output_processor@DV?$string_output_adapter@D@__crt_stdio_output@@V?$standard_base@DV?$string_output_adapter@D@__crt_stdio_output@@@2@@__crt_stdio_output@@AAE_NXZ 1002b62d f i libucrt:output.obj
 0001:0002a645       ?state_case_percent@?$output_processor@_WV?$stream_output_adapter@_W@__crt_stdio_output@@V?$format_validation_base@_WV?$stream_output_adapter@_W@__crt_stdio_output@@@2@@__crt_stdio_output@@AAE_NXZ 1002b645 f i libucrt:output.obj
 0001:0002a65d       ?state_case_percent@?$output_processor@_WV?$stream_output_adapter@_W@__crt_stdio_output@@V?$positional_parameter_base@_WV?$stream_output_adapter@_W@__crt_stdio_output@@@2@@__crt_stdio_output@@AAE_NXZ 1002b65d f i libucrt:output.obj
 0001:0002a675       ?state_case_percent@?$output_processor@_WV?$stream_output_adapter@_W@__crt_stdio_output@@V?$standard_base@_WV?$stream_output_adapter@_W@__crt_stdio_output@@@2@@__crt_stdio_output@@AAE_NXZ 1002b675 f i libucrt:output.obj
 0001:0002a68d       ?state_case_percent@?$output_processor@_WV?$string_output_adapter@_W@__crt_stdio_output@@V?$format_validation_base@_WV?$string_output_adapter@_W@__crt_stdio_output@@@2@@__crt_stdio_output@@AAE_NXZ 1002b68d f i libucrt:output.obj
 0001:0002a6a5       ?state_case_percent@?$output_processor@_WV?$string_output_adapter@_W@__crt_stdio_output@@V?$positional_parameter_base@_WV?$string_output_adapter@_W@__crt_stdio_output@@@2@@__crt_stdio_output@@AAE_NXZ 1002b6a5 f i libucrt:output.obj
 0001:0002a6bd       ?state_case_percent@?$output_processor@_WV?$string_output_adapter@_W@__crt_stdio_output@@V?$standard_base@_WV?$string_output_adapter@_W@__crt_stdio_output@@@2@@__crt_stdio_output@@AAE_NXZ 1002b6bd f i libucrt:output.obj
 0001:0002a6d5       ?state_case_precision@?$output_processor@DV?$stream_output_adapter@D@__crt_stdio_output@@V?$format_validation_base@DV?$stream_output_adapter@D@__crt_stdio_output@@@2@@__crt_stdio_output@@AAE_NXZ 1002b6d5 f i libucrt:output.obj
 0001:0002a701       ?state_case_precision@?$output_processor@DV?$stream_output_adapter@D@__crt_stdio_output@@V?$positional_parameter_base@DV?$stream_output_adapter@D@__crt_stdio_output@@@2@@__crt_stdio_output@@AAE_NXZ 1002b701 f i libucrt:output.obj
 0001:0002a73b       ?state_case_precision@?$output_processor@DV?$stream_output_adapter@D@__crt_stdio_output@@V?$standard_base@DV?$stream_output_adapter@D@__crt_stdio_output@@@2@@__crt_stdio_output@@AAE_NXZ 1002b73b f i libucrt:output.obj
 0001:0002a767       ?state_case_precision@?$output_processor@DV?$string_output_adapter@D@__crt_stdio_output@@V?$format_validation_base@DV?$string_output_adapter@D@__crt_stdio_output@@@2@@__crt_stdio_output@@AAE_NXZ 1002b767 f i libucrt:output.obj
 0001:0002a793       ?state_case_precision@?$output_processor@DV?$string_output_adapter@D@__crt_stdio_output@@V?$positional_parameter_base@DV?$string_output_adapter@D@__crt_stdio_output@@@2@@__crt_stdio_output@@AAE_NXZ 1002b793 f i libucrt:output.obj
 0001:0002a7cd       ?state_case_precision@?$output_processor@DV?$string_output_adapter@D@__crt_stdio_output@@V?$standard_base@DV?$string_output_adapter@D@__crt_stdio_output@@@2@@__crt_stdio_output@@AAE_NXZ 1002b7cd f i libucrt:output.obj
 0001:0002a7f9       ?state_case_precision@?$output_processor@_WV?$stream_output_adapter@_W@__crt_stdio_output@@V?$format_validation_base@_WV?$stream_output_adapter@_W@__crt_stdio_output@@@2@@__crt_stdio_output@@AAE_NXZ 1002b7f9 f i libucrt:output.obj
 0001:0002a826       ?state_case_precision@?$output_processor@_WV?$stream_output_adapter@_W@__crt_stdio_output@@V?$positional_parameter_base@_WV?$stream_output_adapter@_W@__crt_stdio_output@@@2@@__crt_stdio_output@@AAE_NXZ 1002b826 f i libucrt:output.obj
 0001:0002a861       ?state_case_precision@?$output_processor@_WV?$stream_output_adapter@_W@__crt_stdio_output@@V?$standard_base@_WV?$stream_output_adapter@_W@__crt_stdio_output@@@2@@__crt_stdio_output@@AAE_NXZ 1002b861 f i libucrt:output.obj
 0001:0002a88e       ?state_case_precision@?$output_processor@_WV?$string_output_adapter@_W@__crt_stdio_output@@V?$format_validation_base@_WV?$string_output_adapter@_W@__crt_stdio_output@@@2@@__crt_stdio_output@@AAE_NXZ 1002b88e f i libucrt:output.obj
 0001:0002a8bb       ?state_case_precision@?$output_processor@_WV?$string_output_adapter@_W@__crt_stdio_output@@V?$positional_parameter_base@_WV?$string_output_adapter@_W@__crt_stdio_output@@@2@@__crt_stdio_output@@AAE_NXZ 1002b8bb f i libucrt:output.obj
 0001:0002a8f6       ?state_case_precision@?$output_processor@_WV?$string_output_adapter@_W@__crt_stdio_output@@V?$standard_base@_WV?$string_output_adapter@_W@__crt_stdio_output@@@2@@__crt_stdio_output@@AAE_NXZ 1002b8f6 f i libucrt:output.obj
 0001:0002a923       ?state_case_size@?$output_processor@DV?$stream_output_adapter@D@__crt_stdio_output@@V?$format_validation_base@DV?$stream_output_adapter@D@__crt_stdio_output@@@2@@__crt_stdio_output@@AAE_NXZ 1002b923 f i libucrt:output.obj
 0001:0002aa7c       ?state_case_size@?$output_processor@DV?$stream_output_adapter@D@__crt_stdio_output@@V?$positional_parameter_base@DV?$stream_output_adapter@D@__crt_stdio_output@@@2@@__crt_stdio_output@@AAE_NXZ 1002ba7c f i libucrt:output.obj
 0001:0002abd5       ?state_case_size@?$output_processor@DV?$stream_output_adapter@D@__crt_stdio_output@@V?$standard_base@DV?$stream_output_adapter@D@__crt_stdio_output@@@2@@__crt_stdio_output@@AAE_NXZ 1002bbd5 f i libucrt:output.obj
 0001:0002ad2e       ?state_case_size@?$output_processor@DV?$string_output_adapter@D@__crt_stdio_output@@V?$format_validation_base@DV?$string_output_adapter@D@__crt_stdio_output@@@2@@__crt_stdio_output@@AAE_NXZ 1002bd2e f i libucrt:output.obj
 0001:0002ae87       ?state_case_size@?$output_processor@DV?$string_output_adapter@D@__crt_stdio_output@@V?$positional_parameter_base@DV?$string_output_adapter@D@__crt_stdio_output@@@2@@__crt_stdio_output@@AAE_NXZ 1002be87 f i libucrt:output.obj
 0001:0002afe0       ?state_case_size@?$output_processor@DV?$string_output_adapter@D@__crt_stdio_output@@V?$standard_base@DV?$string_output_adapter@D@__crt_stdio_output@@@2@@__crt_stdio_output@@AAE_NXZ 1002bfe0 f i libucrt:output.obj
 0001:0002b139       ?state_case_size@?$output_processor@_WV?$stream_output_adapter@_W@__crt_stdio_output@@V?$format_validation_base@_WV?$stream_output_adapter@_W@__crt_stdio_output@@@2@@__crt_stdio_output@@AAE_NXZ 1002c139 f i libucrt:output.obj
 0001:0002b2c3       ?state_case_size@?$output_processor@_WV?$stream_output_adapter@_W@__crt_stdio_output@@V?$positional_parameter_base@_WV?$stream_output_adapter@_W@__crt_stdio_output@@@2@@__crt_stdio_output@@AAE_NXZ 1002c2c3 f i libucrt:output.obj
 0001:0002b44d       ?state_case_size@?$output_processor@_WV?$stream_output_adapter@_W@__crt_stdio_output@@V?$standard_base@_WV?$stream_output_adapter@_W@__crt_stdio_output@@@2@@__crt_stdio_output@@AAE_NXZ 1002c44d f i libucrt:output.obj
 0001:0002b5d7       ?state_case_size@?$output_processor@_WV?$string_output_adapter@_W@__crt_stdio_output@@V?$format_validation_base@_WV?$string_output_adapter@_W@__crt_stdio_output@@@2@@__crt_stdio_output@@AAE_NXZ 1002c5d7 f i libucrt:output.obj
 0001:0002b761       ?state_case_size@?$output_processor@_WV?$string_output_adapter@_W@__crt_stdio_output@@V?$positional_parameter_base@_WV?$string_output_adapter@_W@__crt_stdio_output@@@2@@__crt_stdio_output@@AAE_NXZ 1002c761 f i libucrt:output.obj
 0001:0002b8eb       ?state_case_size@?$output_processor@_WV?$string_output_adapter@_W@__crt_stdio_output@@V?$standard_base@_WV?$string_output_adapter@_W@__crt_stdio_output@@@2@@__crt_stdio_output@@AAE_NXZ 1002c8eb f i libucrt:output.obj
 0001:0002ba75       ?state_case_type@?$output_processor@DV?$stream_output_adapter@D@__crt_stdio_output@@V?$format_validation_base@DV?$stream_output_adapter@D@__crt_stdio_output@@@2@@__crt_stdio_output@@AAE_NXZ 1002ca75 f i libucrt:output.obj
 0001:0002bdb7       ?state_case_type@?$output_processor@DV?$stream_output_adapter@D@__crt_stdio_output@@V?$positional_parameter_base@DV?$stream_output_adapter@D@__crt_stdio_output@@@2@@__crt_stdio_output@@AAE_NXZ 1002cdb7 f i libucrt:output.obj
 0001:0002c108       ?state_case_type@?$output_processor@DV?$stream_output_adapter@D@__crt_stdio_output@@V?$standard_base@DV?$stream_output_adapter@D@__crt_stdio_output@@@2@@__crt_stdio_output@@AAE_NXZ 1002d108 f i libucrt:output.obj
 0001:0002c44a       ?state_case_type@?$output_processor@DV?$string_output_adapter@D@__crt_stdio_output@@V?$format_validation_base@DV?$string_output_adapter@D@__crt_stdio_output@@@2@@__crt_stdio_output@@AAE_NXZ 1002d44a f i libucrt:output.obj
 0001:0002c7a9       ?state_case_type@?$output_processor@DV?$string_output_adapter@D@__crt_stdio_output@@V?$positional_parameter_base@DV?$string_output_adapter@D@__crt_stdio_output@@@2@@__crt_stdio_output@@AAE_NXZ 1002d7a9 f i libucrt:output.obj
 0001:0002cb17       ?state_case_type@?$output_processor@DV?$string_output_adapter@D@__crt_stdio_output@@V?$standard_base@DV?$string_output_adapter@D@__crt_stdio_output@@@2@@__crt_stdio_output@@AAE_NXZ 1002db17 f i libucrt:output.obj
 0001:0002ce76       ?state_case_type@?$output_processor@_WV?$stream_output_adapter@_W@__crt_stdio_output@@V?$format_validation_base@_WV?$stream_output_adapter@_W@__crt_stdio_output@@@2@@__crt_stdio_output@@AAE_NXZ 1002de76 f i libucrt:output.obj
 0001:0002d1d4       ?state_case_type@?$output_processor@_WV?$stream_output_adapter@_W@__crt_stdio_output@@V?$positional_parameter_base@_WV?$stream_output_adapter@_W@__crt_stdio_output@@@2@@__crt_stdio_output@@AAE_NXZ 1002e1d4 f i libucrt:output.obj
 0001:0002d541       ?state_case_type@?$output_processor@_WV?$stream_output_adapter@_W@__crt_stdio_output@@V?$standard_base@_WV?$stream_output_adapter@_W@__crt_stdio_output@@@2@@__crt_stdio_output@@AAE_NXZ 1002e541 f i libucrt:output.obj
 0001:0002d89f       ?state_case_type@?$output_processor@_WV?$string_output_adapter@_W@__crt_stdio_output@@V?$format_validation_base@_WV?$string_output_adapter@_W@__crt_stdio_output@@@2@@__crt_stdio_output@@AAE_NXZ 1002e89f f i libucrt:output.obj
 0001:0002dc93       ?state_case_type@?$output_processor@_WV?$string_output_adapter@_W@__crt_stdio_output@@V?$positional_parameter_base@_WV?$string_output_adapter@_W@__crt_stdio_output@@@2@@__crt_stdio_output@@AAE_NXZ 1002ec93 f i libucrt:output.obj
 0001:0002e096       ?state_case_type@?$output_processor@_WV?$string_output_adapter@_W@__crt_stdio_output@@V?$standard_base@_WV?$string_output_adapter@_W@__crt_stdio_output@@@2@@__crt_stdio_output@@AAE_NXZ 1002f096 f i libucrt:output.obj
 0001:0002e48a       ?state_case_width@?$output_processor@DV?$stream_output_adapter@D@__crt_stdio_output@@V?$format_validation_base@DV?$stream_output_adapter@D@__crt_stdio_output@@@2@@__crt_stdio_output@@AAE_NXZ 1002f48a f i libucrt:output.obj
 0001:0002e4bb       ?state_case_width@?$output_processor@DV?$stream_output_adapter@D@__crt_stdio_output@@V?$positional_parameter_base@DV?$stream_output_adapter@D@__crt_stdio_output@@@2@@__crt_stdio_output@@AAE_NXZ 1002f4bb f i libucrt:output.obj
 0001:0002e4fb       ?state_case_width@?$output_processor@DV?$stream_output_adapter@D@__crt_stdio_output@@V?$standard_base@DV?$stream_output_adapter@D@__crt_stdio_output@@@2@@__crt_stdio_output@@AAE_NXZ 1002f4fb f i libucrt:output.obj
 0001:0002e52c       ?state_case_width@?$output_processor@DV?$string_output_adapter@D@__crt_stdio_output@@V?$format_validation_base@DV?$string_output_adapter@D@__crt_stdio_output@@@2@@__crt_stdio_output@@AAE_NXZ 1002f52c f i libucrt:output.obj
 0001:0002e55d       ?state_case_width@?$output_processor@DV?$string_output_adapter@D@__crt_stdio_output@@V?$positional_parameter_base@DV?$string_output_adapter@D@__crt_stdio_output@@@2@@__crt_stdio_output@@AAE_NXZ 1002f55d f i libucrt:output.obj
 0001:0002e59d       ?state_case_width@?$output_processor@DV?$string_output_adapter@D@__crt_stdio_output@@V?$standard_base@DV?$string_output_adapter@D@__crt_stdio_output@@@2@@__crt_stdio_output@@AAE_NXZ 1002f59d f i libucrt:output.obj
 0001:0002e5ce       ?state_case_width@?$output_processor@_WV?$stream_output_adapter@_W@__crt_stdio_output@@V?$format_validation_base@_WV?$stream_output_adapter@_W@__crt_stdio_output@@@2@@__crt_stdio_output@@AAE_NXZ 1002f5ce f i libucrt:output.obj
 0001:0002e600       ?state_case_width@?$output_processor@_WV?$stream_output_adapter@_W@__crt_stdio_output@@V?$positional_parameter_base@_WV?$stream_output_adapter@_W@__crt_stdio_output@@@2@@__crt_stdio_output@@AAE_NXZ 1002f600 f i libucrt:output.obj
 0001:0002e641       ?state_case_width@?$output_processor@_WV?$stream_output_adapter@_W@__crt_stdio_output@@V?$standard_base@_WV?$stream_output_adapter@_W@__crt_stdio_output@@@2@@__crt_stdio_output@@AAE_NXZ 1002f641 f i libucrt:output.obj
 0001:0002e673       ?state_case_width@?$output_processor@_WV?$string_output_adapter@_W@__crt_stdio_output@@V?$format_validation_base@_WV?$string_output_adapter@_W@__crt_stdio_output@@@2@@__crt_stdio_output@@AAE_NXZ 1002f673 f i libucrt:output.obj
 0001:0002e6a5       ?state_case_width@?$output_processor@_WV?$string_output_adapter@_W@__crt_stdio_output@@V?$positional_parameter_base@_WV?$string_output_adapter@_W@__crt_stdio_output@@@2@@__crt_stdio_output@@AAE_NXZ 1002f6a5 f i libucrt:output.obj
 0001:0002e6e6       ?state_case_width@?$output_processor@_WV?$string_output_adapter@_W@__crt_stdio_output@@V?$standard_base@_WV?$string_output_adapter@_W@__crt_stdio_output@@@2@@__crt_stdio_output@@AAE_NXZ 1002f6e6 f i libucrt:output.obj
 0001:0002e718       ?state_count@?$format_validation_base@DV?$stream_output_adapter@D@__crt_stdio_output@@@__crt_stdio_output@@KAIXZ 1002f718 f i libucrt:output.obj
 0001:0002e71c       ?state_count@?$format_validation_base@DV?$string_output_adapter@D@__crt_stdio_output@@@__crt_stdio_output@@KAIXZ 1002f71c f i libucrt:output.obj
 0001:0002e720       ?state_count@?$format_validation_base@_WV?$stream_output_adapter@_W@__crt_stdio_output@@@__crt_stdio_output@@KAIXZ 1002f720 f i libucrt:output.obj
 0001:0002e724       ?state_count@?$format_validation_base@_WV?$string_output_adapter@_W@__crt_stdio_output@@@__crt_stdio_output@@KAIXZ 1002f724 f i libucrt:output.obj
 0001:0002e728       ?state_count@?$standard_base@DV?$stream_output_adapter@D@__crt_stdio_output@@@__crt_stdio_output@@KAIXZ 1002f728 f i libucrt:output.obj
 0001:0002e72c       ?state_count@?$standard_base@DV?$string_output_adapter@D@__crt_stdio_output@@@__crt_stdio_output@@KAIXZ 1002f72c f i libucrt:output.obj
 0001:0002e730       ?state_count@?$standard_base@_WV?$stream_output_adapter@_W@__crt_stdio_output@@@__crt_stdio_output@@KAIXZ 1002f730 f i libucrt:output.obj
 0001:0002e734       ?state_count@?$standard_base@_WV?$string_output_adapter@_W@__crt_stdio_output@@@__crt_stdio_output@@KAIXZ 1002f734 f i libucrt:output.obj
 0001:0002e738       ?state_transition_table@?$format_validation_base@DV?$stream_output_adapter@D@__crt_stdio_output@@@__crt_stdio_output@@KAABV?$spectre_mitigated_lookup_table@Ustate_transition_pair@__crt_stdio_output@@$0IA@@2@XZ 1002f738 f i libucrt:output.obj
 0001:0002e73e       ?state_transition_table@?$format_validation_base@DV?$string_output_adapter@D@__crt_stdio_output@@@__crt_stdio_output@@KAABV?$spectre_mitigated_lookup_table@Ustate_transition_pair@__crt_stdio_output@@$0IA@@2@XZ 1002f73e f i libucrt:output.obj
 0001:0002e744       ?state_transition_table@?$format_validation_base@_WV?$stream_output_adapter@_W@__crt_stdio_output@@@__crt_stdio_output@@KAABV?$spectre_mitigated_lookup_table@Ustate_transition_pair@__crt_stdio_output@@$0IA@@2@XZ 1002f744 f i libucrt:output.obj
 0001:0002e74a       ?state_transition_table@?$format_validation_base@_WV?$string_output_adapter@_W@__crt_stdio_output@@@__crt_stdio_output@@KAABV?$spectre_mitigated_lookup_table@Ustate_transition_pair@__crt_stdio_output@@$0IA@@2@XZ 1002f74a f i libucrt:output.obj
 0001:0002e750       ?state_transition_table@?$standard_base@DV?$stream_output_adapter@D@__crt_stdio_output@@@__crt_stdio_output@@KAABV?$spectre_mitigated_lookup_table@Ustate_transition_pair@__crt_stdio_output@@$0IA@@2@XZ 1002f750 f i libucrt:output.obj
 0001:0002e756       ?state_transition_table@?$standard_base@DV?$string_output_adapter@D@__crt_stdio_output@@@__crt_stdio_output@@KAABV?$spectre_mitigated_lookup_table@Ustate_transition_pair@__crt_stdio_output@@$0IA@@2@XZ 1002f756 f i libucrt:output.obj
 0001:0002e75c       ?state_transition_table@?$standard_base@_WV?$stream_output_adapter@_W@__crt_stdio_output@@@__crt_stdio_output@@KAABV?$spectre_mitigated_lookup_table@Ustate_transition_pair@__crt_stdio_output@@$0IA@@2@XZ 1002f75c f i libucrt:output.obj
 0001:0002e762       ?state_transition_table@?$standard_base@_WV?$string_output_adapter@_W@__crt_stdio_output@@@__crt_stdio_output@@KAABV?$spectre_mitigated_lookup_table@Ustate_transition_pair@__crt_stdio_output@@$0IA@@2@XZ 1002f762 f i libucrt:output.obj
 0001:0002e768       ?tchar_string@?$common_data@D@__crt_stdio_output@@IAEAAPADD@Z 1002f768 f i libucrt:output.obj
 0001:0002e76e       ?tchar_string@?$common_data@D@__crt_stdio_output@@IAEAAPADXZ 1002f76e f i libucrt:output.obj
 0001:0002e772       ?tchar_string@?$common_data@_W@__crt_stdio_output@@IAEAAPA_WXZ 1002f772 f i libucrt:output.obj
 0001:0002e776       ?tchar_string@?$common_data@_W@__crt_stdio_output@@IAEAAPA_W_W@Z 1002f776 f i libucrt:output.obj
 0001:0002e77c       ?to_integer_size@__crt_stdio_output@@YAIW4length_modifier@1@@Z 1002f77c f i libucrt:output.obj
 0001:0002e7d0       ?type_case_X@?$output_processor@DV?$stream_output_adapter@D@__crt_stdio_output@@V?$format_validation_base@DV?$stream_output_adapter@D@__crt_stdio_output@@@2@@__crt_stdio_output@@AAE_NXZ 1002f7d0 f i libucrt:output.obj
 0001:0002e7d8       ?type_case_X@?$output_processor@DV?$stream_output_adapter@D@__crt_stdio_output@@V?$positional_parameter_base@DV?$stream_output_adapter@D@__crt_stdio_output@@@2@@__crt_stdio_output@@AAE_NXZ 1002f7d8 f i libucrt:output.obj
 0001:0002e7e0       ?type_case_X@?$output_processor@DV?$stream_output_adapter@D@__crt_stdio_output@@V?$standard_base@DV?$stream_output_adapter@D@__crt_stdio_output@@@2@@__crt_stdio_output@@AAE_NXZ 1002f7e0 f i libucrt:output.obj
 0001:0002e7e8       ?type_case_X@?$output_processor@DV?$string_output_adapter@D@__crt_stdio_output@@V?$format_validation_base@DV?$string_output_adapter@D@__crt_stdio_output@@@2@@__crt_stdio_output@@AAE_NXZ 1002f7e8 f i libucrt:output.obj
 0001:0002e7f0       ?type_case_X@?$output_processor@DV?$string_output_adapter@D@__crt_stdio_output@@V?$positional_parameter_base@DV?$string_output_adapter@D@__crt_stdio_output@@@2@@__crt_stdio_output@@AAE_NXZ 1002f7f0 f i libucrt:output.obj
 0001:0002e7f8       ?type_case_X@?$output_processor@DV?$string_output_adapter@D@__crt_stdio_output@@V?$standard_base@DV?$string_output_adapter@D@__crt_stdio_output@@@2@@__crt_stdio_output@@AAE_NXZ 1002f7f8 f i libucrt:output.obj
 0001:0002e800       ?type_case_X@?$output_processor@_WV?$stream_output_adapter@_W@__crt_stdio_output@@V?$format_validation_base@_WV?$stream_output_adapter@_W@__crt_stdio_output@@@2@@__crt_stdio_output@@AAE_NXZ 1002f800 f i libucrt:output.obj
 0001:0002e808       ?type_case_X@?$output_processor@_WV?$stream_output_adapter@_W@__crt_stdio_output@@V?$positional_parameter_base@_WV?$stream_output_adapter@_W@__crt_stdio_output@@@2@@__crt_stdio_output@@AAE_NXZ 1002f808 f i libucrt:output.obj
 0001:0002e810       ?type_case_X@?$output_processor@_WV?$stream_output_adapter@_W@__crt_stdio_output@@V?$standard_base@_WV?$stream_output_adapter@_W@__crt_stdio_output@@@2@@__crt_stdio_output@@AAE_NXZ 1002f810 f i libucrt:output.obj
 0001:0002e818       ?type_case_X@?$output_processor@_WV?$string_output_adapter@_W@__crt_stdio_output@@V?$format_validation_base@_WV?$string_output_adapter@_W@__crt_stdio_output@@@2@@__crt_stdio_output@@AAE_NXZ 1002f818 f i libucrt:output.obj
 0001:0002e820       ?type_case_X@?$output_processor@_WV?$string_output_adapter@_W@__crt_stdio_output@@V?$positional_parameter_base@_WV?$string_output_adapter@_W@__crt_stdio_output@@@2@@__crt_stdio_output@@AAE_NXZ 1002f820 f i libucrt:output.obj
 0001:0002e828       ?type_case_X@?$output_processor@_WV?$string_output_adapter@_W@__crt_stdio_output@@V?$standard_base@_WV?$string_output_adapter@_W@__crt_stdio_output@@@2@@__crt_stdio_output@@AAE_NXZ 1002f828 f i libucrt:output.obj
 0001:0002e830       ?type_case_Z@?$output_processor@DV?$stream_output_adapter@D@__crt_stdio_output@@V?$format_validation_base@DV?$stream_output_adapter@D@__crt_stdio_output@@@2@@__crt_stdio_output@@AAE_NXZ 1002f830 f i libucrt:output.obj
 0001:0002e893       ?type_case_Z@?$output_processor@DV?$stream_output_adapter@D@__crt_stdio_output@@V?$positional_parameter_base@DV?$stream_output_adapter@D@__crt_stdio_output@@@2@@__crt_stdio_output@@AAE_NXZ 1002f893 f i libucrt:output.obj
 0001:0002e90d       ?type_case_Z@?$output_processor@DV?$stream_output_adapter@D@__crt_stdio_output@@V?$standard_base@DV?$stream_output_adapter@D@__crt_stdio_output@@@2@@__crt_stdio_output@@AAE_NXZ 1002f90d f i libucrt:output.obj
 0001:0002e970       ?type_case_Z@?$output_processor@DV?$string_output_adapter@D@__crt_stdio_output@@V?$format_validation_base@DV?$string_output_adapter@D@__crt_stdio_output@@@2@@__crt_stdio_output@@AAE_NXZ 1002f970 f i libucrt:output.obj
 0001:0002e9d3       ?type_case_Z@?$output_processor@DV?$string_output_adapter@D@__crt_stdio_output@@V?$positional_parameter_base@DV?$string_output_adapter@D@__crt_stdio_output@@@2@@__crt_stdio_output@@AAE_NXZ 1002f9d3 f i libucrt:output.obj
 0001:0002ea4d       ?type_case_Z@?$output_processor@DV?$string_output_adapter@D@__crt_stdio_output@@V?$standard_base@DV?$string_output_adapter@D@__crt_stdio_output@@@2@@__crt_stdio_output@@AAE_NXZ 1002fa4d f i libucrt:output.obj
 0001:0002eab0       ?type_case_Z@?$output_processor@_WV?$stream_output_adapter@_W@__crt_stdio_output@@V?$format_validation_base@_WV?$stream_output_adapter@_W@__crt_stdio_output@@@2@@__crt_stdio_output@@AAE_NXZ 1002fab0 f i libucrt:output.obj
 0001:0002eb13       ?type_case_Z@?$output_processor@_WV?$stream_output_adapter@_W@__crt_stdio_output@@V?$positional_parameter_base@_WV?$stream_output_adapter@_W@__crt_stdio_output@@@2@@__crt_stdio_output@@AAE_NXZ 1002fb13 f i libucrt:output.obj
 0001:0002eb8d       ?type_case_Z@?$output_processor@_WV?$stream_output_adapter@_W@__crt_stdio_output@@V?$standard_base@_WV?$stream_output_adapter@_W@__crt_stdio_output@@@2@@__crt_stdio_output@@AAE_NXZ 1002fb8d f i libucrt:output.obj
 0001:0002ebf0       ?type_case_Z@?$output_processor@_WV?$string_output_adapter@_W@__crt_stdio_output@@V?$format_validation_base@_WV?$string_output_adapter@_W@__crt_stdio_output@@@2@@__crt_stdio_output@@AAE_NXZ 1002fbf0 f i libucrt:output.obj
 0001:0002ec53       ?type_case_Z@?$output_processor@_WV?$string_output_adapter@_W@__crt_stdio_output@@V?$positional_parameter_base@_WV?$string_output_adapter@_W@__crt_stdio_output@@@2@@__crt_stdio_output@@AAE_NXZ 1002fc53 f i libucrt:output.obj
 0001:0002eccd       ?type_case_Z@?$output_processor@_WV?$string_output_adapter@_W@__crt_stdio_output@@V?$standard_base@_WV?$string_output_adapter@_W@__crt_stdio_output@@@2@@__crt_stdio_output@@AAE_NXZ 1002fccd f i libucrt:output.obj
 0001:0002ed30       ?type_case_a@?$output_processor@DV?$stream_output_adapter@D@__crt_stdio_output@@V?$format_validation_base@DV?$stream_output_adapter@D@__crt_stdio_output@@@2@@__crt_stdio_output@@AAE_NXZ 1002fd30 f i libucrt:output.obj
 0001:0002eec1       ?type_case_a@?$output_processor@DV?$stream_output_adapter@D@__crt_stdio_output@@V?$positional_parameter_base@DV?$stream_output_adapter@D@__crt_stdio_output@@@2@@__crt_stdio_output@@AAE_NXZ 1002fec1 f i libucrt:output.obj
 0001:0002f06f       ?type_case_a@?$output_processor@DV?$stream_output_adapter@D@__crt_stdio_output@@V?$standard_base@DV?$stream_output_adapter@D@__crt_stdio_output@@@2@@__crt_stdio_output@@AAE_NXZ 1003006f f i libucrt:output.obj
 0001:0002f200       ?type_case_a@?$output_processor@DV?$string_output_adapter@D@__crt_stdio_output@@V?$format_validation_base@DV?$string_output_adapter@D@__crt_stdio_output@@@2@@__crt_stdio_output@@AAE_NXZ 10030200 f i libucrt:output.obj
 0001:0002f391       ?type_case_a@?$output_processor@DV?$string_output_adapter@D@__crt_stdio_output@@V?$positional_parameter_base@DV?$string_output_adapter@D@__crt_stdio_output@@@2@@__crt_stdio_output@@AAE_NXZ 10030391 f i libucrt:output.obj
 0001:0002f53f       ?type_case_a@?$output_processor@DV?$string_output_adapter@D@__crt_stdio_output@@V?$standard_base@DV?$string_output_adapter@D@__crt_stdio_output@@@2@@__crt_stdio_output@@AAE_NXZ 1003053f f i libucrt:output.obj
 0001:0002f6d0       ?type_case_a@?$output_processor@_WV?$stream_output_adapter@_W@__crt_stdio_output@@V?$format_validation_base@_WV?$stream_output_adapter@_W@__crt_stdio_output@@@2@@__crt_stdio_output@@AAE_NXZ 100306d0 f i libucrt:output.obj
 0001:0002f877       ?type_case_a@?$output_processor@_WV?$stream_output_adapter@_W@__crt_stdio_output@@V?$positional_parameter_base@_WV?$stream_output_adapter@_W@__crt_stdio_output@@@2@@__crt_stdio_output@@AAE_NXZ 10030877 f i libucrt:output.obj
 0001:0002fa3b       ?type_case_a@?$output_processor@_WV?$stream_output_adapter@_W@__crt_stdio_output@@V?$standard_base@_WV?$stream_output_adapter@_W@__crt_stdio_output@@@2@@__crt_stdio_output@@AAE_NXZ 10030a3b f i libucrt:output.obj
 0001:0002fbe2       ?type_case_a@?$output_processor@_WV?$string_output_adapter@_W@__crt_stdio_output@@V?$format_validation_base@_WV?$string_output_adapter@_W@__crt_stdio_output@@@2@@__crt_stdio_output@@AAE_NXZ 10030be2 f i libucrt:output.obj
 0001:0002fd89       ?type_case_a@?$output_processor@_WV?$string_output_adapter@_W@__crt_stdio_output@@V?$positional_parameter_base@_WV?$string_output_adapter@_W@__crt_stdio_output@@@2@@__crt_stdio_output@@AAE_NXZ 10030d89 f i libucrt:output.obj
 0001:0002ff4d       ?type_case_a@?$output_processor@_WV?$string_output_adapter@_W@__crt_stdio_output@@V?$standard_base@_WV?$string_output_adapter@_W@__crt_stdio_output@@@2@@__crt_stdio_output@@AAE_NXZ 10030f4d f i libucrt:output.obj
 0001:000300f4       ?type_case_c@?$output_processor@DV?$stream_output_adapter@D@__crt_stdio_output@@V?$format_validation_base@DV?$stream_output_adapter@D@__crt_stdio_output@@@2@@__crt_stdio_output@@AAE_NXZ 100310f4 f i libucrt:output.obj
 0001:000300fc       ?type_case_c@?$output_processor@DV?$stream_output_adapter@D@__crt_stdio_output@@V?$positional_parameter_base@DV?$stream_output_adapter@D@__crt_stdio_output@@@2@@__crt_stdio_output@@AAE_NXZ 100310fc f i libucrt:output.obj
 0001:00030104       ?type_case_c@?$output_processor@DV?$stream_output_adapter@D@__crt_stdio_output@@V?$standard_base@DV?$stream_output_adapter@D@__crt_stdio_output@@@2@@__crt_stdio_output@@AAE_NXZ 10031104 f i libucrt:output.obj
 0001:0003010c       ?type_case_c@?$output_processor@DV?$string_output_adapter@D@__crt_stdio_output@@V?$format_validation_base@DV?$string_output_adapter@D@__crt_stdio_output@@@2@@__crt_stdio_output@@AAE_NXZ 1003110c f i libucrt:output.obj
 0001:00030114       ?type_case_c@?$output_processor@DV?$string_output_adapter@D@__crt_stdio_output@@V?$positional_parameter_base@DV?$string_output_adapter@D@__crt_stdio_output@@@2@@__crt_stdio_output@@AAE_NXZ 10031114 f i libucrt:output.obj
 0001:0003011c       ?type_case_c@?$output_processor@DV?$string_output_adapter@D@__crt_stdio_output@@V?$standard_base@DV?$string_output_adapter@D@__crt_stdio_output@@@2@@__crt_stdio_output@@AAE_NXZ 1003111c f i libucrt:output.obj
 0001:00030124       ?type_case_c@?$output_processor@_WV?$stream_output_adapter@_W@__crt_stdio_output@@V?$format_validation_base@_WV?$stream_output_adapter@_W@__crt_stdio_output@@@2@@__crt_stdio_output@@AAE_NXZ 10031124 f i libucrt:output.obj
 0001:0003012c       ?type_case_c@?$output_processor@_WV?$stream_output_adapter@_W@__crt_stdio_output@@V?$positional_parameter_base@_WV?$stream_output_adapter@_W@__crt_stdio_output@@@2@@__crt_stdio_output@@AAE_NXZ 1003112c f i libucrt:output.obj
 0001:00030134       ?type_case_c@?$output_processor@_WV?$stream_output_adapter@_W@__crt_stdio_output@@V?$standard_base@_WV?$stream_output_adapter@_W@__crt_stdio_output@@@2@@__crt_stdio_output@@AAE_NXZ 10031134 f i libucrt:output.obj
 0001:0003013c       ?type_case_c@?$output_processor@_WV?$string_output_adapter@_W@__crt_stdio_output@@V?$format_validation_base@_WV?$string_output_adapter@_W@__crt_stdio_output@@@2@@__crt_stdio_output@@AAE_NXZ 1003113c f i libucrt:output.obj
 0001:00030144       ?type_case_c@?$output_processor@_WV?$string_output_adapter@_W@__crt_stdio_output@@V?$positional_parameter_base@_WV?$string_output_adapter@_W@__crt_stdio_output@@@2@@__crt_stdio_output@@AAE_NXZ 10031144 f i libucrt:output.obj
 0001:0003014c       ?type_case_c@?$output_processor@_WV?$string_output_adapter@_W@__crt_stdio_output@@V?$standard_base@_WV?$string_output_adapter@_W@__crt_stdio_output@@@2@@__crt_stdio_output@@AAE_NXZ 1003114c f i libucrt:output.obj
 0001:00030154       ?type_case_c_tchar@?$output_processor@DV?$stream_output_adapter@D@__crt_stdio_output@@V?$format_validation_base@DV?$stream_output_adapter@D@__crt_stdio_output@@@2@@__crt_stdio_output@@AAE_ND@Z 10031154 f i libucrt:output.obj
 0001:000301e9       ?type_case_c_tchar@?$output_processor@DV?$stream_output_adapter@D@__crt_stdio_output@@V?$positional_parameter_base@DV?$stream_output_adapter@D@__crt_stdio_output@@@2@@__crt_stdio_output@@AAE_ND@Z 100311e9 f i libucrt:output.obj
 0001:000302a8       ?type_case_c_tchar@?$output_processor@DV?$stream_output_adapter@D@__crt_stdio_output@@V?$standard_base@DV?$stream_output_adapter@D@__crt_stdio_output@@@2@@__crt_stdio_output@@AAE_ND@Z 100312a8 f i libucrt:output.obj
 0001:0003033d       ?type_case_c_tchar@?$output_processor@DV?$string_output_adapter@D@__crt_stdio_output@@V?$format_validation_base@DV?$string_output_adapter@D@__crt_stdio_output@@@2@@__crt_stdio_output@@AAE_ND@Z 1003133d f i libucrt:output.obj
 0001:000303d2       ?type_case_c_tchar@?$output_processor@DV?$string_output_adapter@D@__crt_stdio_output@@V?$positional_parameter_base@DV?$string_output_adapter@D@__crt_stdio_output@@@2@@__crt_stdio_output@@AAE_ND@Z 100313d2 f i libucrt:output.obj
 0001:00030491       ?type_case_c_tchar@?$output_processor@DV?$string_output_adapter@D@__crt_stdio_output@@V?$standard_base@DV?$string_output_adapter@D@__crt_stdio_output@@@2@@__crt_stdio_output@@AAE_ND@Z 10031491 f i libucrt:output.obj
 0001:00030526       ?type_case_c_tchar@?$output_processor@_WV?$stream_output_adapter@_W@__crt_stdio_output@@V?$format_validation_base@_WV?$stream_output_adapter@_W@__crt_stdio_output@@@2@@__crt_stdio_output@@AAE_N_W@Z 10031526 f i libucrt:output.obj
 0001:000305ce       ?type_case_c_tchar@?$output_processor@_WV?$stream_output_adapter@_W@__crt_stdio_output@@V?$positional_parameter_base@_WV?$stream_output_adapter@_W@__crt_stdio_output@@@2@@__crt_stdio_output@@AAE_N_W@Z 100315ce f i libucrt:output.obj
 0001:00030699       ?type_case_c_tchar@?$output_processor@_WV?$stream_output_adapter@_W@__crt_stdio_output@@V?$standard_base@_WV?$stream_output_adapter@_W@__crt_stdio_output@@@2@@__crt_stdio_output@@AAE_N_W@Z 10031699 f i libucrt:output.obj
 0001:00030741       ?type_case_c_tchar@?$output_processor@_WV?$string_output_adapter@_W@__crt_stdio_output@@V?$format_validation_base@_WV?$string_output_adapter@_W@__crt_stdio_output@@@2@@__crt_stdio_output@@AAE_N_W@Z 10031741 f i libucrt:output.obj
 0001:000307e9       ?type_case_c_tchar@?$output_processor@_WV?$string_output_adapter@_W@__crt_stdio_output@@V?$positional_parameter_base@_WV?$string_output_adapter@_W@__crt_stdio_output@@@2@@__crt_stdio_output@@AAE_N_W@Z 100317e9 f i libucrt:output.obj
 0001:000308b4       ?type_case_c_tchar@?$output_processor@_WV?$string_output_adapter@_W@__crt_stdio_output@@V?$standard_base@_WV?$string_output_adapter@_W@__crt_stdio_output@@@2@@__crt_stdio_output@@AAE_N_W@Z 100318b4 f i libucrt:output.obj
 0001:0003095c       ?type_case_d@?$output_processor@DV?$stream_output_adapter@D@__crt_stdio_output@@V?$format_validation_base@DV?$stream_output_adapter@D@__crt_stdio_output@@@2@@__crt_stdio_output@@AAE_NXZ 1003195c f i libucrt:output.obj
 0001:00030968       ?type_case_d@?$output_processor@DV?$stream_output_adapter@D@__crt_stdio_output@@V?$positional_parameter_base@DV?$stream_output_adapter@D@__crt_stdio_output@@@2@@__crt_stdio_output@@AAE_NXZ 10031968 f i libucrt:output.obj
 0001:00030974       ?type_case_d@?$output_processor@DV?$stream_output_adapter@D@__crt_stdio_output@@V?$standard_base@DV?$stream_output_adapter@D@__crt_stdio_output@@@2@@__crt_stdio_output@@AAE_NXZ 10031974 f i libucrt:output.obj
 0001:00030980       ?type_case_d@?$output_processor@DV?$string_output_adapter@D@__crt_stdio_output@@V?$format_validation_base@DV?$string_output_adapter@D@__crt_stdio_output@@@2@@__crt_stdio_output@@AAE_NXZ 10031980 f i libucrt:output.obj
 0001:0003098c       ?type_case_d@?$output_processor@DV?$string_output_adapter@D@__crt_stdio_output@@V?$positional_parameter_base@DV?$string_output_adapter@D@__crt_stdio_output@@@2@@__crt_stdio_output@@AAE_NXZ 1003198c f i libucrt:output.obj
 0001:00030998       ?type_case_d@?$output_processor@DV?$string_output_adapter@D@__crt_stdio_output@@V?$standard_base@DV?$string_output_adapter@D@__crt_stdio_output@@@2@@__crt_stdio_output@@AAE_NXZ 10031998 f i libucrt:output.obj
 0001:000309a4       ?type_case_d@?$output_processor@_WV?$stream_output_adapter@_W@__crt_stdio_output@@V?$format_validation_base@_WV?$stream_output_adapter@_W@__crt_stdio_output@@@2@@__crt_stdio_output@@AAE_NXZ 100319a4 f i libucrt:output.obj
 0001:000309b0       ?type_case_d@?$output_processor@_WV?$stream_output_adapter@_W@__crt_stdio_output@@V?$positional_parameter_base@_WV?$stream_output_adapter@_W@__crt_stdio_output@@@2@@__crt_stdio_output@@AAE_NXZ 100319b0 f i libucrt:output.obj
 0001:000309bc       ?type_case_d@?$output_processor@_WV?$stream_output_adapter@_W@__crt_stdio_output@@V?$standard_base@_WV?$stream_output_adapter@_W@__crt_stdio_output@@@2@@__crt_stdio_output@@AAE_NXZ 100319bc f i libucrt:output.obj
 0001:000309c8       ?type_case_d@?$output_processor@_WV?$string_output_adapter@_W@__crt_stdio_output@@V?$format_validation_base@_WV?$string_output_adapter@_W@__crt_stdio_output@@@2@@__crt_stdio_output@@AAE_NXZ 100319c8 f i libucrt:output.obj
 0001:000309d4       ?type_case_d@?$output_processor@_WV?$string_output_adapter@_W@__crt_stdio_output@@V?$positional_parameter_base@_WV?$string_output_adapter@_W@__crt_stdio_output@@@2@@__crt_stdio_output@@AAE_NXZ 100319d4 f i libucrt:output.obj
 0001:000309e0       ?type_case_d@?$output_processor@_WV?$string_output_adapter@_W@__crt_stdio_output@@V?$standard_base@_WV?$string_output_adapter@_W@__crt_stdio_output@@@2@@__crt_stdio_output@@AAE_NXZ 100319e0 f i libucrt:output.obj
 0001:000309ec       ?type_case_n@?$output_processor@DV?$stream_output_adapter@D@__crt_stdio_output@@V?$format_validation_base@DV?$stream_output_adapter@D@__crt_stdio_output@@@2@@__crt_stdio_output@@AAE_NXZ 100319ec f i libucrt:output.obj
 0001:00030a71       ?type_case_n@?$output_processor@DV?$stream_output_adapter@D@__crt_stdio_output@@V?$positional_parameter_base@DV?$stream_output_adapter@D@__crt_stdio_output@@@2@@__crt_stdio_output@@AAE_NXZ 10031a71 f i libucrt:output.obj
 0001:00030b1e       ?type_case_n@?$output_processor@DV?$stream_output_adapter@D@__crt_stdio_output@@V?$standard_base@DV?$stream_output_adapter@D@__crt_stdio_output@@@2@@__crt_stdio_output@@AAE_NXZ 10031b1e f i libucrt:output.obj
 0001:00030ba3       ?type_case_n@?$output_processor@DV?$string_output_adapter@D@__crt_stdio_output@@V?$format_validation_base@DV?$string_output_adapter@D@__crt_stdio_output@@@2@@__crt_stdio_output@@AAE_NXZ 10031ba3 f i libucrt:output.obj
 0001:00030c28       ?type_case_n@?$output_processor@DV?$string_output_adapter@D@__crt_stdio_output@@V?$positional_parameter_base@DV?$string_output_adapter@D@__crt_stdio_output@@@2@@__crt_stdio_output@@AAE_NXZ 10031c28 f i libucrt:output.obj
 0001:00030cd5       ?type_case_n@?$output_processor@DV?$string_output_adapter@D@__crt_stdio_output@@V?$standard_base@DV?$string_output_adapter@D@__crt_stdio_output@@@2@@__crt_stdio_output@@AAE_NXZ 10031cd5 f i libucrt:output.obj
 0001:00030d5a       ?type_case_n@?$output_processor@_WV?$stream_output_adapter@_W@__crt_stdio_output@@V?$format_validation_base@_WV?$stream_output_adapter@_W@__crt_stdio_output@@@2@@__crt_stdio_output@@AAE_NXZ 10031d5a f i libucrt:output.obj
 0001:00030ddf       ?type_case_n@?$output_processor@_WV?$stream_output_adapter@_W@__crt_stdio_output@@V?$positional_parameter_base@_WV?$stream_output_adapter@_W@__crt_stdio_output@@@2@@__crt_stdio_output@@AAE_NXZ 10031ddf f i libucrt:output.obj
 0001:00030e8c       ?type_case_n@?$output_processor@_WV?$stream_output_adapter@_W@__crt_stdio_output@@V?$standard_base@_WV?$stream_output_adapter@_W@__crt_stdio_output@@@2@@__crt_stdio_output@@AAE_NXZ 10031e8c f i libucrt:output.obj
 0001:00030f11       ?type_case_n@?$output_processor@_WV?$string_output_adapter@_W@__crt_stdio_output@@V?$format_validation_base@_WV?$string_output_adapter@_W@__crt_stdio_output@@@2@@__crt_stdio_output@@AAE_NXZ 10031f11 f i libucrt:output.obj
 0001:00030f96       ?type_case_n@?$output_processor@_WV?$string_output_adapter@_W@__crt_stdio_output@@V?$positional_parameter_base@_WV?$string_output_adapter@_W@__crt_stdio_output@@@2@@__crt_stdio_output@@AAE_NXZ 10031f96 f i libucrt:output.obj
 0001:00031043       ?type_case_n@?$output_processor@_WV?$string_output_adapter@_W@__crt_stdio_output@@V?$standard_base@_WV?$string_output_adapter@_W@__crt_stdio_output@@@2@@__crt_stdio_output@@AAE_NXZ 10032043 f i libucrt:output.obj
 0001:000310c8       ?type_case_o@?$output_processor@DV?$stream_output_adapter@D@__crt_stdio_output@@V?$format_validation_base@DV?$stream_output_adapter@D@__crt_stdio_output@@@2@@__crt_stdio_output@@AAE_NXZ 100320c8 f i libucrt:output.obj
 0001:000310e5       ?type_case_o@?$output_processor@DV?$stream_output_adapter@D@__crt_stdio_output@@V?$positional_parameter_base@DV?$stream_output_adapter@D@__crt_stdio_output@@@2@@__crt_stdio_output@@AAE_NXZ 100320e5 f i libucrt:output.obj
 0001:00031102       ?type_case_o@?$output_processor@DV?$stream_output_adapter@D@__crt_stdio_output@@V?$standard_base@DV?$stream_output_adapter@D@__crt_stdio_output@@@2@@__crt_stdio_output@@AAE_NXZ 10032102 f i libucrt:output.obj
 0001:0003111f       ?type_case_o@?$output_processor@DV?$string_output_adapter@D@__crt_stdio_output@@V?$format_validation_base@DV?$string_output_adapter@D@__crt_stdio_output@@@2@@__crt_stdio_output@@AAE_NXZ 1003211f f i libucrt:output.obj
 0001:0003113c       ?type_case_o@?$output_processor@DV?$string_output_adapter@D@__crt_stdio_output@@V?$positional_parameter_base@DV?$string_output_adapter@D@__crt_stdio_output@@@2@@__crt_stdio_output@@AAE_NXZ 1003213c f i libucrt:output.obj
 0001:00031159       ?type_case_o@?$output_processor@DV?$string_output_adapter@D@__crt_stdio_output@@V?$standard_base@DV?$string_output_adapter@D@__crt_stdio_output@@@2@@__crt_stdio_output@@AAE_NXZ 10032159 f i libucrt:output.obj
 0001:00031176       ?type_case_o@?$output_processor@_WV?$stream_output_adapter@_W@__crt_stdio_output@@V?$format_validation_base@_WV?$stream_output_adapter@_W@__crt_stdio_output@@@2@@__crt_stdio_output@@AAE_NXZ 10032176 f i libucrt:output.obj
 0001:00031193       ?type_case_o@?$output_processor@_WV?$stream_output_adapter@_W@__crt_stdio_output@@V?$positional_parameter_base@_WV?$stream_output_adapter@_W@__crt_stdio_output@@@2@@__crt_stdio_output@@AAE_NXZ 10032193 f i libucrt:output.obj
 0001:000311b0       ?type_case_o@?$output_processor@_WV?$stream_output_adapter@_W@__crt_stdio_output@@V?$standard_base@_WV?$stream_output_adapter@_W@__crt_stdio_output@@@2@@__crt_stdio_output@@AAE_NXZ 100321b0 f i libucrt:output.obj
 0001:000311cd       ?type_case_o@?$output_processor@_WV?$string_output_adapter@_W@__crt_stdio_output@@V?$format_validation_base@_WV?$string_output_adapter@_W@__crt_stdio_output@@@2@@__crt_stdio_output@@AAE_NXZ 100321cd f i libucrt:output.obj
 0001:000311ea       ?type_case_o@?$output_processor@_WV?$string_output_adapter@_W@__crt_stdio_output@@V?$positional_parameter_base@_WV?$string_output_adapter@_W@__crt_stdio_output@@@2@@__crt_stdio_output@@AAE_NXZ 100321ea f i libucrt:output.obj
 0001:00031207       ?type_case_o@?$output_processor@_WV?$string_output_adapter@_W@__crt_stdio_output@@V?$standard_base@_WV?$string_output_adapter@_W@__crt_stdio_output@@@2@@__crt_stdio_output@@AAE_NXZ 10032207 f i libucrt:output.obj
 0001:00031224       ?type_case_p@?$output_processor@DV?$stream_output_adapter@D@__crt_stdio_output@@V?$format_validation_base@DV?$stream_output_adapter@D@__crt_stdio_output@@@2@@__crt_stdio_output@@AAE_NXZ 10032224 f i libucrt:output.obj
 0001:0003123a       ?type_case_p@?$output_processor@DV?$stream_output_adapter@D@__crt_stdio_output@@V?$positional_parameter_base@DV?$stream_output_adapter@D@__crt_stdio_output@@@2@@__crt_stdio_output@@AAE_NXZ 1003223a f i libucrt:output.obj
 0001:00031250       ?type_case_p@?$output_processor@DV?$stream_output_adapter@D@__crt_stdio_output@@V?$standard_base@DV?$stream_output_adapter@D@__crt_stdio_output@@@2@@__crt_stdio_output@@AAE_NXZ 10032250 f i libucrt:output.obj
 0001:00031266       ?type_case_p@?$output_processor@DV?$string_output_adapter@D@__crt_stdio_output@@V?$format_validation_base@DV?$string_output_adapter@D@__crt_stdio_output@@@2@@__crt_stdio_output@@AAE_NXZ 10032266 f i libucrt:output.obj
 0001:0003127c       ?type_case_p@?$output_processor@DV?$string_output_adapter@D@__crt_stdio_output@@V?$positional_parameter_base@DV?$string_output_adapter@D@__crt_stdio_output@@@2@@__crt_stdio_output@@AAE_NXZ 1003227c f i libucrt:output.obj
 0001:00031292       ?type_case_p@?$output_processor@DV?$string_output_adapter@D@__crt_stdio_output@@V?$standard_base@DV?$string_output_adapter@D@__crt_stdio_output@@@2@@__crt_stdio_output@@AAE_NXZ 10032292 f i libucrt:output.obj
 0001:000312a8       ?type_case_p@?$output_processor@_WV?$stream_output_adapter@_W@__crt_stdio_output@@V?$format_validation_base@_WV?$stream_output_adapter@_W@__crt_stdio_output@@@2@@__crt_stdio_output@@AAE_NXZ 100322a8 f i libucrt:output.obj
 0001:000312be       ?type_case_p@?$output_processor@_WV?$stream_output_adapter@_W@__crt_stdio_output@@V?$positional_parameter_base@_WV?$stream_output_adapter@_W@__crt_stdio_output@@@2@@__crt_stdio_output@@AAE_NXZ 100322be f i libucrt:output.obj
 0001:000312d4       ?type_case_p@?$output_processor@_WV?$stream_output_adapter@_W@__crt_stdio_output@@V?$standard_base@_WV?$stream_output_adapter@_W@__crt_stdio_output@@@2@@__crt_stdio_output@@AAE_NXZ 100322d4 f i libucrt:output.obj
 0001:000312ea       ?type_case_p@?$output_processor@_WV?$string_output_adapter@_W@__crt_stdio_output@@V?$format_validation_base@_WV?$string_output_adapter@_W@__crt_stdio_output@@@2@@__crt_stdio_output@@AAE_NXZ 100322ea f i libucrt:output.obj
 0001:00031300       ?type_case_p@?$output_processor@_WV?$string_output_adapter@_W@__crt_stdio_output@@V?$positional_parameter_base@_WV?$string_output_adapter@_W@__crt_stdio_output@@@2@@__crt_stdio_output@@AAE_NXZ 10032300 f i libucrt:output.obj
 0001:00031316       ?type_case_p@?$output_processor@_WV?$string_output_adapter@_W@__crt_stdio_output@@V?$standard_base@_WV?$string_output_adapter@_W@__crt_stdio_output@@@2@@__crt_stdio_output@@AAE_NXZ 10032316 f i libucrt:output.obj
 0001:0003132c       ?type_case_s@?$output_processor@DV?$stream_output_adapter@D@__crt_stdio_output@@V?$format_validation_base@DV?$stream_output_adapter@D@__crt_stdio_output@@@2@@__crt_stdio_output@@AAE_NXZ 1003232c f i libucrt:output.obj
 0001:0003139e       ?type_case_s@?$output_processor@DV?$stream_output_adapter@D@__crt_stdio_output@@V?$positional_parameter_base@DV?$stream_output_adapter@D@__crt_stdio_output@@@2@@__crt_stdio_output@@AAE_NXZ 1003239e f i libucrt:output.obj
 0001:0003141c       ?type_case_s@?$output_processor@DV?$stream_output_adapter@D@__crt_stdio_output@@V?$standard_base@DV?$stream_output_adapter@D@__crt_stdio_output@@@2@@__crt_stdio_output@@AAE_NXZ 1003241c f i libucrt:output.obj
 0001:0003148e       ?type_case_s@?$output_processor@DV?$string_output_adapter@D@__crt_stdio_output@@V?$format_validation_base@DV?$string_output_adapter@D@__crt_stdio_output@@@2@@__crt_stdio_output@@AAE_NXZ 1003248e f i libucrt:output.obj
 0001:00031500       ?type_case_s@?$output_processor@DV?$string_output_adapter@D@__crt_stdio_output@@V?$positional_parameter_base@DV?$string_output_adapter@D@__crt_stdio_output@@@2@@__crt_stdio_output@@AAE_NXZ 10032500 f i libucrt:output.obj
 0001:0003157e       ?type_case_s@?$output_processor@DV?$string_output_adapter@D@__crt_stdio_output@@V?$standard_base@DV?$string_output_adapter@D@__crt_stdio_output@@@2@@__crt_stdio_output@@AAE_NXZ 1003257e f i libucrt:output.obj
 0001:000315f0       ?type_case_s@?$output_processor@_WV?$stream_output_adapter@_W@__crt_stdio_output@@V?$format_validation_base@_WV?$stream_output_adapter@_W@__crt_stdio_output@@@2@@__crt_stdio_output@@AAE_NXZ 100325f0 f i libucrt:output.obj
 0001:00031664       ?type_case_s@?$output_processor@_WV?$stream_output_adapter@_W@__crt_stdio_output@@V?$positional_parameter_base@_WV?$stream_output_adapter@_W@__crt_stdio_output@@@2@@__crt_stdio_output@@AAE_NXZ 10032664 f i libucrt:output.obj
 0001:000316e4       ?type_case_s@?$output_processor@_WV?$stream_output_adapter@_W@__crt_stdio_output@@V?$standard_base@_WV?$stream_output_adapter@_W@__crt_stdio_output@@@2@@__crt_stdio_output@@AAE_NXZ 100326e4 f i libucrt:output.obj
 0001:00031758       ?type_case_s@?$output_processor@_WV?$string_output_adapter@_W@__crt_stdio_output@@V?$format_validation_base@_WV?$string_output_adapter@_W@__crt_stdio_output@@@2@@__crt_stdio_output@@AAE_NXZ 10032758 f i libucrt:output.obj
 0001:000317cc       ?type_case_s@?$output_processor@_WV?$string_output_adapter@_W@__crt_stdio_output@@V?$positional_parameter_base@_WV?$string_output_adapter@_W@__crt_stdio_output@@@2@@__crt_stdio_output@@AAE_NXZ 100327cc f i libucrt:output.obj
 0001:0003184c       ?type_case_s@?$output_processor@_WV?$string_output_adapter@_W@__crt_stdio_output@@V?$standard_base@_WV?$string_output_adapter@_W@__crt_stdio_output@@@2@@__crt_stdio_output@@AAE_NXZ 1003284c f i libucrt:output.obj
 0001:000318c0       ?type_case_s_compute_narrow_string_length@?$output_processor@DV?$stream_output_adapter@D@__crt_stdio_output@@V?$format_validation_base@DV?$stream_output_adapter@D@__crt_stdio_output@@@2@@__crt_stdio_output@@AAEHHD@Z 100328c0 f i libucrt:output.obj
 0001:000318d6       ?type_case_s_compute_narrow_string_length@?$output_processor@DV?$stream_output_adapter@D@__crt_stdio_output@@V?$positional_parameter_base@DV?$stream_output_adapter@D@__crt_stdio_output@@@2@@__crt_stdio_output@@AAEHHD@Z 100328d6 f i libucrt:output.obj
 0001:000318ec       ?type_case_s_compute_narrow_string_length@?$output_processor@DV?$stream_output_adapter@D@__crt_stdio_output@@V?$standard_base@DV?$stream_output_adapter@D@__crt_stdio_output@@@2@@__crt_stdio_output@@AAEHHD@Z 100328ec f i libucrt:output.obj
 0001:00031902       ?type_case_s_compute_narrow_string_length@?$output_processor@DV?$string_output_adapter@D@__crt_stdio_output@@V?$format_validation_base@DV?$string_output_adapter@D@__crt_stdio_output@@@2@@__crt_stdio_output@@AAEHHD@Z 10032902 f i libucrt:output.obj
 0001:00031918       ?type_case_s_compute_narrow_string_length@?$output_processor@DV?$string_output_adapter@D@__crt_stdio_output@@V?$positional_parameter_base@DV?$string_output_adapter@D@__crt_stdio_output@@@2@@__crt_stdio_output@@AAEHHD@Z 10032918 f i libucrt:output.obj
 0001:0003192e       ?type_case_s_compute_narrow_string_length@?$output_processor@DV?$string_output_adapter@D@__crt_stdio_output@@V?$standard_base@DV?$string_output_adapter@D@__crt_stdio_output@@@2@@__crt_stdio_output@@AAEHHD@Z 1003292e f i libucrt:output.obj
 0001:00031944       ?type_case_s_compute_narrow_string_length@?$output_processor@_WV?$stream_output_adapter@_W@__crt_stdio_output@@V?$format_validation_base@_WV?$stream_output_adapter@_W@__crt_stdio_output@@@2@@__crt_stdio_output@@AAEHH_W@Z 10032944 f i libucrt:output.obj
 0001:00031999       ?type_case_s_compute_narrow_string_length@?$output_processor@_WV?$stream_output_adapter@_W@__crt_stdio_output@@V?$positional_parameter_base@_WV?$stream_output_adapter@_W@__crt_stdio_output@@@2@@__crt_stdio_output@@AAEHH_W@Z 10032999 f i libucrt:output.obj
 0001:000319ee       ?type_case_s_compute_narrow_string_length@?$output_processor@_WV?$stream_output_adapter@_W@__crt_stdio_output@@V?$standard_base@_WV?$stream_output_adapter@_W@__crt_stdio_output@@@2@@__crt_stdio_output@@AAEHH_W@Z 100329ee f i libucrt:output.obj
 0001:00031a43       ?type_case_s_compute_narrow_string_length@?$output_processor@_WV?$string_output_adapter@_W@__crt_stdio_output@@V?$format_validation_base@_WV?$string_output_adapter@_W@__crt_stdio_output@@@2@@__crt_stdio_output@@AAEHH_W@Z 10032a43 f i libucrt:output.obj
 0001:00031a98       ?type_case_s_compute_narrow_string_length@?$output_processor@_WV?$string_output_adapter@_W@__crt_stdio_output@@V?$positional_parameter_base@_WV?$string_output_adapter@_W@__crt_stdio_output@@@2@@__crt_stdio_output@@AAEHH_W@Z 10032a98 f i libucrt:output.obj
 0001:00031aed       ?type_case_s_compute_narrow_string_length@?$output_processor@_WV?$string_output_adapter@_W@__crt_stdio_output@@V?$standard_base@_WV?$string_output_adapter@_W@__crt_stdio_output@@@2@@__crt_stdio_output@@AAEHH_W@Z 10032aed f i libucrt:output.obj
 0001:00031b42       ?type_case_u@?$output_processor@DV?$stream_output_adapter@D@__crt_stdio_output@@V?$format_validation_base@DV?$stream_output_adapter@D@__crt_stdio_output@@@2@@__crt_stdio_output@@AAE_NXZ 10032b42 f i libucrt:output.obj
 0001:00031b4a       ?type_case_u@?$output_processor@DV?$stream_output_adapter@D@__crt_stdio_output@@V?$positional_parameter_base@DV?$stream_output_adapter@D@__crt_stdio_output@@@2@@__crt_stdio_output@@AAE_NXZ 10032b4a f i libucrt:output.obj
 0001:00031b52       ?type_case_u@?$output_processor@DV?$stream_output_adapter@D@__crt_stdio_output@@V?$standard_base@DV?$stream_output_adapter@D@__crt_stdio_output@@@2@@__crt_stdio_output@@AAE_NXZ 10032b52 f i libucrt:output.obj
 0001:00031b5a       ?type_case_u@?$output_processor@DV?$string_output_adapter@D@__crt_stdio_output@@V?$format_validation_base@DV?$string_output_adapter@D@__crt_stdio_output@@@2@@__crt_stdio_output@@AAE_NXZ 10032b5a f i libucrt:output.obj
 0001:00031b62       ?type_case_u@?$output_processor@DV?$string_output_adapter@D@__crt_stdio_output@@V?$positional_parameter_base@DV?$string_output_adapter@D@__crt_stdio_output@@@2@@__crt_stdio_output@@AAE_NXZ 10032b62 f i libucrt:output.obj
 0001:00031b6a       ?type_case_u@?$output_processor@DV?$string_output_adapter@D@__crt_stdio_output@@V?$standard_base@DV?$string_output_adapter@D@__crt_stdio_output@@@2@@__crt_stdio_output@@AAE_NXZ 10032b6a f i libucrt:output.obj
 0001:00031b72       ?type_case_u@?$output_processor@_WV?$stream_output_adapter@_W@__crt_stdio_output@@V?$format_validation_base@_WV?$stream_output_adapter@_W@__crt_stdio_output@@@2@@__crt_stdio_output@@AAE_NXZ 10032b72 f i libucrt:output.obj
 0001:00031b7a       ?type_case_u@?$output_processor@_WV?$stream_output_adapter@_W@__crt_stdio_output@@V?$positional_parameter_base@_WV?$stream_output_adapter@_W@__crt_stdio_output@@@2@@__crt_stdio_output@@AAE_NXZ 10032b7a f i libucrt:output.obj
 0001:00031b82       ?type_case_u@?$output_processor@_WV?$stream_output_adapter@_W@__crt_stdio_output@@V?$standard_base@_WV?$stream_output_adapter@_W@__crt_stdio_output@@@2@@__crt_stdio_output@@AAE_NXZ 10032b82 f i libucrt:output.obj
 0001:00031b8a       ?type_case_u@?$output_processor@_WV?$string_output_adapter@_W@__crt_stdio_output@@V?$format_validation_base@_WV?$string_output_adapter@_W@__crt_stdio_output@@@2@@__crt_stdio_output@@AAE_NXZ 10032b8a f i libucrt:output.obj
 0001:00031b92       ?type_case_u@?$output_processor@_WV?$string_output_adapter@_W@__crt_stdio_output@@V?$positional_parameter_base@_WV?$string_output_adapter@_W@__crt_stdio_output@@@2@@__crt_stdio_output@@AAE_NXZ 10032b92 f i libucrt:output.obj
 0001:00031b9a       ?type_case_u@?$output_processor@_WV?$string_output_adapter@_W@__crt_stdio_output@@V?$standard_base@_WV?$string_output_adapter@_W@__crt_stdio_output@@@2@@__crt_stdio_output@@AAE_NXZ 10032b9a f i libucrt:output.obj
 0001:00031ba2       ?type_case_x@?$output_processor@DV?$stream_output_adapter@D@__crt_stdio_output@@V?$format_validation_base@DV?$stream_output_adapter@D@__crt_stdio_output@@@2@@__crt_stdio_output@@AAE_NXZ 10032ba2 f i libucrt:output.obj
 0001:00031baa       ?type_case_x@?$output_processor@DV?$stream_output_adapter@D@__crt_stdio_output@@V?$positional_parameter_base@DV?$stream_output_adapter@D@__crt_stdio_output@@@2@@__crt_stdio_output@@AAE_NXZ 10032baa f i libucrt:output.obj
 0001:00031bb2       ?type_case_x@?$output_processor@DV?$stream_output_adapter@D@__crt_stdio_output@@V?$standard_base@DV?$stream_output_adapter@D@__crt_stdio_output@@@2@@__crt_stdio_output@@AAE_NXZ 10032bb2 f i libucrt:output.obj
 0001:00031bba       ?type_case_x@?$output_processor@DV?$string_output_adapter@D@__crt_stdio_output@@V?$format_validation_base@DV?$string_output_adapter@D@__crt_stdio_output@@@2@@__crt_stdio_output@@AAE_NXZ 10032bba f i libucrt:output.obj
 0001:00031bc2       ?type_case_x@?$output_processor@DV?$string_output_adapter@D@__crt_stdio_output@@V?$positional_parameter_base@DV?$string_output_adapter@D@__crt_stdio_output@@@2@@__crt_stdio_output@@AAE_NXZ 10032bc2 f i libucrt:output.obj
 0001:00031bca       ?type_case_x@?$output_processor@DV?$string_output_adapter@D@__crt_stdio_output@@V?$standard_base@DV?$string_output_adapter@D@__crt_stdio_output@@@2@@__crt_stdio_output@@AAE_NXZ 10032bca f i libucrt:output.obj
 0001:00031bd2       ?type_case_x@?$output_processor@_WV?$stream_output_adapter@_W@__crt_stdio_output@@V?$format_validation_base@_WV?$stream_output_adapter@_W@__crt_stdio_output@@@2@@__crt_stdio_output@@AAE_NXZ 10032bd2 f i libucrt:output.obj
 0001:00031bda       ?type_case_x@?$output_processor@_WV?$stream_output_adapter@_W@__crt_stdio_output@@V?$positional_parameter_base@_WV?$stream_output_adapter@_W@__crt_stdio_output@@@2@@__crt_stdio_output@@AAE_NXZ 10032bda f i libucrt:output.obj
 0001:00031be2       ?type_case_x@?$output_processor@_WV?$stream_output_adapter@_W@__crt_stdio_output@@V?$standard_base@_WV?$stream_output_adapter@_W@__crt_stdio_output@@@2@@__crt_stdio_output@@AAE_NXZ 10032be2 f i libucrt:output.obj
 0001:00031bea       ?type_case_x@?$output_processor@_WV?$string_output_adapter@_W@__crt_stdio_output@@V?$format_validation_base@_WV?$string_output_adapter@_W@__crt_stdio_output@@@2@@__crt_stdio_output@@AAE_NXZ 10032bea f i libucrt:output.obj
 0001:00031bf2       ?type_case_x@?$output_processor@_WV?$string_output_adapter@_W@__crt_stdio_output@@V?$positional_parameter_base@_WV?$string_output_adapter@_W@__crt_stdio_output@@@2@@__crt_stdio_output@@AAE_NXZ 10032bf2 f i libucrt:output.obj
 0001:00031bfa       ?type_case_x@?$output_processor@_WV?$string_output_adapter@_W@__crt_stdio_output@@V?$standard_base@_WV?$string_output_adapter@_W@__crt_stdio_output@@@2@@__crt_stdio_output@@AAE_NXZ 10032bfa f i libucrt:output.obj
 0001:00031c02       ?unget@?$c_string_character_source@D@__crt_strtox@@QAEXD@Z 10032c02 f i libucrt:output.obj
 0001:00031c2b       ?unget@?$c_string_character_source@_W@__crt_strtox@@QAEX_W@Z 10032c2b f i libucrt:output.obj
 0001:00031c59       ?unset_flag@?$output_processor@DV?$stream_output_adapter@D@__crt_stdio_output@@V?$format_validation_base@DV?$stream_output_adapter@D@__crt_stdio_output@@@2@@__crt_stdio_output@@AAEXI@Z 10032c59 f i libucrt:output.obj
 0001:00031c6a       ?unset_flag@?$output_processor@DV?$stream_output_adapter@D@__crt_stdio_output@@V?$positional_parameter_base@DV?$stream_output_adapter@D@__crt_stdio_output@@@2@@__crt_stdio_output@@AAEXI@Z 10032c6a f i libucrt:output.obj
 0001:00031c7b       ?unset_flag@?$output_processor@DV?$stream_output_adapter@D@__crt_stdio_output@@V?$standard_base@DV?$stream_output_adapter@D@__crt_stdio_output@@@2@@__crt_stdio_output@@AAEXI@Z 10032c7b f i libucrt:output.obj
 0001:00031c8c       ?unset_flag@?$output_processor@DV?$string_output_adapter@D@__crt_stdio_output@@V?$format_validation_base@DV?$string_output_adapter@D@__crt_stdio_output@@@2@@__crt_stdio_output@@AAEXI@Z 10032c8c f i libucrt:output.obj
 0001:00031c9d       ?unset_flag@?$output_processor@DV?$string_output_adapter@D@__crt_stdio_output@@V?$positional_parameter_base@DV?$string_output_adapter@D@__crt_stdio_output@@@2@@__crt_stdio_output@@AAEXI@Z 10032c9d f i libucrt:output.obj
 0001:00031cae       ?unset_flag@?$output_processor@DV?$string_output_adapter@D@__crt_stdio_output@@V?$standard_base@DV?$string_output_adapter@D@__crt_stdio_output@@@2@@__crt_stdio_output@@AAEXI@Z 10032cae f i libucrt:output.obj
 0001:00031cbf       ?unset_flag@?$output_processor@_WV?$stream_output_adapter@_W@__crt_stdio_output@@V?$format_validation_base@_WV?$stream_output_adapter@_W@__crt_stdio_output@@@2@@__crt_stdio_output@@AAEXI@Z 10032cbf f i libucrt:output.obj
 0001:00031cd0       ?unset_flag@?$output_processor@_WV?$stream_output_adapter@_W@__crt_stdio_output@@V?$positional_parameter_base@_WV?$stream_output_adapter@_W@__crt_stdio_output@@@2@@__crt_stdio_output@@AAEXI@Z 10032cd0 f i libucrt:output.obj
 0001:00031ce1       ?unset_flag@?$output_processor@_WV?$stream_output_adapter@_W@__crt_stdio_output@@V?$standard_base@_WV?$stream_output_adapter@_W@__crt_stdio_output@@@2@@__crt_stdio_output@@AAEXI@Z 10032ce1 f i libucrt:output.obj
 0001:00031cf2       ?unset_flag@?$output_processor@_WV?$string_output_adapter@_W@__crt_stdio_output@@V?$format_validation_base@_WV?$string_output_adapter@_W@__crt_stdio_output@@@2@@__crt_stdio_output@@AAEXI@Z 10032cf2 f i libucrt:output.obj
 0001:00031d03       ?unset_flag@?$output_processor@_WV?$string_output_adapter@_W@__crt_stdio_output@@V?$positional_parameter_base@_WV?$string_output_adapter@_W@__crt_stdio_output@@@2@@__crt_stdio_output@@AAEXI@Z 10032d03 f i libucrt:output.obj
 0001:00031d14       ?unset_flag@?$output_processor@_WV?$string_output_adapter@_W@__crt_stdio_output@@V?$standard_base@_WV?$string_output_adapter@_W@__crt_stdio_output@@@2@@__crt_stdio_output@@AAEXI@Z 10032d14 f i libucrt:output.obj
 0001:00031d25       ?update_field_width@?$positional_parameter_base@DV?$stream_output_adapter@D@__crt_stdio_output@@@__crt_stdio_output@@IAE_NXZ 10032d25 f i libucrt:output.obj
 0001:00031dfa       ?update_field_width@?$positional_parameter_base@DV?$string_output_adapter@D@__crt_stdio_output@@@__crt_stdio_output@@IAE_NXZ 10032dfa f i libucrt:output.obj
 0001:00031ecf       ?update_field_width@?$positional_parameter_base@_WV?$stream_output_adapter@_W@__crt_stdio_output@@@__crt_stdio_output@@IAE_NXZ 10032ecf f i libucrt:output.obj
 0001:00031fa5       ?update_field_width@?$positional_parameter_base@_WV?$string_output_adapter@_W@__crt_stdio_output@@@__crt_stdio_output@@IAE_NXZ 10032fa5 f i libucrt:output.obj
 0001:0003207b       ?update_field_width@?$standard_base@DV?$stream_output_adapter@D@__crt_stdio_output@@@__crt_stdio_output@@IAE_NXZ 1003307b f i libucrt:output.obj
 0001:0003208c       ?update_field_width@?$standard_base@DV?$string_output_adapter@D@__crt_stdio_output@@@__crt_stdio_output@@IAE_NXZ 1003308c f i libucrt:output.obj
 0001:0003209d       ?update_field_width@?$standard_base@_WV?$stream_output_adapter@_W@__crt_stdio_output@@@__crt_stdio_output@@IAE_NXZ 1003309d f i libucrt:output.obj
 0001:000320ae       ?update_field_width@?$standard_base@_WV?$string_output_adapter@_W@__crt_stdio_output@@@__crt_stdio_output@@IAE_NXZ 100330ae f i libucrt:output.obj
 0001:000320c0       ?update_locale@__crt_cached_ptd_host@@AAEXXZ 100330c0 f i libucrt:output.obj
 0001:000320d0       ?update_locale_slow@__crt_cached_ptd_host@@AAEXXZ 100330d0 f i libucrt:output.obj
 0001:0003212b       ?update_precision@?$positional_parameter_base@DV?$stream_output_adapter@D@__crt_stdio_output@@@__crt_stdio_output@@IAE_NXZ 1003312b f i libucrt:output.obj
 0001:00032200       ?update_precision@?$positional_parameter_base@DV?$string_output_adapter@D@__crt_stdio_output@@@__crt_stdio_output@@IAE_NXZ 10033200 f i libucrt:output.obj
 0001:000322d5       ?update_precision@?$positional_parameter_base@_WV?$stream_output_adapter@_W@__crt_stdio_output@@@__crt_stdio_output@@IAE_NXZ 100332d5 f i libucrt:output.obj
 0001:000323ab       ?update_precision@?$positional_parameter_base@_WV?$string_output_adapter@_W@__crt_stdio_output@@@__crt_stdio_output@@IAE_NXZ 100333ab f i libucrt:output.obj
 0001:00032481       ?update_precision@?$standard_base@DV?$stream_output_adapter@D@__crt_stdio_output@@@__crt_stdio_output@@IAE_NXZ 10033481 f i libucrt:output.obj
 0001:00032492       ?update_precision@?$standard_base@DV?$string_output_adapter@D@__crt_stdio_output@@@__crt_stdio_output@@IAE_NXZ 10033492 f i libucrt:output.obj
 0001:000324a3       ?update_precision@?$standard_base@_WV?$stream_output_adapter@_W@__crt_stdio_output@@@__crt_stdio_output@@IAE_NXZ 100334a3 f i libucrt:output.obj
 0001:000324b4       ?update_precision@?$standard_base@_WV?$string_output_adapter@_W@__crt_stdio_output@@@__crt_stdio_output@@IAE_NXZ 100334b4 f i libucrt:output.obj
 0001:000324c5       ?valid@__crt_stdio_stream@@QBE_NXZ 100334c5 f i libucrt:output.obj
 0001:000324cc       ?validate@?$c_string_character_source@D@__crt_strtox@@QBE_NXZ 100334cc f i libucrt:output.obj
 0001:000324e7       ?validate@?$c_string_character_source@_W@__crt_strtox@@QBE_NXZ 100334e7 f i libucrt:output.obj
 0001:00032502       ?validate@?$stream_output_adapter@D@__crt_stdio_output@@QBE_NAAV__crt_cached_ptd_host@@@Z 10033502 f i libucrt:output.obj
 0001:0003253a       ?validate@?$stream_output_adapter@_W@__crt_stdio_output@@QBE_NAAV__crt_cached_ptd_host@@@Z 1003353a f i libucrt:output.obj
 0001:0003256b       ?validate@?$string_output_adapter@D@__crt_stdio_output@@QBE_NAAV__crt_cached_ptd_host@@@Z 1003356b f i libucrt:output.obj
 0001:0003259c       ?validate@?$string_output_adapter@_W@__crt_stdio_output@@QBE_NAAV__crt_cached_ptd_host@@@Z 1003359c f i libucrt:output.obj
 0001:000325cd       ?validate_and_store_parameter_data@?$positional_parameter_base@DV?$stream_output_adapter@D@__crt_stdio_output@@@__crt_stdio_output@@AAE_NAAUparameter_data@12@W4parameter_type@12@DW4length_modifier@2@@Z 100335cd f i libucrt:output.obj
 0001:0003262f       ?validate_and_store_parameter_data@?$positional_parameter_base@DV?$string_output_adapter@D@__crt_stdio_output@@@__crt_stdio_output@@AAE_NAAUparameter_data@12@W4parameter_type@12@DW4length_modifier@2@@Z 1003362f f i libucrt:output.obj
 0001:00032691       ?validate_and_store_parameter_data@?$positional_parameter_base@_WV?$stream_output_adapter@_W@__crt_stdio_output@@@__crt_stdio_output@@AAE_NAAUparameter_data@12@W4parameter_type@12@_WW4length_modifier@2@@Z 10033691 f i libucrt:output.obj
 0001:000326f5       ?validate_and_store_parameter_data@?$positional_parameter_base@_WV?$string_output_adapter@_W@__crt_stdio_output@@@__crt_stdio_output@@AAE_NAAUparameter_data@12@W4parameter_type@12@_WW4length_modifier@2@@Z 100336f5 f i libucrt:output.obj
 0001:00032759       ?validate_and_update_state_at_beginning_of_format_character@?$positional_parameter_base@DV?$stream_output_adapter@D@__crt_stdio_output@@@__crt_stdio_output@@IAE_NXZ 10033759 f i libucrt:output.obj
 0001:00032870       ?validate_and_update_state_at_beginning_of_format_character@?$positional_parameter_base@DV?$string_output_adapter@D@__crt_stdio_output@@@__crt_stdio_output@@IAE_NXZ 10033870 f i libucrt:output.obj
 0001:00032987       ?validate_and_update_state_at_beginning_of_format_character@?$positional_parameter_base@_WV?$stream_output_adapter@_W@__crt_stdio_output@@@__crt_stdio_output@@IAE_NXZ 10033987 f i libucrt:output.obj
 0001:00032aab       ?validate_and_update_state_at_beginning_of_format_character@?$positional_parameter_base@_WV?$string_output_adapter@_W@__crt_stdio_output@@@__crt_stdio_output@@IAE_NXZ 10033aab f i libucrt:output.obj
 0001:00032bcf       ?validate_and_update_state_at_beginning_of_format_character@?$standard_base@DV?$stream_output_adapter@D@__crt_stdio_output@@@__crt_stdio_output@@IAE_NXZ 10033bcf f i libucrt:output.obj
 0001:00032bd2       ?validate_and_update_state_at_beginning_of_format_character@?$standard_base@DV?$string_output_adapter@D@__crt_stdio_output@@@__crt_stdio_output@@IAE_NXZ 10033bd2 f i libucrt:output.obj
 0001:00032bd5       ?validate_and_update_state_at_beginning_of_format_character@?$standard_base@_WV?$stream_output_adapter@_W@__crt_stdio_output@@@__crt_stdio_output@@IAE_NXZ 10033bd5 f i libucrt:output.obj
 0001:00032bd8       ?validate_and_update_state_at_beginning_of_format_character@?$standard_base@_WV?$string_output_adapter@_W@__crt_stdio_output@@@__crt_stdio_output@@IAE_NXZ 10033bd8 f i libucrt:output.obj
 0001:00032bdb       ?validate_and_update_state_at_end_of_format_string@?$format_validation_base@DV?$stream_output_adapter@D@__crt_stdio_output@@@__crt_stdio_output@@IAE_NXZ 10033bdb f i libucrt:output.obj
 0001:00032c0c       ?validate_and_update_state_at_end_of_format_string@?$format_validation_base@DV?$string_output_adapter@D@__crt_stdio_output@@@__crt_stdio_output@@IAE_NXZ 10033c0c f i libucrt:output.obj
 0001:00032c3d       ?validate_and_update_state_at_end_of_format_string@?$format_validation_base@_WV?$stream_output_adapter@_W@__crt_stdio_output@@@__crt_stdio_output@@IAE_NXZ 10033c3d f i libucrt:output.obj
 0001:00032c6e       ?validate_and_update_state_at_end_of_format_string@?$format_validation_base@_WV?$string_output_adapter@_W@__crt_stdio_output@@@__crt_stdio_output@@IAE_NXZ 10033c6e f i libucrt:output.obj
 0001:00032c9f       ?validate_and_update_state_at_end_of_format_string@?$positional_parameter_base@DV?$stream_output_adapter@D@__crt_stdio_output@@@__crt_stdio_output@@IAE_NXZ 10033c9f f i libucrt:output.obj
 0001:00032d59       ?validate_and_update_state_at_end_of_format_string@?$positional_parameter_base@DV?$string_output_adapter@D@__crt_stdio_output@@@__crt_stdio_output@@IAE_NXZ 10033d59 f i libucrt:output.obj
 0001:00032e13       ?validate_and_update_state_at_end_of_format_string@?$positional_parameter_base@_WV?$stream_output_adapter@_W@__crt_stdio_output@@@__crt_stdio_output@@IAE_NXZ 10033e13 f i libucrt:output.obj
 0001:00032ecd       ?validate_and_update_state_at_end_of_format_string@?$positional_parameter_base@_WV?$string_output_adapter@_W@__crt_stdio_output@@@__crt_stdio_output@@IAE_NXZ 10033ecd f i libucrt:output.obj
 0001:00032f87       ?validate_and_update_state_at_end_of_format_string@?$standard_base@DV?$stream_output_adapter@D@__crt_stdio_output@@@__crt_stdio_output@@IBE_NXZ 10033f87 f i libucrt:output.obj
 0001:00032f8a       ?validate_and_update_state_at_end_of_format_string@?$standard_base@DV?$string_output_adapter@D@__crt_stdio_output@@@__crt_stdio_output@@IBE_NXZ 10033f8a f i libucrt:output.obj
 0001:00032f8d       ?validate_and_update_state_at_end_of_format_string@?$standard_base@_WV?$stream_output_adapter@_W@__crt_stdio_output@@@__crt_stdio_output@@IBE_NXZ 10033f8d f i libucrt:output.obj
 0001:00032f90       ?validate_and_update_state_at_end_of_format_string@?$standard_base@_WV?$string_output_adapter@_W@__crt_stdio_output@@@__crt_stdio_output@@IBE_NXZ 10033f90 f i libucrt:output.obj
 0001:00032f93       ?validate_state_for_type_case_a@?$positional_parameter_base@DV?$stream_output_adapter@D@__crt_stdio_output@@@__crt_stdio_output@@IAE_NXZ 10033f93 f i libucrt:output.obj
 0001:00032ff2       ?validate_state_for_type_case_a@?$positional_parameter_base@DV?$string_output_adapter@D@__crt_stdio_output@@@__crt_stdio_output@@IAE_NXZ 10033ff2 f i libucrt:output.obj
 0001:00033051       ?validate_state_for_type_case_a@?$positional_parameter_base@_WV?$stream_output_adapter@_W@__crt_stdio_output@@@__crt_stdio_output@@IAE_NXZ 10034051 f i libucrt:output.obj
 0001:000330b0       ?validate_state_for_type_case_a@?$positional_parameter_base@_WV?$string_output_adapter@_W@__crt_stdio_output@@@__crt_stdio_output@@IAE_NXZ 100340b0 f i libucrt:output.obj
 0001:0003310f       ?validate_state_for_type_case_a@?$standard_base@DV?$stream_output_adapter@D@__crt_stdio_output@@@__crt_stdio_output@@IBE_NXZ 1003410f f i libucrt:output.obj
 0001:00033112       ?validate_state_for_type_case_a@?$standard_base@DV?$string_output_adapter@D@__crt_stdio_output@@@__crt_stdio_output@@IBE_NXZ 10034112 f i libucrt:output.obj
 0001:00033115       ?validate_state_for_type_case_a@?$standard_base@_WV?$stream_output_adapter@_W@__crt_stdio_output@@@__crt_stdio_output@@IBE_NXZ 10034115 f i libucrt:output.obj
 0001:00033118       ?validate_state_for_type_case_a@?$standard_base@_WV?$string_output_adapter@_W@__crt_stdio_output@@@__crt_stdio_output@@IBE_NXZ 10034118 f i libucrt:output.obj
 0001:0003311b       ?validate_stream_is_ansi_if_required@?$__acrt_stdio_char_traits@D@@SA_NQAU_iobuf@@@Z 1003411b f i libucrt:output.obj
 0001:000331a2       ?validate_stream_is_ansi_if_required@?$__acrt_stdio_char_traits@_W@@SA_NQAU_iobuf@@@Z 100341a2 f i libucrt:output.obj
 0001:000331a5       ?wide_character_to_digit@__crt_strtox@@YAH_W@Z 100341a5 f i libucrt:output.obj
 0001:00033346       ?wide_null_string@?$output_processor@DV?$stream_output_adapter@D@__crt_stdio_output@@V?$format_validation_base@DV?$stream_output_adapter@D@__crt_stdio_output@@@2@@__crt_stdio_output@@CAPA_WXZ 10034346 f i libucrt:output.obj
 0001:0003334c       ?wide_null_string@?$output_processor@DV?$stream_output_adapter@D@__crt_stdio_output@@V?$positional_parameter_base@DV?$stream_output_adapter@D@__crt_stdio_output@@@2@@__crt_stdio_output@@CAPA_WXZ 1003434c f i libucrt:output.obj
 0001:00033352       ?wide_null_string@?$output_processor@DV?$stream_output_adapter@D@__crt_stdio_output@@V?$standard_base@DV?$stream_output_adapter@D@__crt_stdio_output@@@2@@__crt_stdio_output@@CAPA_WXZ 10034352 f i libucrt:output.obj
 0001:00033358       ?wide_null_string@?$output_processor@DV?$string_output_adapter@D@__crt_stdio_output@@V?$format_validation_base@DV?$string_output_adapter@D@__crt_stdio_output@@@2@@__crt_stdio_output@@CAPA_WXZ 10034358 f i libucrt:output.obj
 0001:0003335e       ?wide_null_string@?$output_processor@DV?$string_output_adapter@D@__crt_stdio_output@@V?$positional_parameter_base@DV?$string_output_adapter@D@__crt_stdio_output@@@2@@__crt_stdio_output@@CAPA_WXZ 1003435e f i libucrt:output.obj
 0001:00033364       ?wide_null_string@?$output_processor@DV?$string_output_adapter@D@__crt_stdio_output@@V?$standard_base@DV?$string_output_adapter@D@__crt_stdio_output@@@2@@__crt_stdio_output@@CAPA_WXZ 10034364 f i libucrt:output.obj
 0001:0003336a       ?wide_null_string@?$output_processor@_WV?$stream_output_adapter@_W@__crt_stdio_output@@V?$format_validation_base@_WV?$stream_output_adapter@_W@__crt_stdio_output@@@2@@__crt_stdio_output@@CAPA_WXZ 1003436a f i libucrt:output.obj
 0001:00033370       ?wide_null_string@?$output_processor@_WV?$stream_output_adapter@_W@__crt_stdio_output@@V?$positional_parameter_base@_WV?$stream_output_adapter@_W@__crt_stdio_output@@@2@@__crt_stdio_output@@CAPA_WXZ 10034370 f i libucrt:output.obj
 0001:00033376       ?wide_null_string@?$output_processor@_WV?$stream_output_adapter@_W@__crt_stdio_output@@V?$standard_base@_WV?$stream_output_adapter@_W@__crt_stdio_output@@@2@@__crt_stdio_output@@CAPA_WXZ 10034376 f i libucrt:output.obj
 0001:0003337c       ?wide_null_string@?$output_processor@_WV?$string_output_adapter@_W@__crt_stdio_output@@V?$format_validation_base@_WV?$string_output_adapter@_W@__crt_stdio_output@@@2@@__crt_stdio_output@@CAPA_WXZ 1003437c f i libucrt:output.obj
 0001:00033382       ?wide_null_string@?$output_processor@_WV?$string_output_adapter@_W@__crt_stdio_output@@V?$positional_parameter_base@_WV?$string_output_adapter@_W@__crt_stdio_output@@@2@@__crt_stdio_output@@CAPA_WXZ 10034382 f i libucrt:output.obj
 0001:00033388       ?wide_null_string@?$output_processor@_WV?$string_output_adapter@_W@__crt_stdio_output@@V?$standard_base@_WV?$string_output_adapter@_W@__crt_stdio_output@@@2@@__crt_stdio_output@@CAPA_WXZ 10034388 f i libucrt:output.obj
 0001:0003338e       ?write_character@?$output_adapter_common@DV?$stream_output_adapter@D@__crt_stdio_output@@@__crt_stdio_output@@QBEXDQAHAAV__crt_cached_ptd_host@@@Z 1003438e f i libucrt:output.obj
 0001:000333b0       ?write_character@?$output_adapter_common@_WV?$stream_output_adapter@_W@__crt_stdio_output@@@__crt_stdio_output@@QBEX_WQAHAAV__crt_cached_ptd_host@@@Z 100343b0 f i libucrt:output.obj
 0001:000333d2       ?write_character@?$string_output_adapter@D@__crt_stdio_output@@QBE_NDQAHAAV__crt_cached_ptd_host@@@Z 100343d2 f i libucrt:output.obj
 0001:00033414       ?write_character@?$string_output_adapter@_W@__crt_stdio_output@@QBE_N_WQAHAAV__crt_cached_ptd_host@@@Z 10034414 f i libucrt:output.obj
 0001:00033459       ?write_character_without_count_update@?$stream_output_adapter@D@__crt_stdio_output@@QBE_NDAAV__crt_cached_ptd_host@@@Z 10034459 f i libucrt:output.obj
 0001:00033493       ?write_character_without_count_update@?$stream_output_adapter@_W@__crt_stdio_output@@QBE_N_WAAV__crt_cached_ptd_host@@@Z 10034493 f i libucrt:output.obj
 0001:000334d0       ?write_stored_string_tchar@?$output_processor@DV?$stream_output_adapter@D@__crt_stdio_output@@V?$format_validation_base@DV?$stream_output_adapter@D@__crt_stdio_output@@@2@@__crt_stdio_output@@AAE_ND@Z 100344d0 f i libucrt:output.obj
 0001:0003357b       ?write_stored_string_tchar@?$output_processor@DV?$stream_output_adapter@D@__crt_stdio_output@@V?$positional_parameter_base@DV?$stream_output_adapter@D@__crt_stdio_output@@@2@@__crt_stdio_output@@AAE_ND@Z 1003457b f i libucrt:output.obj
 0001:00033626       ?write_stored_string_tchar@?$output_processor@DV?$stream_output_adapter@D@__crt_stdio_output@@V?$standard_base@DV?$stream_output_adapter@D@__crt_stdio_output@@@2@@__crt_stdio_output@@AAE_ND@Z 10034626 f i libucrt:output.obj
 0001:000336d1       ?write_stored_string_tchar@?$output_processor@DV?$string_output_adapter@D@__crt_stdio_output@@V?$format_validation_base@DV?$string_output_adapter@D@__crt_stdio_output@@@2@@__crt_stdio_output@@AAE_ND@Z 100346d1 f i libucrt:output.obj
 0001:0003377c       ?write_stored_string_tchar@?$output_processor@DV?$string_output_adapter@D@__crt_stdio_output@@V?$positional_parameter_base@DV?$string_output_adapter@D@__crt_stdio_output@@@2@@__crt_stdio_output@@AAE_ND@Z 1003477c f i libucrt:output.obj
 0001:00033827       ?write_stored_string_tchar@?$output_processor@DV?$string_output_adapter@D@__crt_stdio_output@@V?$standard_base@DV?$string_output_adapter@D@__crt_stdio_output@@@2@@__crt_stdio_output@@AAE_ND@Z 10034827 f i libucrt:output.obj
 0001:000338d2       ?write_stored_string_tchar@?$output_processor@_WV?$stream_output_adapter@_W@__crt_stdio_output@@V?$format_validation_base@_WV?$stream_output_adapter@_W@__crt_stdio_output@@@2@@__crt_stdio_output@@AAE_N_W@Z 100348d2 f i libucrt:output.obj
 0001:0003397f       ?write_stored_string_tchar@?$output_processor@_WV?$stream_output_adapter@_W@__crt_stdio_output@@V?$positional_parameter_base@_WV?$stream_output_adapter@_W@__crt_stdio_output@@@2@@__crt_stdio_output@@AAE_N_W@Z 1003497f f i libucrt:output.obj
 0001:00033a2c       ?write_stored_string_tchar@?$output_processor@_WV?$stream_output_adapter@_W@__crt_stdio_output@@V?$standard_base@_WV?$stream_output_adapter@_W@__crt_stdio_output@@@2@@__crt_stdio_output@@AAE_N_W@Z 10034a2c f i libucrt:output.obj
 0001:00033ad9       ?write_stored_string_tchar@?$output_processor@_WV?$string_output_adapter@_W@__crt_stdio_output@@V?$format_validation_base@_WV?$string_output_adapter@_W@__crt_stdio_output@@@2@@__crt_stdio_output@@AAE_N_W@Z 10034ad9 f i libucrt:output.obj
 0001:00033bb6       ?write_stored_string_tchar@?$output_processor@_WV?$string_output_adapter@_W@__crt_stdio_output@@V?$positional_parameter_base@_WV?$string_output_adapter@_W@__crt_stdio_output@@@2@@__crt_stdio_output@@AAE_N_W@Z 10034bb6 f i libucrt:output.obj
 0001:00033c93       ?write_stored_string_tchar@?$output_processor@_WV?$string_output_adapter@_W@__crt_stdio_output@@V?$standard_base@_WV?$string_output_adapter@_W@__crt_stdio_output@@@2@@__crt_stdio_output@@AAE_N_W@Z 10034c93 f i libucrt:output.obj
 0001:00033d70       ?write_string@?$stream_output_adapter@D@__crt_stdio_output@@QBEXQBDHQAHAAV__crt_cached_ptd_host@@@Z 10034d70 f i libucrt:output.obj
 0001:00033d9c       ?write_string@?$stream_output_adapter@_W@__crt_stdio_output@@QBEXQB_WHQAHAAV__crt_cached_ptd_host@@@Z 10034d9c f i libucrt:output.obj
 0001:00033dc8       ?write_string@?$string_output_adapter@D@__crt_stdio_output@@QBEXQBDHQAHAAV__crt_cached_ptd_host@@@Z 10034dc8 f i libucrt:output.obj
 0001:00033e2f       ?write_string@?$string_output_adapter@_W@__crt_stdio_output@@QBEXQB_WHQAHAAV__crt_cached_ptd_host@@@Z 10034e2f f i libucrt:output.obj
 0001:00033ea0       ?write_string_impl@?$output_adapter_common@DV?$stream_output_adapter@D@__crt_stdio_output@@@__crt_stdio_output@@IBEXQBDHQAHAAV__crt_cached_ptd_host@@@Z 10034ea0 f i libucrt:output.obj
 0001:00033f1f       ?write_string_impl@?$output_adapter_common@_WV?$stream_output_adapter@_W@__crt_stdio_output@@@__crt_stdio_output@@IBEXQB_WHQAHAAV__crt_cached_ptd_host@@@Z 10034f1f f i libucrt:output.obj
 0001:00033fa1       ___acrt_disable_global_locale_sync 10034fa1 f i libucrt:output.obj
 0001:00033fb4       ___acrt_isleadbyte_l_noupdate 10034fb4 f i libucrt:output.obj
 0001:00033fd2       ___acrt_locale_get_ctype_array_value 10034fd2 f i libucrt:output.obj
 0001:00033ff4       ___ascii_iswalpha          10034ff4 f i libucrt:output.obj
 0001:00034017       ___ascii_toupper           10035017 f i libucrt:output.obj
 0001:0003402e       ___ascii_towupper          1003502e f i libucrt:output.obj
 0001:00034045       ___stdio_common_vfprintf   10035045 f   libucrt:output.obj
 0001:000340e9       ___stdio_common_vfprintf_p 100350e9 f   libucrt:output.obj
 0001:0003418d       ___stdio_common_vfprintf_s 1003518d f   libucrt:output.obj
 0001:00034231       ___stdio_common_vfwprintf  10035231 f   libucrt:output.obj
 0001:000342d5       ___stdio_common_vfwprintf_p 100352d5 f   libucrt:output.obj
 0001:00034379       ___stdio_common_vfwprintf_s 10035379 f   libucrt:output.obj
 0001:0003441d       ___stdio_common_vsnprintf_s 1003541d f   libucrt:output.obj
 0001:00034461       ___stdio_common_vsnwprintf_s 10035461 f   libucrt:output.obj
 0001:000344a5       ___stdio_common_vsprintf   100354a5 f   libucrt:output.obj
 0001:000344e6       ___stdio_common_vsprintf_p 100354e6 f   libucrt:output.obj
 0001:00034527       ___stdio_common_vsprintf_s 10035527 f   libucrt:output.obj
 0001:00034568       ___stdio_common_vswprintf  10035568 f   libucrt:output.obj
 0001:000345a9       ___stdio_common_vswprintf_p 100355a9 f   libucrt:output.obj
 0001:000345ea       ___stdio_common_vswprintf_s 100355ea f   libucrt:output.obj
 0001:0003462b       __ctype_fast_check_internal 1003562b f i libucrt:output.obj
 0001:00034645       __isdigit_fast_internal    10035645 f i libucrt:output.obj
 0001:0003465f       __tolower_fast_internal    1003565f f i libucrt:output.obj
 0001:00034678       _wmemcpy                   10035678 f i libucrt:wmemcpy_s.obj
 0001:00034693       _wmemcpy_s                 10035693 f   libucrt:wmemcpy_s.obj
 0001:00034717       _wmemset                   10035717 f i libucrt:wmemcpy_s.obj
 0001:00034743       ??0?$__crt_scoped_stack_ptr@_W@@QAE@U?$__crt_scoped_stack_ptr_tag@_W@@@Z 10035743 f i libucrt:wcsupr.obj
 0001:00034753       ??0?$__crt_scoped_stack_ptr_tag@_W@@QAE@QA_W@Z 10035753 f i libucrt:wcsupr.obj
 0001:00034763       ??0_LocaleUpdate@@QAE@QAU__crt_locale_pointers@@@Z 10035763 f i libucrt:wcsupr.obj
 0001:000347e5       ??1?$__crt_scoped_stack_ptr@_W@@QAE@XZ 100357e5 f i libucrt:wcsupr.obj
 0001:000347ee       ??1_LocaleUpdate@@QAE@XZ   100357ee f i libucrt:wcsupr.obj
 0001:000347fe       ?GetLocaleT@_LocaleUpdate@@QAEPAU__crt_locale_pointers@@XZ 100357fe f i libucrt:wcsupr.obj
 0001:0003497b       ?get@?$__crt_scoped_stack_ptr@_W@@QBEPA_WXZ 1003597b f i libucrt:wcsupr.obj
 0001:0003497e       __MallocaComputeSize       1003597e f i libucrt:wcsupr.obj
 0001:00034991       __MarkAllocaS              10035991 f i libucrt:wcsupr.obj
 0001:000349a7       __freea_crt                100359a7 f i libucrt:wcsupr.obj
 0001:000349c7       __wcsupr                   100359c7 f   libucrt:wcsupr.obj
 0001:00034a34       __wcsupr_l                 10035a34 f   libucrt:wcsupr.obj
 0001:00034a4e       __wcsupr_s                 10035a4e f   libucrt:wcsupr.obj
 0001:00034a65       __wcsupr_s_l               10035a65 f   libucrt:wcsupr.obj
 0001:00034a9c       _free                      10035a9c f   libucrt:free.obj
 0001:00034ab7       _malloc                    10035ab7 f   libucrt:malloc.obj
 0001:00034ac2       _realloc                   10035ac2 f   libucrt:realloc.obj
 0001:00034acd       ??$?B$$A6GXPAXK0@Z@__crt_fast_encoded_nullptr_t@@QBEP6GXPAXK0@ZXZ 10035acd f i libucrt:exit.obj
 0001:00034b75       ??$__crt_fast_decode_pointer@P6GXPAXK0@Z@@YAP6GXPAXK0@ZQ6GX0K0@Z@Z 10035b75 f i libucrt:exit.obj
 0001:00034b90       ??$__crt_fast_encode_pointer@P6GXPAXK0@Z@@YAP6GXPAXK0@ZQ6GX0K0@Z@Z 10035b90 f i libucrt:exit.obj
 0001:00034baf       ??$__crt_get_proc_address@P6GXI@Z@@YAP6GXI@ZQAUHINSTANCE__@@QBD@Z 10035baf f i libucrt:exit.obj
 0001:00034c02       ??0?$__crt_unique_handle_t@U__crt_hmodule_traits@@@@QAE@QAUHINSTANCE__@@@Z 10035c02 f i libucrt:exit.obj
 0001:00034c12       ??1?$__crt_unique_handle_t@U__crt_hmodule_traits@@@@QAE@XZ 10035c12 f i libucrt:exit.obj
 0001:00034d23       ?__acrt_select_exit_lock@@YA?AW4__acrt_lock_id@@XZ 10035d23 f i libucrt:exit.obj
 0001:00034d27       ?__crt_fast_encode_pointer@@YA?AU__crt_fast_encoded_nullptr_t@@$$T@Z 10035d27 f i libucrt:exit.obj
 0001:00034d45       ?close@?$__crt_unique_handle_t@U__crt_hmodule_traits@@@@QAEXXZ 10035d45 f i libucrt:exit.obj
 0001:00034d5c       ?close@__crt_hmodule_traits@@SA_NPAUHINSTANCE__@@@Z 10035d5c f i libucrt:exit.obj
 0001:00034e39       ?get@?$__crt_unique_handle_t@U__crt_hmodule_traits@@@@QBEPAUHINSTANCE__@@XZ 10035e39 f i libucrt:exit.obj
 0001:00034e3c       ?get_address_of@?$__crt_unique_handle_t@U__crt_hmodule_traits@@@@QAEPAPAUHINSTANCE__@@XZ 10035e3c f i libucrt:exit.obj
 0001:00034e3f       ?get_invalid_value@__crt_hmodule_traits@@SAPAUHINSTANCE__@@XZ 10035e3f f i libucrt:exit.obj
 0001:00034f1f       __Exit                     10035f1f f   libucrt:exit.obj
 0001:00034f35       ___acrt_initialize_thread_local_exit_callback 10035f35 f   libucrt:exit.obj
 0001:00034f44       __c_exit                   10035f44 f   libucrt:exit.obj
 0001:00034f53       __cexit                    10035f53 f   libucrt:exit.obj
 0001:00034f62       __exit                     10035f62 f   libucrt:exit.obj
 0001:00034f78       __is_c_termination_complete 10035f78 f   libucrt:exit.obj
 0001:00034f7f       __register_thread_local_exe_atexit_callback 10035f7f f   libucrt:exit.obj
 0001:00034fa5       _exit                      10035fa5 f   libucrt:exit.obj
 0001:00034fbb       _quick_exit                10035fbb f   libucrt:exit.obj
 0001:00034fd1       __set_abort_behavior       10035fd1 f   libucrt:abort.obj
 0001:00034ff2       _abort                     10035ff2 f   libucrt:abort.obj
 0001:00035036       ___iswcsym                 10036036 f i libucrt:_wctype.obj
 0001:0003505c       ___iswcsymf                1003605c f i libucrt:_wctype.obj
 0001:00035082       __isleadbyte_l             10036082 f i libucrt:_wctype.obj
 0001:000350bc       __iswalnum_l               100360bc f i libucrt:_wctype.obj
 0001:000350d2       __iswalpha_l               100360d2 f i libucrt:_wctype.obj
 0001:000350e8       __iswblank_l               100360e8 f i libucrt:_wctype.obj
 0001:00035105       __iswcntrl_l               10036105 f i libucrt:_wctype.obj
 0001:00035118       __iswcsym_l                10036118 f i libucrt:_wctype.obj
 0001:0003513e       __iswcsymf_l               1003613e f i libucrt:_wctype.obj
 0001:00035164       __iswdigit_l               10036164 f i libucrt:_wctype.obj
 0001:00035177       __iswgraph_l               10036177 f i libucrt:_wctype.obj
 0001:0003518d       __iswlower_l               1003618d f i libucrt:_wctype.obj
 0001:000351a0       __iswprint_l               100361a0 f i libucrt:_wctype.obj
 0001:000351b6       __iswpunct_l               100361b6 f i libucrt:_wctype.obj
 0001:000351c9       __iswspace_l               100361c9 f i libucrt:_wctype.obj
 0001:000351dc       __iswupper_l               100361dc f i libucrt:_wctype.obj
 0001:000351ef       __iswxdigit_l              100361ef f i libucrt:_wctype.obj
 0001:00035205       _isleadbyte                10036205 f i libucrt:_wctype.obj
 0001:00035218       _iswalnum                  10036218 f i libucrt:_wctype.obj
 0001:0003522e       _iswalpha                  1003622e f i libucrt:_wctype.obj
 0001:00035244       _iswascii                  10036244 f i libucrt:_wctype.obj
 0001:00035258       _iswblank                  10036258 f i libucrt:_wctype.obj
 0001:00035275       _iswcntrl                  10036275 f i libucrt:_wctype.obj
 0001:00035288       _iswdigit                  10036288 f i libucrt:_wctype.obj
 0001:0003529b       _iswgraph                  1003629b f i libucrt:_wctype.obj
 0001:000352b1       _iswlower                  100362b1 f i libucrt:_wctype.obj
 0001:000352c4       _iswprint                  100362c4 f i libucrt:_wctype.obj
 0001:000352da       _iswpunct                  100362da f i libucrt:_wctype.obj
 0001:000352ed       _iswspace                  100362ed f i libucrt:_wctype.obj
 0001:00035300       _iswupper                  10036300 f i libucrt:_wctype.obj
 0001:00035313       _iswxdigit                 10036313 f i libucrt:_wctype.obj
 0001:00035329       _wcscmp                    10036329 f   libucrt:wcscmp.obj
 0001:00035369       ??B?$__crt_scoped_stack_ptr@_W@@QBE_NXZ 10036369 f i libucrt:wcslwr.obj
 0001:000354e9       __wcslwr                   100364e9 f   libucrt:wcslwr.obj
 0001:00035556       __wcslwr_l                 10036556 f   libucrt:wcslwr.obj
 0001:00035570       __wcslwr_s                 10036570 f   libucrt:wcslwr.obj
 0001:00035587       __wcslwr_s_l               10036587 f   libucrt:wcslwr.obj
 0001:000355be       __wremove                  100365be f   libucrt:wunlink.obj
 0001:000355e6       __wunlink                  100365e6 f   libucrt:wunlink.obj
 0001:000355f1       ??$?RPAU__crt_stdio_stream_data@@@__crt_internal_free_policy@@QBEXQBQAU__crt_stdio_stream_data@@@Z 100365f1 f i libucrt:_file.obj
 0001:00035603       ??0?$__crt_unique_heap_ptr@PAU__crt_stdio_stream_data@@U__crt_internal_free_policy@@@@QAE@QAPAU__crt_stdio_stream_data@@@Z 10036603 f i libucrt:_file.obj
 0001:00035613       ??1?$__crt_unique_heap_ptr@PAU__crt_stdio_stream_data@@U__crt_internal_free_policy@@@@QAE@XZ 10036613 f i libucrt:_file.obj
 0001:00035625       ?detach@?$__crt_unique_heap_ptr@PAU__crt_stdio_stream_data@@U__crt_internal_free_policy@@@@QAEPAPAU__crt_stdio_stream_data@@XZ 10036625 f i libucrt:_file.obj
 0001:0003562b       ?release@?$__crt_unique_heap_ptr@PAU__crt_stdio_stream_data@@U__crt_internal_free_policy@@@@QAEXXZ 1003662b f i libucrt:_file.obj
 0001:0003563d       ___acrt_initialize_stdio   1003663d f   libucrt:_file.obj
 0001:00035705       ___acrt_iob_func           10036705 f   libucrt:_file.obj
 0001:00035715       ___acrt_uninitialize_stdio 10036715 f   libucrt:_file.obj
 0001:00035761       __get_stream_buffer_pointers 10036761 f   libucrt:_file.obj
 0001:000357a7       __lock_file                100367a7 f   libucrt:_file.obj
 0001:000357bb       __unlock_file              100367bb f   libucrt:_file.obj
 0001:0003597b       _fputws                    1003697b f   libucrt:fputws.obj
 0001:00035bfa       ??$open_file@ABQBDABQBDABHPAU_iobuf@@@?$__crt_char_traits@D@@SAPAU_iobuf@@ABQBD0ABH$$QAPAU1@@Z 10036bfa f i libucrt:fopen.obj
 0001:00035c1d       ??$open_file@ABQB_WABQB_WABHPAU_iobuf@@@?$__crt_char_traits@_W@@SAPAU_iobuf@@ABQB_W0ABH$$QAPAU1@@Z 10036c1d f i libucrt:fopen.obj
 0001:00035c40       ?unlock@__crt_stdio_stream@@QBEXXZ 10036c40 f i libucrt:fopen.obj
 0001:00035c49       __fsopen                   10036c49 f   libucrt:fopen.obj
 0001:00035c54       __wfopen                   10036c54 f   libucrt:fopen.obj
 0001:00035c6b       __wfopen_s                 10036c6b f   libucrt:fopen.obj
 0001:00035cb2       __wfsopen                  10036cb2 f   libucrt:fopen.obj
 0001:00035cbd       _fopen                     10036cbd f   libucrt:fopen.obj
 0001:00035cd4       _fopen_s                   10036cd4 f   libucrt:fopen.obj
 0001:00035d1b       ??$?R_W@__crt_internal_free_policy@@QBEXQB_W@Z 10036d1b f i libucrt:wcsftime.obj
 0001:00035d2d       ??$__crt_time_is_leap_year@H@@YA_NH@Z 10036d2d f i libucrt:wcsftime.obj
 0001:00035d70       ??0?$__crt_unique_heap_ptr@_WU__crt_internal_free_policy@@@@QAE@QA_W@Z 10036d70 f i libucrt:wcsftime.obj
 0001:00035d80       ??1?$__crt_unique_heap_ptr@_WU__crt_internal_free_policy@@@@QAE@XZ 10036d80 f i libucrt:wcsftime.obj
 0001:00035d92       ?__crt_get_2digit_year@@YAHH@Z 10036d92 f i libucrt:wcsftime.obj
 0001:00035da9       ?__crt_get_century@@YAHH@Z 10036da9 f i libucrt:wcsftime.obj
 0001:00035ee6       ?detach@?$__crt_unique_heap_ptr@_WU__crt_internal_free_policy@@@@QAEPA_WXZ 10036ee6 f i libucrt:wcsftime.obj
 0001:000368c0       ?get@?$__crt_unique_heap_ptr@_WU__crt_internal_free_policy@@@@QBEPA_WXZ 100378c0 f i libucrt:wcsftime.obj
 0001:000368c3       ?release@?$__crt_unique_heap_ptr@_WU__crt_internal_free_policy@@@@QAEXXZ 100378c3 f i libucrt:wcsftime.obj
 0001:00036e53       __W_Getdays                10037e53 f   libucrt:wcsftime.obj
 0001:00036fb2       __W_Getmonths              10037fb2 f   libucrt:wcsftime.obj
 0001:00037111       __W_Gettnames              10038111 f   libucrt:wcsftime.obj
 0001:0003780d       __Wcsftime                 1003880d f   libucrt:wcsftime.obj
 0001:0003782d       __Wcsftime_l               1003882d f   libucrt:wcsftime.obj
 0001:0003798d       __invoke_watson_if_error   1003898d f i libucrt:wcsftime.obj
 0001:000379af       __wcsftime_l               100389af f   libucrt:wcsftime.obj
 0001:000379cf       _wcsftime                  100389cf f   libucrt:wcsftime.obj
 0001:00037b13       ?is_in_use@__crt_stdio_stream@@QBE_NXZ 10038b13 f i libucrt:fclose.obj
 0001:00037b1f       __fclose_nolock            10038b1f f   libucrt:fclose.obj
 0001:00037b4f       _fclose                    10038b4f f   libucrt:fclose.obj
 0001:00037dbc       _fputs                     10038dbc f   libucrt:fputs.obj
 0001:00037df0       ??$?RU__acrt_thread_parameter@@@__crt_internal_free_policy@@QBEXQBU__acrt_thread_parameter@@@Z 10038df0 f i libucrt:thread.obj
 0001:00037f00       ??0?$__crt_unique_heap_ptr@U__acrt_thread_parameter@@U__crt_internal_free_policy@@@@QAE@QAU__acrt_thread_parameter@@@Z 10038f00 f i libucrt:thread.obj
 0001:00037f20       ??1?$__crt_unique_heap_ptr@U__acrt_thread_parameter@@U__crt_internal_free_policy@@@@QAE@XZ 10038f20 f i libucrt:thread.obj
 0001:0003804e       ?detach@?$__crt_unique_heap_ptr@U__acrt_thread_parameter@@U__crt_internal_free_policy@@@@QAEPAU__acrt_thread_parameter@@XZ 1003904e f i libucrt:thread.obj
 0001:00038064       ?release@?$__crt_unique_heap_ptr@U__acrt_thread_parameter@@U__crt_internal_free_policy@@@@QAEXXZ 10039064 f i libucrt:thread.obj
 0001:000380ad       __beginthread              100390ad f   libucrt:thread.obj
 0001:0003813b       __beginthreadex            1003913b f   libucrt:thread.obj
 0001:000381be       __endthread                100391be f   libucrt:thread.obj
 0001:000381c6       __endthreadex              100391c6 f   libucrt:thread.obj
 0001:000381d4       ??$?B$$A6AXH@Z@__crt_fast_encoded_nullptr_t@@QBEP6AXH@ZXZ 100391d4 f i libucrt:signal.obj
 0001:00038268       ??$__crt_fast_decode_pointer@P6AXH@Z@@YAP6AXH@ZQ6AXH@Z@Z 10039268 f i libucrt:signal.obj
 0001:00038283       ??$__crt_fast_encode_pointer@P6AXH@Z@@YAP6AXH@ZQ6AXH@Z@Z 10039283 f i libucrt:signal.obj
 0001:000383df       ?initialize@?$dual_state_global@P6AXH@Z@__crt_state_management@@QAEXQ6AXH@Z@Z 100393df f i libucrt:signal.obj
 0001:00038489       ?value@?$dual_state_global@P6AXH@Z@__crt_state_management@@QAEAAP6AXH@ZXZ 10039489 f i libucrt:signal.obj
 0001:0003848c       ___acrt_get_sigabrt_handler 1003948c f   libucrt:signal.obj
 0001:000384b3       ___acrt_initialize_signal_handlers 100394b3 f   libucrt:signal.obj
 0001:000384d1       ___fpecode                 100394d1 f   libucrt:signal.obj
 0001:000384da       ___pxcptinfoptrs           100394da f   libucrt:signal.obj
 0001:000384e3       _raise                     100394e3 f   libucrt:signal.obj
 0001:000386d5       _signal                    100396d5 f   libucrt:signal.obj
 0001:00038d95       ??$gmtime_s@ABQAUtm@@ABQBJ@?$__crt_integer_traits@J@@SAHABQAUtm@@ABQBJ@Z 10039d95 f i libucrt:localtime.obj
 0001:00038dad       ??$gmtime_s@ABQAUtm@@ABQB_J@?$__crt_integer_traits@_J@@SAHABQAUtm@@ABQB_J@Z 10039dad f i libucrt:localtime.obj
 0001:00038dc5       ??$gmtime_s@ABQAUtm@@PAJ@?$__crt_integer_traits@J@@SAHABQAUtm@@$$QAPAJ@Z 10039dc5 f i libucrt:localtime.obj
 0001:00038ddd       ??$gmtime_s@ABQAUtm@@PA_J@?$__crt_integer_traits@_J@@SAHABQAUtm@@$$QAPA_J@Z 10039ddd f i libucrt:localtime.obj
 0001:00038df5       ??$localtime_s@ABQAUtm@@ABQBJ@?$__crt_integer_traits@J@@SAHABQAUtm@@ABQBJ@Z 10039df5 f i libucrt:localtime.obj
 0001:00038e0e       ??$localtime_s@ABQAUtm@@ABQB_J@?$__crt_integer_traits@_J@@SAHABQAUtm@@ABQB_J@Z 10039e0e f i libucrt:localtime.obj
 0001:00038e27       __localtime32              10039e27 f   libucrt:localtime.obj
 0001:00038e4e       __localtime32_s            10039e4e f   libucrt:localtime.obj
 0001:00038e59       __localtime64              10039e59 f   libucrt:localtime.obj
 0001:00038e80       __localtime64_s            10039e80 f   libucrt:localtime.obj
 0001:0003919a       __time32                   1003a19a f   libucrt:time.obj
 0001:000391f9       __time64                   1003a1f9 f   libucrt:time.obj
 0001:00039261       __timespec32_get           1003a261 f   libucrt:time.obj
 0001:0003926c       __timespec64_get           1003a26c f   libucrt:time.obj
 0001:0003928d       __get_terminate            1003a28d f   libucrt:terminate.obj
 0001:0003929f       _set_terminate             1003a29f f   libucrt:terminate.obj
 0001:000392bf       _terminate                 1003a2bf f   libucrt:terminate.obj
 0001:000392fb       __recalloc                 1003a2fb f   libucrt:recalloc.obj
 0001:00039306       __recalloc_base            1003a306 f   libucrt:recalloc.obj
 0001:00039373       ??$?B$$A6AHI@Z@__crt_fast_encoded_nullptr_t@@QBEP6AHI@ZXZ 1003a373 f i libucrt:new_handler.obj
 0001:00039379       ??$__crt_fast_decode_pointer@P6AHI@Z@@YAP6AHI@ZQ6AHI@Z@Z 1003a379 f i libucrt:new_handler.obj
 0001:00039394       ??$__crt_fast_encode_pointer@P6AHI@Z@@YAP6AHI@ZQ6AHI@Z@Z 1003a394 f i libucrt:new_handler.obj
 0001:000393b3       ?_set_new_handler@@YAP6AHI@ZH@Z 1003a3b3 f   libucrt:new_handler.obj
 0001:000393c0       ?initialize@?$dual_state_global@P6AHI@Z@__crt_state_management@@QAEXQ6AHI@Z@Z 1003a3c0 f i libucrt:new_handler.obj
 0001:000393dc       ?value@?$dual_state_global@P6AHI@Z@__crt_state_management@@QAEAAP6AHI@ZXZ 1003a3dc f i libucrt:new_handler.obj
 0001:000393df       ___acrt_initialize_new_handler 1003a3df f   libucrt:new_handler.obj
 0001:000393ee       __callnewh                 1003a3ee f   libucrt:new_handler.obj
 0001:0003941a       __query_new_handler        1003a41a f   libucrt:new_handler.obj
 0001:00039471       __set_new_handler          1003a471 f   libucrt:new_handler.obj
 0001:000394fa       __seh_filter_dll           1003a4fa f   libucrt:exception_filter.obj
 0001:0003951a       __seh_filter_exe           1003a51a f   libucrt:exception_filter.obj
 0001:00039660       ??$?RE@__crt_internal_free_policy@@QBEXQBE@Z 1003a660 f i libucrt:argv_parsing.obj
 0001:00039672       ??$?RPAD@__crt_internal_free_policy@@QBEXQBQAD@Z 1003a672 f i libucrt:argv_parsing.obj
 0001:00039684       ??$?RPA_W@__crt_internal_free_policy@@QBEXQBQA_W@Z 1003a684 f i libucrt:argv_parsing.obj
 0001:00039909       ??$get_module_file_name@$$TAAY0BAF@DH@?$__crt_char_traits@D@@SAK$$QA$$TAAY0BAF@D$$QAH@Z 1003a909 f i libucrt:argv_parsing.obj
 0001:00039925       ??$get_module_file_name@$$TAAY0BAF@_WH@?$__crt_char_traits@_W@@SAK$$QA$$TAAY0BAF@_W$$QAH@Z 1003a925 f i libucrt:argv_parsing.obj
 0001:00039c54       ??$set_program_name@PAD@?$__crt_char_traits@D@@SAX$$QAPAD@Z 1003ac54 f i libucrt:argv_parsing.obj
 0001:00039c65       ??$set_program_name@PA_W@?$__crt_char_traits@_W@@SAX$$QAPA_W@Z 1003ac65 f i libucrt:argv_parsing.obj
 0001:00039c96       ??0?$__crt_unique_heap_ptr@EU__crt_internal_free_policy@@@@QAE@QAE@Z 1003ac96 f i libucrt:argv_parsing.obj
 0001:00039ca6       ??0?$__crt_unique_heap_ptr@PADU__crt_internal_free_policy@@@@QAE@QAPAD@Z 1003aca6 f i libucrt:argv_parsing.obj
 0001:00039cb6       ??0?$__crt_unique_heap_ptr@PA_WU__crt_internal_free_policy@@@@QAE@QAPA_W@Z 1003acb6 f i libucrt:argv_parsing.obj
 0001:00039cc6       ??1?$__crt_unique_heap_ptr@EU__crt_internal_free_policy@@@@QAE@XZ 1003acc6 f i libucrt:argv_parsing.obj
 0001:00039cd8       ??1?$__crt_unique_heap_ptr@PADU__crt_internal_free_policy@@@@QAE@XZ 1003acd8 f i libucrt:argv_parsing.obj
 0001:00039cea       ??1?$__crt_unique_heap_ptr@PA_WU__crt_internal_free_policy@@@@QAE@XZ 1003acea f i libucrt:argv_parsing.obj
 0001:00039cfc       ??B?$__crt_unique_heap_ptr@EU__crt_internal_free_policy@@@@QBE_NXZ 1003acfc f i libucrt:argv_parsing.obj
 0001:00039d2f       ?detach@?$__crt_unique_heap_ptr@EU__crt_internal_free_policy@@@@QAEPAEXZ 1003ad2f f i libucrt:argv_parsing.obj
 0001:00039d35       ?detach@?$__crt_unique_heap_ptr@PADU__crt_internal_free_policy@@@@QAEPAPADXZ 1003ad35 f i libucrt:argv_parsing.obj
 0001:00039d3b       ?detach@?$__crt_unique_heap_ptr@PA_WU__crt_internal_free_policy@@@@QAEPAPA_WXZ 1003ad3b f i libucrt:argv_parsing.obj
 0001:00039d5f       ?get@?$__crt_unique_heap_ptr@EU__crt_internal_free_policy@@@@QBEPAEXZ 1003ad5f f i libucrt:argv_parsing.obj
 0001:00039d62       ?get@?$__crt_unique_heap_ptr@PADU__crt_internal_free_policy@@@@QBEPAPADXZ 1003ad62 f i libucrt:argv_parsing.obj
 0001:00039d65       ?get@?$__crt_unique_heap_ptr@PA_WU__crt_internal_free_policy@@@@QBEPAPA_WXZ 1003ad65 f i libucrt:argv_parsing.obj
 0001:00039d68       ?get_address_of@?$__crt_unique_heap_ptr@PADU__crt_internal_free_policy@@@@QAEPAPAPADXZ 1003ad68 f i libucrt:argv_parsing.obj
 0001:00039d6b       ?get_address_of@?$__crt_unique_heap_ptr@PA_WU__crt_internal_free_policy@@@@QAEPAPAPA_WXZ 1003ad6b f i libucrt:argv_parsing.obj
 0001:00039d86       ?is_valid@?$__crt_unique_heap_ptr@EU__crt_internal_free_policy@@@@QBE_NXZ 1003ad86 f i libucrt:argv_parsing.obj
 0001:00039d8d       ?release@?$__crt_unique_heap_ptr@EU__crt_internal_free_policy@@@@QAEXXZ 1003ad8d f i libucrt:argv_parsing.obj
 0001:00039d9f       ?release@?$__crt_unique_heap_ptr@PADU__crt_internal_free_policy@@@@QAEXXZ 1003ad9f f i libucrt:argv_parsing.obj
 0001:00039db1       ?release@?$__crt_unique_heap_ptr@PA_WU__crt_internal_free_policy@@@@QAEXXZ 1003adb1 f i libucrt:argv_parsing.obj
 0001:00039ddd       ___acrt_allocate_buffer_for_argv 1003addd f   libucrt:argv_parsing.obj
 0001:00039e2c       __configure_narrow_argv    1003ae2c f   libucrt:argv_parsing.obj
 0001:00039e37       __configure_wide_argv      1003ae37 f   libucrt:argv_parsing.obj
 0001:00039e42       __set_pgmptr               1003ae42 f i libucrt:argv_parsing.obj
 0001:00039e51       __set_wpgmptr              1003ae51 f i libucrt:argv_parsing.obj
 0001:0003a26a       ??$get_environment_from_os@$$V@?$__crt_char_traits@D@@SAPADXZ 1003b26a f i libucrt:environment_initialization.obj
 0001:0003a26f       ??$get_environment_from_os@$$V@?$__crt_char_traits@_W@@SAPA_WXZ 1003b26f f i libucrt:environment_initialization.obj
 0001:0003a378       ??$set_variable_in_environment_nolock@PADH@?$__crt_char_traits@D@@SAH$$QAPAD$$QAH@Z 1003b378 f i libucrt:environment_initialization.obj
 0001:0003a390       ??$set_variable_in_environment_nolock@PA_WH@?$__crt_char_traits@_W@@SAH$$QAPA_W$$QAH@Z 1003b390 f i libucrt:environment_initialization.obj
 0001:0003a3a8       ??$tcscpy_s@PADABIAAPAD@?$__crt_char_traits@D@@SAH$$QAPADABIAAPAD@Z 1003b3a8 f i libucrt:environment_initialization.obj
 0001:0003a3c6       ??$tcscpy_s@PA_WABIAAPA_W@?$__crt_char_traits@_W@@SAH$$QAPA_WABIAAPA_W@Z 1003b3c6 f i libucrt:environment_initialization.obj
 0001:0003a3e4       ??$tcslen@AAPAD@?$__crt_char_traits@D@@SAIAAPAD@Z 1003b3e4 f i libucrt:environment_initialization.obj
 0001:0003a3fc       ??$tcslen@AAPA_W@?$__crt_char_traits@_W@@SAIAAPA_W@Z 1003b3fc f i libucrt:environment_initialization.obj
 0001:0003a41a       ??$uninitialize@A6AXAAPAPAD@_E@?$dual_state_global@PAPAD@__crt_state_management@@QAEXA6AXAAPAPAD@_E@Z 1003b41a f i libucrt:environment_initialization.obj
 0001:0003a472       ??$uninitialize@A6AXAAPAPA_W@_E@?$dual_state_global@PAPA_W@__crt_state_management@@QAEXA6AXAAPAPA_W@_E@Z 1003b472 f i libucrt:environment_initialization.obj
 0001:0003a500       ??B?$__crt_unique_heap_ptr@PADU__crt_internal_free_policy@@@@QBE_NXZ 1003b500 f i libucrt:environment_initialization.obj
 0001:0003a507       ??B?$__crt_unique_heap_ptr@PA_WU__crt_internal_free_policy@@@@QBE_NXZ 1003b507 f i libucrt:environment_initialization.obj
 0001:0003a50e       ??B?$__crt_unique_heap_ptr@_WU__crt_internal_free_policy@@@@QBE_NXZ 1003b50e f i libucrt:environment_initialization.obj
 0001:0003a515       ?__crt_compute_required_transform_buffer_count@@YAIIQBD@Z 1003b515 f i libucrt:environment_initialization.obj
 0001:0003a531       ?__crt_compute_required_transform_buffer_count@@YAIIQB_W@Z 1003b531 f i libucrt:environment_initialization.obj
 0001:0003a54f       ?__crt_transform_string@@YAIIQBDQA_WI@Z 1003b54f f i libucrt:environment_initialization.obj
 0001:0003a56e       ?__crt_transform_string@@YAIIQB_WQADI@Z 1003b56e f i libucrt:environment_initialization.obj
 0001:0003a590       ?detach@?$__crt_unique_heap_ptr@DU__crt_internal_free_policy@@@@QAEPADXZ 1003b590 f i libucrt:environment_initialization.obj
 0001:0003a5ba       ?initialize@?$dual_state_global@PAPAD@__crt_state_management@@QAEXQAPAD@Z 1003b5ba f i libucrt:environment_initialization.obj
 0001:0003a5d6       ?initialize@?$dual_state_global@PAPA_W@__crt_state_management@@QAEXQAPA_W@Z 1003b5d6 f i libucrt:environment_initialization.obj
 0001:0003a5f2       ?is_valid@?$__crt_unique_heap_ptr@PADU__crt_internal_free_policy@@@@QBE_NXZ 1003b5f2 f i libucrt:environment_initialization.obj
 0001:0003a5f9       ?is_valid@?$__crt_unique_heap_ptr@PA_WU__crt_internal_free_policy@@@@QBE_NXZ 1003b5f9 f i libucrt:environment_initialization.obj
 0001:0003a600       ?is_valid@?$__crt_unique_heap_ptr@_WU__crt_internal_free_policy@@@@QBE_NXZ 1003b600 f i libucrt:environment_initialization.obj
 0001:0003a60f       ?value@?$dual_state_global@PAPAD@__crt_state_management@@QAEAAPAPADXZ 1003b60f f i libucrt:environment_initialization.obj
 0001:0003a612       ?value@?$dual_state_global@PAPA_W@__crt_state_management@@QAEAAPAPA_WXZ 1003b612 f i libucrt:environment_initialization.obj
 0001:0003a615       ___dcrt_get_or_create_narrow_environment_nolock 1003b615 f   libucrt:environment_initialization.obj
 0001:0003a61a       ___dcrt_get_or_create_wide_environment_nolock 1003b61a f   libucrt:environment_initialization.obj
 0001:0003a61f       ___dcrt_uninitialize_environments_nolock 1003b61f f   libucrt:environment_initialization.obj
 0001:0003a670       ___p__environ              1003b670 f   libucrt:environment_initialization.obj
 0001:0003a676       ___p__wenviron             1003b676 f   libucrt:environment_initialization.obj
 0001:0003a67c       __get_initial_narrow_environment 1003b67c f   libucrt:environment_initialization.obj
 0001:0003a690       __get_initial_wide_environment 1003b690 f   libucrt:environment_initialization.obj
 0001:0003a6a4       __initialize_narrow_environment 1003b6a4 f   libucrt:environment_initialization.obj
 0001:0003a6a9       __initialize_wide_environment 1003b6a9 f   libucrt:environment_initialization.obj
 0001:0003a6ae       ??$?B$$A6AXXZ@__crt_fast_encoded_nullptr_t@@QBEP6AXXZXZ 1003b6ae f i libucrt:onexit.obj
 0001:0003a6b4       ??$?BP6AXXZ@__crt_fast_encoded_nullptr_t@@QBEPAP6AXXZXZ 1003b6b4 f i libucrt:onexit.obj
 0001:0003a6ba       ??$?RP6AXXZ@__crt_internal_free_policy@@QBEXQBQ6AXXZ@Z 1003b6ba f i libucrt:onexit.obj
 0001:0003a7fd       ??$__crt_fast_decode_pointer@P6AXXZ@@YAP6AXXZQ6AXXZ@Z 1003b7fd f i libucrt:onexit.obj
 0001:0003a818       ??$__crt_fast_decode_pointer@PAP6AXXZ@@YAPAP6AXXZQAP6AXXZ@Z 1003b818 f i libucrt:onexit.obj
 0001:0003a833       ??$__crt_fast_encode_pointer@P6AHXZ@@YAP6AHXZQ6AHXZ@Z 1003b833 f i libucrt:onexit.obj
 0001:0003a852       ??$__crt_fast_encode_pointer@P6AXXZ@@YAP6AXXZQ6AXXZ@Z 1003b852 f i libucrt:onexit.obj
 0001:0003a871       ??$__crt_fast_encode_pointer@PAP6AXXZ@@YAPAP6AXXZQAP6AXXZ@Z 1003b871 f i libucrt:onexit.obj
 0001:0003a8fe       ??0?$__crt_unique_heap_ptr@P6AXXZU__crt_internal_free_policy@@@@QAE@QAP6AXXZ@Z 1003b8fe f i libucrt:onexit.obj
 0001:0003a90e       ??1?$__crt_unique_heap_ptr@P6AXXZU__crt_internal_free_policy@@@@QAE@XZ 1003b90e f i libucrt:onexit.obj
 0001:0003a920       ??1scoped_global_state_reset@__crt_state_management@@QAE@XZ 1003b920 f i libucrt:onexit.obj
 0001:0003ab23       ?detach@?$__crt_unique_heap_ptr@P6AXXZU__crt_internal_free_policy@@@@QAEPAP6AXXZXZ 1003bb23 f i libucrt:onexit.obj
 0001:0003ab29       ?release@?$__crt_unique_heap_ptr@P6AXXZU__crt_internal_free_policy@@@@QAEXXZ 1003bb29 f i libucrt:onexit.obj
 0001:0003ab3b       __crt_at_quick_exit        1003bb3b f   libucrt:onexit.obj
 0001:0003ab51       __crt_atexit               1003bb51 f   libucrt:onexit.obj
 0001:0003ab67       __execute_onexit_table     1003bb67 f   libucrt:onexit.obj
 0001:0003aba5       __initialize_onexit_table  1003bba5 f   libucrt:onexit.obj
 0001:0003abce       __register_onexit_function 1003bbce f   libucrt:onexit.obj
 0001:0003acdd       ??$?BX@__crt_fast_encoded_nullptr_t@@QBEPAXXZ 1003bcdd f i libucrt:initialization.obj
 0001:0003ace3       ??$__crt_fast_encode_pointer@PAX@@YAPAXQAX@Z 1003bce3 f i libucrt:initialization.obj
 0001:0003ad54       ?__acrt_stdio_is_initialized@@YA_NXZ 1003bd54 f i libucrt:initialization.obj
 0001:0003ad5f       ?initialize@?$dual_state_global@PAU__crt_locale_data@@@__crt_state_management@@QAEXQAU__crt_locale_data@@@Z 1003bd5f f i libucrt:initialization.obj
 0001:0003ad7b       ___acrt_initialize         1003bd7b f   libucrt:initialization.obj
 0001:0003ad8d       ___acrt_thread_attach      1003bd8d f   libucrt:initialization.obj
 0001:0003ad98       ___acrt_thread_detach      1003bd98 f   libucrt:initialization.obj
 0001:0003ada0       ___acrt_uninitialize       1003bda0 f   libucrt:initialization.obj
 0001:0003add0       ___acrt_uninitialize_critical 1003bdd0 f   libucrt:initialization.obj
 0001:0003ade2       ?should_round_up@__crt_strtox@@YA_N_N000@Z 1003bde2 f i libucrt:fpexcept.obj
 0001:0003ae2f       __errcode                  1003be2f f   libucrt:fpexcept.obj
 0001:0003ae63       __except1                  1003be63 f   libucrt:fpexcept.obj
 0001:0003af31       __except2                  1003bf31 f   libucrt:fpexcept.obj
 0001:0003b039       __handle_exc               1003c039 f   libucrt:fpexcept.obj
 0001:0003b2b9       __handle_qnan2             1003c2b9 f   libucrt:fpexcept.obj
 0001:0003b2c6       __raise_exc                1003c2c6 f   libucrt:fpexcept.obj
 0001:0003b2e9       __raise_exc_ex             1003c2e9 f   libucrt:fpexcept.obj
 0001:0003b5da       __raise_excf               1003c5da f   libucrt:fpexcept.obj
 0001:0003b5fd       __set_errno_from_matherr   1003c5fd f   libucrt:fpexcept.obj
 0001:0003b62e       __umatherr                 1003c62e f   libucrt:fpexcept.obj
 0001:0003b6ce       __initterm                 1003c6ce f   libucrt:initterm.obj
 0001:0003b6f9       __initterm_e               1003c6f9 f   libucrt:initterm.obj
 0001:0003b781       _strcpy_s                  1003c781 f   libucrt:strcpy_s.obj
 0001:0003b7db       _calloc                    1003c7db f   libucrt:calloc.obj
 0001:0003b7e6       ??$is_overflow_condition@_K@__crt_strtox@@YA_NI_K@Z 1003c7e6 f i libucrt:atox.obj
 0001:0003b827       ??$make_c_string_character_source@D$$T@__crt_strtox@@YA?AV?$c_string_character_source@D@0@QBD$$T@Z 1003c827 f i libucrt:atox.obj
 0001:0003b842       ??$make_c_string_character_source@_W$$T@__crt_strtox@@YA?AV?$c_string_character_source@_W@0@QB_W$$T@Z 1003c842 f i libucrt:atox.obj
 0001:0003b85d       ??$parse_integer@KV?$c_string_character_source@D@__crt_strtox@@$00@__crt_strtox@@YAKAAV__crt_cached_ptd_host@@V?$c_string_character_source@D@0@H_N@Z 1003c85d f i libucrt:atox.obj
 0001:0003baa4       ??$parse_integer@KV?$c_string_character_source@_W@__crt_strtox@@$00@__crt_strtox@@YAKAAV__crt_cached_ptd_host@@V?$c_string_character_source@_W@0@H_N@Z 1003caa4 f i libucrt:atox.obj
 0001:0003c0b2       ??$parse_integer@_KV?$c_string_character_source@D@__crt_strtox@@$00@__crt_strtox@@YA_KAAV__crt_cached_ptd_host@@V?$c_string_character_source@D@0@H_N@Z 1003d0b2 f i libucrt:atox.obj
 0001:0003c37a       ??$parse_integer@_KV?$c_string_character_source@_W@__crt_strtox@@$00@__crt_strtox@@YA_KAAV__crt_cached_ptd_host@@V?$c_string_character_source@_W@0@H_N@Z 1003d37a f i libucrt:atox.obj
 0001:0003ca00       ??$parse_integer_from_string@JD$$T@__crt_strtox@@YAJQBD$$THQAU__crt_locale_pointers@@@Z 1003da00 f i libucrt:atox.obj
 0001:0003ca47       ??$parse_integer_from_string@J_W$$T@__crt_strtox@@YAJQB_W$$THQAU__crt_locale_pointers@@@Z 1003da47 f i libucrt:atox.obj
 0001:0003ca8e       ??$parse_integer_from_string@_JD$$T@__crt_strtox@@YA_JQBD$$THQAU__crt_locale_pointers@@@Z 1003da8e f i libucrt:atox.obj
 0001:0003cadb       ??$parse_integer_from_string@_J_W$$T@__crt_strtox@@YA_JQB_W$$THQAU__crt_locale_pointers@@@Z 1003dadb f i libucrt:atox.obj
 0001:0003cb28       ?is_space@__crt_strtox@@YA_NDQAU__crt_locale_pointers@@@Z 1003db28 f i libucrt:atox.obj
 0001:0003cb46       ?is_space@__crt_strtox@@YA_N_WPAU__crt_locale_pointers@@@Z 1003db46 f i libucrt:atox.obj
 0001:0003cb5e       ?maximum_signed_value@__crt_strtox@@YA_J_K@Z 1003db5e f i libucrt:atox.obj
 0001:0003cb67       ?minimum_signed_value@__crt_strtox@@YA_J_K@Z 1003db67 f i libucrt:atox.obj
 0001:0003cb6f       ___acrt_get_locale_data_prefix 1003db6f f i libucrt:atox.obj
 0001:0003cb7b       __atoi64                   1003db7b f   libucrt:atox.obj
 0001:0003cbc0       __atoi64_l                 1003dbc0 f   libucrt:atox.obj
 0001:0003cc06       __atoi_l                   1003dc06 f   libucrt:atox.obj
 0001:0003cc46       __atol_l                   1003dc46 f   libucrt:atox.obj
 0001:0003cc86       __atoll_l                  1003dc86 f   libucrt:atox.obj
 0001:0003cccc       __chvalidchk_l             1003dccc f i libucrt:atox.obj
 0001:0003ccf4       __ischartype_l             1003dcf4 f i libucrt:atox.obj
 0001:0003cd4b       __wtoi                     1003dd4b f   libucrt:atox.obj
 0001:0003cd8a       __wtoi64                   1003dd8a f   libucrt:atox.obj
 0001:0003cdcf       __wtoi64_l                 1003ddcf f   libucrt:atox.obj
 0001:0003ce15       __wtoi_l                   1003de15 f   libucrt:atox.obj
 0001:0003ce55       __wtol                     1003de55 f   libucrt:atox.obj
 0001:0003ce94       __wtol_l                   1003de94 f   libucrt:atox.obj
 0001:0003ced4       __wtoll                    1003ded4 f   libucrt:atox.obj
 0001:0003cf19       __wtoll_l                  1003df19 f   libucrt:atox.obj
 0001:0003cf5f       _atoi                      1003df5f f   libucrt:atox.obj
 0001:0003cf9e       _atol                      1003df9e f   libucrt:atox.obj
 0001:0003cfdd       _atoll                     1003dfdd f   libucrt:atox.obj
 0001:0003d030       _strncmp                   1003e030 f   libucrt:strncmp.obj
 0001:0003d0a8       ??$?RU__acrt_ptd@@@__crt_internal_free_policy@@QBEXQBU__acrt_ptd@@@Z 1003e0a8 f i libucrt:per_thread_data.obj
 0001:0003d394       ??0?$__crt_unique_heap_ptr@U__acrt_ptd@@U__crt_internal_free_policy@@@@QAE@QAU__acrt_ptd@@@Z 1003e394 f i libucrt:per_thread_data.obj
 0001:0003d3a4       ??1?$__crt_unique_heap_ptr@U__acrt_ptd@@U__crt_internal_free_policy@@@@QAE@XZ 1003e3a4 f i libucrt:per_thread_data.obj
 0001:0003d3b6       ??B?$__crt_unique_heap_ptr@U__acrt_ptd@@U__crt_internal_free_policy@@@@QBE_NXZ 1003e3b6 f i libucrt:per_thread_data.obj
 0001:0003d504       ?dangerous_get_state_array@?$dual_state_global@PAU__crt_locale_data@@@__crt_state_management@@QAEPAPAU__crt_locale_data@@XZ 1003e504 f i libucrt:per_thread_data.obj
 0001:0003d5fa       ?detach@?$__crt_unique_heap_ptr@U__acrt_ptd@@U__crt_internal_free_policy@@@@QAEPAU__acrt_ptd@@XZ 1003e5fa f i libucrt:per_thread_data.obj
 0001:0003d600       ?get@?$__crt_unique_heap_ptr@U__acrt_ptd@@U__crt_internal_free_policy@@@@QBEPAU__acrt_ptd@@XZ 1003e600 f i libucrt:per_thread_data.obj
 0001:0003d7e5       ?is_valid@?$__crt_unique_heap_ptr@U__acrt_ptd@@U__crt_internal_free_policy@@@@QBE_NXZ 1003e7e5 f i libucrt:per_thread_data.obj
 0001:0003d7ec       ?release@?$__crt_unique_heap_ptr@U__acrt_ptd@@U__crt_internal_free_policy@@@@QAEXXZ 1003e7ec f i libucrt:per_thread_data.obj
 0001:0003d85d       ?value@?$dual_state_global@PAU__crt_locale_data@@@__crt_state_management@@QAEAAPAU__crt_locale_data@@XZ 1003e85d f i libucrt:per_thread_data.obj
 0001:0003d860       ___acrt_freeptd            1003e860 f   libucrt:per_thread_data.obj
 0001:0003d88c       ___acrt_getptd             1003e88c f   libucrt:per_thread_data.obj
 0001:0003d947       ___acrt_getptd_head        1003e947 f   libucrt:per_thread_data.obj
 0001:0003d9dd       ___acrt_getptd_noexit      1003e9dd f   libucrt:per_thread_data.obj
 0001:0003da8e       ___acrt_getptd_noexit_explicit 1003ea8e f   libucrt:per_thread_data.obj
 0001:0003db31       ___acrt_initialize_ptd     1003eb31 f   libucrt:per_thread_data.obj
 0001:0003db5d       ___acrt_uninitialize_ptd   1003eb5d f   libucrt:per_thread_data.obj
 0001:0003db77       ___threadhandle            1003eb77 f   libucrt:per_thread_data.obj
 0001:0003db7d       ___threadid                1003eb7d f   libucrt:per_thread_data.obj
 0001:0003db86       ??$?RU__crt_locale_data@@@__crt_internal_free_policy@@QBEXQBU__crt_locale_data@@@Z 1003eb86 f i libucrt:wsetlocale.obj
 0001:0003db98       ??$?RU__crt_locale_pointers@@@__crt_internal_free_policy@@QBEXQBU__crt_locale_pointers@@@Z 1003eb98 f i libucrt:wsetlocale.obj
 0001:0003dbaa       ??$?RU__crt_multibyte_data@@@__crt_internal_free_policy@@QBEXQBU__crt_multibyte_data@@@Z 1003ebaa f i libucrt:wsetlocale.obj
 0001:0003df53       ??0?$__crt_unique_heap_ptr@U__crt_locale_data@@U__crt_internal_free_policy@@@@QAE@QAU__crt_locale_data@@@Z 1003ef53 f i libucrt:wsetlocale.obj
 0001:0003df63       ??0?$__crt_unique_heap_ptr@U__crt_locale_pointers@@U__crt_internal_free_policy@@@@QAE@QAU__crt_locale_pointers@@@Z 1003ef63 f i libucrt:wsetlocale.obj
 0001:0003df73       ??0?$__crt_unique_heap_ptr@U__crt_multibyte_data@@U__crt_internal_free_policy@@@@QAE@QAU__crt_multibyte_data@@@Z 1003ef73 f i libucrt:wsetlocale.obj
 0001:0003df83       ??0_expandlocale_locale_name_cache@@QAE@QA_WIQAU__crt_qualified_locale_data@@@Z 1003ef83 f i libucrt:wsetlocale.obj
 0001:0003dfcd       ??1?$__crt_unique_heap_ptr@U__crt_locale_data@@U__crt_internal_free_policy@@@@QAE@XZ 1003efcd f i libucrt:wsetlocale.obj
 0001:0003dfdf       ??1?$__crt_unique_heap_ptr@U__crt_locale_pointers@@U__crt_internal_free_policy@@@@QAE@XZ 1003efdf f i libucrt:wsetlocale.obj
 0001:0003dff1       ??1?$__crt_unique_heap_ptr@U__crt_multibyte_data@@U__crt_internal_free_policy@@@@QAE@XZ 1003eff1 f i libucrt:wsetlocale.obj
 0001:0003e003       ??1_expandlocale_locale_name_cache@@QAE@XZ 1003f003 f i libucrt:wsetlocale.obj
 0001:0003e033       ??B?$__crt_unique_heap_ptr@U__crt_locale_data@@U__crt_internal_free_policy@@@@QBE_NXZ 1003f033 f i libucrt:wsetlocale.obj
 0001:0003e03a       ??B?$__crt_unique_heap_ptr@U__crt_locale_pointers@@U__crt_internal_free_policy@@@@QBE_NXZ 1003f03a f i libucrt:wsetlocale.obj
 0001:0003e041       ??B?$__crt_unique_heap_ptr@U__crt_multibyte_data@@U__crt_internal_free_policy@@@@QBE_NXZ 1003f041 f i libucrt:wsetlocale.obj
 0001:0003e261       ?commit_locale_name@_expandlocale_locale_name_cache@@QAEXQB_WI@Z 1003f261 f i libucrt:wsetlocale.obj
 0001:0003e2a5       ?commit_locale_name_cache_already_updated@_expandlocale_locale_name_cache@@QAEXQB_WI@Z 1003f2a5 f i libucrt:wsetlocale.obj
 0001:0003e2da       ?detach@?$__crt_unique_heap_ptr@U__crt_locale_data@@U__crt_internal_free_policy@@@@QAEPAU__crt_locale_data@@XZ 1003f2da f i libucrt:wsetlocale.obj
 0001:0003e2e0       ?detach@?$__crt_unique_heap_ptr@U__crt_locale_pointers@@U__crt_internal_free_policy@@@@QAEPAU__crt_locale_pointers@@XZ 1003f2e0 f i libucrt:wsetlocale.obj
 0001:0003e2e6       ?detach@?$__crt_unique_heap_ptr@U__crt_multibyte_data@@U__crt_internal_free_policy@@@@QAEPAU__crt_multibyte_data@@XZ 1003f2e6 f i libucrt:wsetlocale.obj
 0001:0003e2ec       ?get@?$__crt_unique_heap_ptr@U__crt_locale_data@@U__crt_internal_free_policy@@@@QBEPAU__crt_locale_data@@XZ 1003f2ec f i libucrt:wsetlocale.obj
 0001:0003e2ef       ?get@?$__crt_unique_heap_ptr@U__crt_locale_pointers@@U__crt_internal_free_policy@@@@QBEPAU__crt_locale_pointers@@XZ 1003f2ef f i libucrt:wsetlocale.obj
 0001:0003e2f2       ?get@?$__crt_unique_heap_ptr@U__crt_multibyte_data@@U__crt_internal_free_policy@@@@QBEPAU__crt_multibyte_data@@XZ 1003f2f2 f i libucrt:wsetlocale.obj
 0001:0003e2f5       ?is_valid@?$__crt_unique_heap_ptr@U__crt_locale_data@@U__crt_internal_free_policy@@@@QBE_NXZ 1003f2f5 f i libucrt:wsetlocale.obj
 0001:0003e2fc       ?is_valid@?$__crt_unique_heap_ptr@U__crt_locale_pointers@@U__crt_internal_free_policy@@@@QBE_NXZ 1003f2fc f i libucrt:wsetlocale.obj
 0001:0003e303       ?is_valid@?$__crt_unique_heap_ptr@U__crt_multibyte_data@@U__crt_internal_free_policy@@@@QBE_NXZ 1003f303 f i libucrt:wsetlocale.obj
 0001:0003e30a       ?release@?$__crt_unique_heap_ptr@U__crt_locale_data@@U__crt_internal_free_policy@@@@QAEXXZ 1003f30a f i libucrt:wsetlocale.obj
 0001:0003e31c       ?release@?$__crt_unique_heap_ptr@U__crt_locale_pointers@@U__crt_internal_free_policy@@@@QAEXXZ 1003f31c f i libucrt:wsetlocale.obj
 0001:0003e32e       ?release@?$__crt_unique_heap_ptr@U__crt_multibyte_data@@U__crt_internal_free_policy@@@@QAEXXZ 1003f32e f i libucrt:wsetlocale.obj
 0001:0003e340       ___acrt_copy_locale_name   1003f340 f   libucrt:wsetlocale.obj
 0001:0003e3a0       ___acrt_set_locale_changed 1003f3a0 f   libucrt:wsetlocale.obj
 0001:0003e3ab       ___acrt_uninitialize_locale 1003f3ab f   libucrt:wsetlocale.obj
 0001:0003e3d2       ___ascii_tolower           1003f3d2 f i libucrt:wsetlocale.obj
 0001:0003e3e9       ___ascii_towlower          1003f3e9 f i libucrt:wsetlocale.obj
 0001:0003e400       ___lc_lctowcs              1003f400 f   libucrt:wsetlocale.obj
 0001:0003e470       ___lc_wcstolc              1003f470 f   libucrt:wsetlocale.obj
 0001:0003e5ad       __configthreadlocale       1003f5ad f   libucrt:wsetlocale.obj
 0001:0003e63e       __create_locale            1003f63e f   libucrt:wsetlocale.obj
 0001:0003ea68       __free_locale              1003fa68 f   libucrt:wsetlocale.obj
 0001:0003eb2a       __get_current_locale       1003fb2a f   libucrt:wsetlocale.obj
 0001:0003ebc5       __wcreate_locale           1003fbc5 f   libucrt:wsetlocale.obj
 0001:0003eccc       __wcscats                  1003fccc f   libucrt:wsetlocale.obj
 0001:0003ed0d       __wsetlocale               1003fd0d f   libucrt:wsetlocale.obj
 0001:0003fa8b       ___p___mb_cur_max          10040a8b f   libucrt:nlsdata.obj
 0001:0003fab6       __free_base                10040ab6 f   libucrt:free_base.obj
 0001:0003faf0       __malloc_base              10040af0 f   libucrt:malloc_base.obj
 0001:0003fb3e       ?value@?$dual_state_global@PAU__crt_multibyte_data@@@__crt_state_management@@QAEAAPAU__crt_multibyte_data@@XZ 10040b3e f i libucrt:locale_update.obj
 0001:0003fb41       ?value_explicit@?$dual_state_global@PAU__crt_locale_data@@@__crt_state_management@@QAEAAPAU__crt_locale_data@@I@Z 10040b41 f i libucrt:locale_update.obj
 0001:0003fb50       ?value_explicit@?$dual_state_global@PAU__crt_multibyte_data@@@__crt_state_management@@QAEAAPAU__crt_multibyte_data@@I@Z 10040b50 f i libucrt:locale_update.obj
 0001:0003fb5f       ___acrt_should_sync_with_global_locale 10040b5f f i libucrt:locale_update.obj
 0001:0003fb7b       ___acrt_update_locale_info 10040b7b f   libucrt:locale_update.obj
 0001:0003fba8       ___acrt_update_locale_info_explicit 10040ba8 f   libucrt:locale_update.obj
 0001:0003fbd9       ___acrt_update_multibyte_info 10040bd9 f   libucrt:locale_update.obj
 0001:0003fc06       ___acrt_update_multibyte_info_explicit 10040c06 f   libucrt:locale_update.obj
 0001:0003fc37       ?__acrt_fp_classify@@YA?AW4__acrt_fp_class@@ABN@Z 10040c37 f i libucrt:cvt.obj
 0001:0003fc99       ?__acrt_fp_is_negative@@YA_NABN@Z 10040c99 f i libucrt:cvt.obj
 0001:00040628       ?strrchr@@YAPADQADH@Z      10041628 f i libucrt:cvt.obj
 0001:00040633       ___acrt_fp_format          10041633 f   libucrt:cvt.obj
 0001:000407b4       ?value_or@?$cached@H@__crt_cached_ptd_host@@QBEHH@Z 100417b4 f i libucrt:wctomb.obj
 0001:000407ca       __wctomb_internal          100417ca f   libucrt:wctomb.obj
 0001:00040934       __wctomb_l                 10041934 f   libucrt:wctomb.obj
 0001:0004098f       __wctomb_s_l               1004198f f   libucrt:wctomb.obj
 0001:000409ca       _wctomb                    100419ca f   libucrt:wctomb.obj
 0001:00040a16       _wctomb_s                  10041a16 f   libucrt:wctomb.obj
 0001:00040a50       __isleadbyte_fast_internal 10041a50 f i libucrt:mbtowc.obj
 0001:00040a6e       __mbtowc_internal          10041a6e f   libucrt:mbtowc.obj
 0001:00040ba1       __mbtowc_l                 10041ba1 f   libucrt:mbtowc.obj
 0001:00040bd9       _mbtowc                    10041bd9 f   libucrt:mbtowc.obj
 0001:00040c10       ?lowio_handle@__crt_stdio_stream@@QBEHXZ 10041c10 f i libucrt:fileno.obj
 0001:00040c17       __fileno                   10041c17 f   libucrt:fileno.obj
 0001:00040c3e       __get_printf_count_output  10041c3e f   libucrt:printf_count_output.obj
 0001:00040c53       __set_printf_count_output  10041c53 f   libucrt:printf_count_output.obj
 0001:00040d41       __fputwc_nolock            10041d41 f   libucrt:fputwc.obj
 0001:00040d77       __fputwc_nolock_internal   10041d77 f   libucrt:fputwc.obj
 0001:00040eaf       __fputwchar                10041eaf f   libucrt:fputwc.obj
 0001:00040ec9       __putwc_nolock             10041ec9 f   libucrt:fputwc.obj
 0001:00040ed4       _fputwc                    10041ed4 f   libucrt:fputwc.obj
 0001:00040f0a       _putwc                     10041f0a f   libucrt:fputwc.obj
 0001:00040f15       _putwchar                  10041f15 f   libucrt:fputwc.obj
 0001:00041054       __fputc_nolock             10042054 f   libucrt:fputc.obj
 0001:00041088       __fputc_nolock_internal    10042088 f   libucrt:fputc.obj
 0001:000410b5       __fputchar                 100420b5 f   libucrt:fputc.obj
 0001:000410cf       __putc_nolock              100420cf f   libucrt:fputc.obj
 0001:000410da       _fputc                     100420da f   libucrt:fputc.obj
 0001:0004110e       _putc                      1004210e f   libucrt:fputc.obj
 0001:00041119       _putchar                   10042119 f   libucrt:fputc.obj
 0001:00041124       ?has_any_buffer@__crt_stdio_stream@@QBE_NXZ 10042124 f i libucrt:_sftbuf.obj
 0001:00041133       ?has_any_of@__crt_stdio_stream@@QBE_NJ@Z 10042133 f i libucrt:_sftbuf.obj
 0001:00041148       ?has_temporary_buffer@__crt_stdio_stream@@QBE_NXZ 10042148 f i libucrt:_sftbuf.obj
 0001:00041154       ?set_flags@__crt_stdio_stream@@QBE_NJ@Z 10042154 f i libucrt:_sftbuf.obj
 0001:00041178       ?unset_flags@__crt_stdio_stream@@QBE_NJ@Z 10042178 f i libucrt:_sftbuf.obj
 0001:000411a1       ___acrt_should_use_temporary_buffer 100421a1 f   libucrt:_sftbuf.obj
 0001:000411df       ___acrt_stdio_begin_temporary_buffering_nolock 100421df f   libucrt:_sftbuf.obj
 0001:0004128a       ___acrt_stdio_end_temporary_buffering_nolock 1004228a f   libucrt:_sftbuf.obj
 0001:00041450       ___acrt_initialize_lowio   10042450 f   libucrt:ioinit.obj
 0001:000414b0       ___acrt_uninitialize_lowio 100424b0 f   libucrt:ioinit.obj
 0001:000414dc       ___acrt_LCMapStringW       100424dc f   libucrt:lcmapstringw.obj
 0001:0004151a       __realloc_base             1004251a f   libucrt:realloc_base.obj
 0001:00041583       ___acrt_initialize_locks   10042583 f   libucrt:locks.obj
 0001:000415c4       ___acrt_lock               100425c4 f   libucrt:locks.obj
 0001:000415db       ___acrt_uninitialize_locks 100425db f   libucrt:locks.obj
 0001:0004160c       ___acrt_unlock             1004260c f   libucrt:locks.obj
 0001:00041623       __lock_locales             10042623 f   libucrt:locks.obj
 0001:00041631       __unlock_locales           10042631 f   libucrt:locks.obj
 0001:0004163a       ___acrt_app_verifier_enabled 1004263a f   libucrt:peb_access.obj
 0001:0004164c       ___acrt_is_secure_process  1004264c f   libucrt:peb_access.obj
 0001:000417f8       ___acrt_get_begin_thread_init_policy 100427f8 f   libucrt:win_policies.obj
 0001:00041832       ___acrt_get_developer_information_policy 10042832 f   libucrt:win_policies.obj
 0001:00041870       ___acrt_get_process_end_policy 10042870 f   libucrt:win_policies.obj
 0001:00041897       ___acrt_get_windowing_model_policy 10042897 f   libucrt:win_policies.obj
 0001:000418f2       __iswctype_l               100428f2 f   libucrt:iswctype.obj
 0001:00041906       _iswctype                  10042906 f   libucrt:iswctype.obj
 0001:0004196f       __calloc_base              1004296f f   libucrt:calloc_base.obj
 0001:000419d9       ??$?B$$A6GHPA_WKJ@Z@__crt_fast_encoded_nullptr_t@@QBEP6GHPA_WKJ@ZXZ 100429d9 f i libucrt:winapi_thunks.obj
 0001:00041a81       ??$__crt_fast_decode_pointer@P6GHPA_WKJ@Z@@YAP6GHPA_WKJ@ZQ6GH0KJ@Z@Z 10042a81 f i libucrt:winapi_thunks.obj
 0001:00041a9c       ??$__crt_fast_decode_pointer@PAX@@YAPAXQAX@Z 10042a9c f i libucrt:winapi_thunks.obj
 0001:00041ab7       ??$__crt_fast_encode_pointer@P6GHPA_WKJ@Z@@YAP6GHPA_WKJ@ZQ6GH0KJ@Z@Z 10042ab7 f i libucrt:winapi_thunks.obj
 0001:00042167       _GetCurrentThreadEffectiveToken 10043167 f i libucrt:winapi_thunks.obj
 0001:0004216b       ___acrt_AppPolicyGetProcessTerminationMethodInternal@4 1004316b f   libucrt:winapi_thunks.obj
 0001:000421ab       ___acrt_AppPolicyGetShowDeveloperDiagnosticInternal@4 100431ab f   libucrt:winapi_thunks.obj
 0001:000421eb       ___acrt_AppPolicyGetThreadInitializationTypeInternal@4 100431eb f   libucrt:winapi_thunks.obj
 0001:0004222b       ___acrt_AppPolicyGetWindowingModelInternal@4 1004322b f   libucrt:winapi_thunks.obj
 0001:0004226b       ___acrt_AreFileApisANSI@0  1004326b f   libucrt:winapi_thunks.obj
 0001:0004228a       ___acrt_CompareStringEx@36 1004328a f   libucrt:winapi_thunks.obj
 0001:000422e7       ___acrt_EnumSystemLocalesEx@16 100432e7 f   libucrt:winapi_thunks.obj
 0001:0004233b       ___acrt_FlsAlloc@4         1004333b f   libucrt:winapi_thunks.obj
 0001:0004237a       ___acrt_FlsFree@4          1004337a f   libucrt:winapi_thunks.obj
 0001:000423b9       ___acrt_FlsGetValue@4      100433b9 f   libucrt:winapi_thunks.obj
 0001:000423f8       ___acrt_FlsSetValue@8      100433f8 f   libucrt:winapi_thunks.obj
 0001:0004243a       ___acrt_GetDateFormatEx@28 1004343a f   libucrt:winapi_thunks.obj
 0001:00042491       ___acrt_GetEnabledXStateFeatures@0 10043491 f   libucrt:winapi_thunks.obj
 0001:000424c5       ___acrt_GetLocaleInfoEx@16 100434c5 f   libucrt:winapi_thunks.obj
 0001:00042504       ___acrt_GetSystemTimePreciseAsFileTime@4 10043504 f   libucrt:winapi_thunks.obj
 0001:00042543       ___acrt_GetTempPath2W@8    10043543 f   libucrt:winapi_thunks.obj
 0001:00042585       ___acrt_GetTimeFormatEx@24 10043585 f   libucrt:winapi_thunks.obj
 0001:000425ca       ___acrt_GetUserDefaultLocaleName@8 100435ca f   libucrt:winapi_thunks.obj
 0001:00042606       ___acrt_GetXStateFeaturesMask@8 10043606 f   libucrt:winapi_thunks.obj
 0001:00042646       ___acrt_InitializeCriticalSectionEx@12 10043646 f   libucrt:winapi_thunks.obj
 0001:00042691       ___acrt_IsValidLocaleName@4 10043691 f   libucrt:winapi_thunks.obj
 0001:000426c9       ___acrt_LCIDToLocaleName@16 100436c9 f   libucrt:winapi_thunks.obj
 0001:00042708       ___acrt_LCMapStringEx@36   10043708 f   libucrt:winapi_thunks.obj
 0001:00042765       ___acrt_LocaleNameToLCID@8 10043765 f   libucrt:winapi_thunks.obj
 0001:00042796       ___acrt_LocateXStateFeature@12 10043796 f   libucrt:winapi_thunks.obj
 0001:000427c5       ___acrt_MessageBoxA@16     100437c5 f   libucrt:winapi_thunks.obj
 0001:000427f7       ___acrt_MessageBoxW@16     100437f7 f   libucrt:winapi_thunks.obj
 0001:00042829       ___acrt_RoInitialize@4     10043829 f   libucrt:winapi_thunks.obj
 0001:00042864       ___acrt_RoUninitialize@0   10043864 f   libucrt:winapi_thunks.obj
 0001:00042892       ___acrt_RtlGenRandom@8     10043892 f   libucrt:winapi_thunks.obj
 0001:000428d2       ___acrt_SetThreadStackGuarantee@4 100438d2 f   libucrt:winapi_thunks.obj
 0001:0004290d       ___acrt_can_show_message_box 1004390d f   libucrt:winapi_thunks.obj
 0001:00042934       ___acrt_can_use_vista_locale_apis 10043934 f   libucrt:winapi_thunks.obj
 0001:0004293f       ___acrt_can_use_xstate_apis 1004393f f   libucrt:winapi_thunks.obj
 0001:0004294a       ___acrt_eagerly_load_locale_apis 1004394a f   libucrt:winapi_thunks.obj
 0001:00042981       ___acrt_get_parent_window  10043981 f   libucrt:winapi_thunks.obj
 0001:000429e9       ___acrt_initialize_winapi_thunks 100439e9 f   libucrt:winapi_thunks.obj
 0001:000429fd       ___acrt_is_interactive     100439fd f   libucrt:winapi_thunks.obj
 0001:00042a9d       ___acrt_uninitialize_winapi_thunks 10043a9d f   libucrt:winapi_thunks.obj
 0001:00042ad3       ??0__crt_stdio_stream@@QAE@QAU__crt_stdio_stream_data@@@Z 10043ad3 f i libucrt:closeall.obj
 0001:00042ae3       __fcloseall                10043ae3 f   libucrt:closeall.obj
 0001:00042f4e       ?__acrt_stdio_reset_buffer@@YAXV__crt_stdio_stream@@@Z 10043f4e f i libucrt:fflush.obj
 0001:00043030       ?has_all_of@__crt_stdio_stream@@QBE_NJ@Z 10044030 f i libucrt:fflush.obj
 0001:00043095       ___acrt_stdio_flush_nolock 10044095 f   libucrt:fflush.obj
 0001:000430fe       __fflush_nolock            100440fe f   libucrt:fflush.obj
 0001:00043163       __flushall                 10044163 f   libucrt:fflush.obj
 0001:0004316c       _fflush                    1004416c f   libucrt:fflush.obj
 0001:000431bf       ?has_crt_buffer@__crt_stdio_stream@@QBE_NXZ 100441bf f i libucrt:_freebuf.obj
 0001:000431cb       ___acrt_stdio_free_buffer_nolock 100441cb f   libucrt:_freebuf.obj
 0001:0004320b       ??$?RU__crt_stdio_stream_data@@@__crt_internal_free_policy@@QBEXQBU__crt_stdio_stream_data@@@Z 1004420b f i libucrt:stream.obj
 0001:0004321d       ??0?$__crt_unique_heap_ptr@U__crt_stdio_stream_data@@U__crt_internal_free_policy@@@@QAE@QAU__crt_stdio_stream_data@@@Z 1004421d f i libucrt:stream.obj
 0001:0004322d       ??0__crt_stdio_stream@@QAE@XZ 1004422d f i libucrt:stream.obj
 0001:00043233       ??1?$__crt_unique_heap_ptr@U__crt_stdio_stream_data@@U__crt_internal_free_policy@@@@QAE@XZ 10044233 f i libucrt:stream.obj
 0001:00043245       ?__acrt_stdio_allocate_stream@@YA?AV__crt_stdio_stream@@XZ 10044245 f   libucrt:stream.obj
 0001:000432ae       ?__acrt_stdio_free_stream@@YAXV__crt_stdio_stream@@@Z 100442ae f   libucrt:stream.obj
 0001:000432e9       ?deallocate@__crt_stdio_stream@@QAEXXZ 100442e9 f i libucrt:stream.obj
 0001:000432f3       ?detach@?$__crt_unique_heap_ptr@U__crt_stdio_stream_data@@U__crt_internal_free_policy@@@@QAEPAU__crt_stdio_stream_data@@XZ 100442f3 f i libucrt:stream.obj
 0001:000433bb       ?lock@__crt_stdio_stream@@QBEXXZ 100443bb f i libucrt:stream.obj
 0001:000433c4       ?release@?$__crt_unique_heap_ptr@U__crt_stdio_stream_data@@U__crt_internal_free_policy@@@@QAEXXZ 100443c4 f i libucrt:stream.obj
 0001:000433d6       ?try_allocate@__crt_stdio_stream@@QAE_NXZ 100443d6 f i libucrt:stream.obj
 0001:000433f6       ??$__acrt_stdio_parse_mode@D@@YA?AU__acrt_stdio_stream_mode@@QBD@Z 100443f6 f i libucrt:openfile.obj
 0001:00043620       ??$__acrt_stdio_parse_mode@_W@@YA?AU__acrt_stdio_stream_mode@@QB_W@Z 10044620 f i libucrt:openfile.obj
 0001:00043991       ??$tcsncmp@AAPBDAAY02$$CBDI@?$__crt_char_traits@D@@SAHAAPBDAAY02$$CBD$$QAI@Z 10044991 f i libucrt:openfile.obj
 0001:000439ad       ??$tcsncmp@AAPB_WAAY02$$CB_WI@?$__crt_char_traits@_W@@SAHAAPB_WAAY02$$CB_W$$QAI@Z 100449ad f i libucrt:openfile.obj
 0001:000439c9       ??$tcsnicmp@AAPBDAAY04$$CBDI@?$__crt_char_traits@D@@SAHAAPBDAAY04$$CBD$$QAI@Z 100449c9 f i libucrt:openfile.obj
 0001:000439e5       ??$tcsnicmp@AAPBDAAY06$$CBDI@?$__crt_char_traits@D@@SAHAAPBDAAY06$$CBD$$QAI@Z 100449e5 f i libucrt:openfile.obj
 0001:00043a01       ??$tcsnicmp@AAPBDAAY07$$CBDI@?$__crt_char_traits@D@@SAHAAPBDAAY07$$CBD$$QAI@Z 10044a01 f i libucrt:openfile.obj
 0001:00043a1d       ??$tcsnicmp@AAPB_WAAY04$$CB_WI@?$__crt_char_traits@_W@@SAHAAPB_WAAY04$$CB_W$$QAI@Z 10044a1d f i libucrt:openfile.obj
 0001:00043a39       ??$tcsnicmp@AAPB_WAAY06$$CB_WI@?$__crt_char_traits@_W@@SAHAAPB_WAAY06$$CB_W$$QAI@Z 10044a39 f i libucrt:openfile.obj
 0001:00043a55       ??$tcsnicmp@AAPB_WAAY07$$CB_WI@?$__crt_char_traits@_W@@SAHAAPB_WAAY07$$CB_W$$QAI@Z 10044a55 f i libucrt:openfile.obj
 0001:00043a71       ??$tsopen_s@PAHABQBDABHABHH@?$__crt_char_traits@D@@SAH$$QAPAHABQBDABH2$$QAH@Z 10044a71 f i libucrt:openfile.obj
 0001:00043a99       ??$tsopen_s@PAHABQB_WABHABHH@?$__crt_char_traits@_W@@SAH$$QAPAHABQB_WABH2$$QAH@Z 10044a99 f i libucrt:openfile.obj
 0001:00043ac1       ?__acrt_stdio_parse_mode_D@@YA_NAAU__acrt_stdio_stream_mode@@@Z 10044ac1 f i libucrt:openfile.obj
 0001:00043adc       ?__acrt_stdio_parse_mode_N@@YA_NAAU__acrt_stdio_stream_mode@@@Z 10044adc f i libucrt:openfile.obj
 0001:00043aee       ?__acrt_stdio_parse_mode_R@@YA_NAAU__acrt_stdio_stream_mode@@AA_N@Z 10044aee f i libucrt:openfile.obj
 0001:00043b0c       ?__acrt_stdio_parse_mode_S@@YA_NAAU__acrt_stdio_stream_mode@@AA_N@Z 10044b0c f i libucrt:openfile.obj
 0001:00043b2a       ?__acrt_stdio_parse_mode_T@@YA_NAAU__acrt_stdio_stream_mode@@@Z 10044b2a f i libucrt:openfile.obj
 0001:00043b49       ?__acrt_stdio_parse_mode_b@@YA_NAAU__acrt_stdio_stream_mode@@@Z 10044b49 f i libucrt:openfile.obj
 0001:00043b69       ?__acrt_stdio_parse_mode_c@@YA_NAAU__acrt_stdio_stream_mode@@AA_N@Z 10044b69 f i libucrt:openfile.obj
 0001:00043b8b       ?__acrt_stdio_parse_mode_n@@YA_NAAU__acrt_stdio_stream_mode@@AA_N@Z 10044b8b f i libucrt:openfile.obj
 0001:00043bad       ?__acrt_stdio_parse_mode_plus@@YA_NAAU__acrt_stdio_stream_mode@@AA_N@Z 10044bad f i libucrt:openfile.obj
 0001:00043be3       ?__acrt_stdio_parse_mode_t@@YA_NAAU__acrt_stdio_stream_mode@@@Z 10044be3 f i libucrt:openfile.obj
 0001:00043c03       ?__acrt_stdio_parse_mode_x@@YA_NAAU__acrt_stdio_stream_mode@@@Z 10044c03 f i libucrt:openfile.obj
 0001:00043c23       __openfile                 10044c23 f   libucrt:openfile.obj
 0001:00043c2e       __wopenfile                10044c2e f   libucrt:openfile.obj
 0001:00043c39       ___ascii_wcsicmp           10044c39 f   libucrt:wcsicmp.obj
 0001:00043c76       __towlower_fast_internal   10044c76 f i libucrt:wcsicmp.obj
 0001:00043ca1       __towlower_internal        10044ca1 f i libucrt:wcsicmp.obj
 0001:00043ce0       __wcsicmp                  10044ce0 f   libucrt:wcsicmp.obj
 0001:00043d29       __wcsicmp_l                10044d29 f   libucrt:wcsicmp.obj
 0001:00043de1       ?dangerous_get_state_array@?$dual_state_global@PAPAD@__crt_state_management@@QAEPAPAPADXZ 10044de1 f i libucrt:timeset.obj
 0001:00043de4       ?dangerous_get_state_array@?$dual_state_global@PAPA_W@__crt_state_management@@QAEPAPAPA_WXZ 10044de4 f i libucrt:timeset.obj
 0001:00043de7       ?initialize@?$dual_state_global@H@__crt_state_management@@QAEXH@Z 10044de7 f i libucrt:timeset.obj
 0001:00043e03       ?initialize@?$dual_state_global@J@__crt_state_management@@QAEXJ@Z 10044e03 f i libucrt:timeset.obj
 0001:00043e1f       ?value@?$dual_state_global@H@__crt_state_management@@QAEAAHXZ 10044e1f f i libucrt:timeset.obj
 0001:00043e22       ?value@?$dual_state_global@J@__crt_state_management@@QAEAAJXZ 10044e22 f i libucrt:timeset.obj
 0001:00043e25       ___acrt_initialize_timeset 10044e25 f   libucrt:timeset.obj
 0001:00043e5a       ___daylight                10044e5a f   libucrt:timeset.obj
 0001:00043e60       ___dstbias                 10044e60 f   libucrt:timeset.obj
 0001:00043e66       ___timezone                10044e66 f   libucrt:timeset.obj
 0001:00043e6c       ___tzname                  10044e6c f   libucrt:timeset.obj
 0001:00043e72       ___wide_tzname             10044e72 f   libucrt:timeset.obj
 0001:00043e78       __get_daylight             10044e78 f   libucrt:timeset.obj
 0001:00043ea4       __get_dstbias              10044ea4 f   libucrt:timeset.obj
 0001:00043ed0       __get_timezone             10044ed0 f   libucrt:timeset.obj
 0001:00043efc       __get_tzname               10044efc f   libucrt:timeset.obj
 0001:00043fa9       ??$__crt_time_elapsed_leap_years@H@@YAHH@Z 10044fa9 f i libucrt:tzset.obj
 0001:00043fe3       ?__acrt_get_utf8_acp_compatibility_codepage@@YAIXZ 10044fe3 f i libucrt:tzset.obj
 0001:0004423c       ?_set_daylight@@YAXH@Z     1004523c f i libucrt:tzset.obj
 0001:0004424d       ?_set_dstbias@@YAXJ@Z      1004524d f i libucrt:tzset.obj
 0001:0004425e       ?_set_timezone@@YAXJ@Z     1004525e f i libucrt:tzset.obj
 0001:000443b2       ?dangerous_get_state_array@?$dual_state_global@J@__crt_state_management@@QAEPAJXZ 100453b2 f i libucrt:tzset.obj
 0001:00044917       ___tzset                   10045917 f   libucrt:tzset.obj
 0001:00044974       __isindst                  10045974 f   libucrt:tzset.obj
 0001:000449c8       __tzset                    100459c8 f   libucrt:tzset.obj
 0001:00044bb7       __close                    10045bb7 f   libucrt:close.obj
 0001:00044be7       __close_internal           10045be7 f   libucrt:close.obj
 0001:00044c8a       __close_nolock             10045c8a f   libucrt:close.obj
 0001:00044cba       __close_nolock_internal    10045cba f   libucrt:close.obj
 0001:00044e85       ?has_big_buffer@__crt_stdio_stream@@QBE_NXZ 10045e85 f i libucrt:fwrite.obj
 0001:00044e91       __fwrite_internal          10045e91 f   libucrt:fwrite.obj
 0001:00044f08       __fwrite_nolock            10045f08 f   libucrt:fwrite.obj
 0001:00044f42       __fwrite_nolock_internal   10045f42 f   libucrt:fwrite.obj
 0001:000450e9       _fwrite                    100460e9 f   libucrt:fwrite.obj
 0001:00045123       ??$?RUtm@@@__crt_internal_free_policy@@QBEXQBUtm@@@Z 10046123 f i libucrt:gmtime.obj
 0001:000453d9       ??0?$__crt_unique_heap_ptr@Utm@@U__crt_internal_free_policy@@@@QAE@QAUtm@@@Z 100463d9 f i libucrt:gmtime.obj
 0001:000453e9       ??1?$__crt_unique_heap_ptr@Utm@@U__crt_internal_free_policy@@@@QAE@XZ 100463e9 f i libucrt:gmtime.obj
 0001:00045516       ?detach@?$__crt_unique_heap_ptr@Utm@@U__crt_internal_free_policy@@@@QAEPAUtm@@XZ 10046516 f i libucrt:gmtime.obj
 0001:0004551c       ?release@?$__crt_unique_heap_ptr@Utm@@U__crt_internal_free_policy@@@@QAEXXZ 1004651c f i libucrt:gmtime.obj
 0001:0004552e       ___getgmtimebuf            1004652e f   libucrt:gmtime.obj
 0001:0004556c       __gmtime32                 1004656c f   libucrt:gmtime.obj
 0001:00045593       __gmtime32_s               10046593 f   libucrt:gmtime.obj
 0001:0004559e       __gmtime64                 1004659e f   libucrt:gmtime.obj
 0001:000455c5       __gmtime64_s               100465c5 f   libucrt:gmtime.obj
 0001:000455d0       __msize                    100465d0 f   libucrt:msize.obj
 0001:000455db       __msize_base               100465db f   libucrt:msize.obj
 0001:0004563e       ??$__acrt_convert_wcs_mbs_cp@D_WV<lambda_62f6974d9771e494a5ea317cc32e971c>@@U__crt_win32_buffer_internal_dynamic_resizing@@@@YAHQBDAAV?$__crt_win32_buffer@_WU__crt_win32_buffer_internal_dynamic_resizing@@@@ABV<lambda_62f6974d9771e494a5ea317cc32e971c>@@I@Z 1004663e f i libucrt:argv_wildcards.obj
 0001:000456f0       ??$__acrt_convert_wcs_mbs_cp@_WDV<lambda_28bda7af82a03b66c1cb3803a755f95d>@@U__crt_win32_buffer_internal_dynamic_resizing@@@@YAHQB_WAAV?$__crt_win32_buffer@DU__crt_win32_buffer_internal_dynamic_resizing@@@@ABV<lambda_28bda7af82a03b66c1cb3803a755f95d>@@I@Z 100466f0 f i libucrt:argv_wildcards.obj
 0001:000457b6       ??$__acrt_mbs_to_wcs_cp@U__crt_win32_buffer_internal_dynamic_resizing@@@@YAHQBDAAV?$__crt_win32_buffer@_WU__crt_win32_buffer_internal_dynamic_resizing@@@@I@Z 100467b6 f i libucrt:argv_wildcards.obj
 0001:000457d3       ??$__acrt_wcs_to_mbs_cp@U__crt_win32_buffer_internal_dynamic_resizing@@@@YAHQB_WAAV?$__crt_win32_buffer@DU__crt_win32_buffer_internal_dynamic_resizing@@@@I@Z 100467d3 f i libucrt:argv_wildcards.obj
 0001:00046085       ??$tcslen@ABQBD@?$__crt_char_traits@D@@SAIABQBD@Z 10047085 f i libucrt:argv_wildcards.obj
 0001:0004609d       ??$tcslen@ABQB_W@?$__crt_char_traits@_W@@SAIABQB_W@Z 1004709d f i libucrt:argv_wildcards.obj
 0001:000460bb       ??$tcsncpy_s@AAPADIAAPADABI@?$__crt_char_traits@D@@SAHAAPAD$$QAI0ABI@Z 100470bb f i libucrt:argv_wildcards.obj
 0001:000460de       ??$tcsncpy_s@AAPA_WIAAPA_WABI@?$__crt_char_traits@_W@@SAHAAPA_W$$QAI0ABI@Z 100470de f i libucrt:argv_wildcards.obj
 0001:00046101       ??$tcsncpy_s@PADABIABQBDABI@?$__crt_char_traits@D@@SAH$$QAPADABIABQBD1@Z 10047101 f i libucrt:argv_wildcards.obj
 0001:00046124       ??$tcsncpy_s@PADIABQBDABI@?$__crt_char_traits@D@@SAH$$QAPAD$$QAIABQBDABI@Z 10047124 f i libucrt:argv_wildcards.obj
 0001:00046147       ??$tcsncpy_s@PA_WABIABQB_WABI@?$__crt_char_traits@_W@@SAH$$QAPA_WABIABQB_W1@Z 10047147 f i libucrt:argv_wildcards.obj
 0001:0004616a       ??$tcsncpy_s@PA_WIABQB_WABI@?$__crt_char_traits@_W@@SAH$$QAPA_W$$QAIABQB_WABI@Z 1004716a f i libucrt:argv_wildcards.obj
 0001:0004618d       ??$tcspbrk@AAPADAAY02$$CBD@?$__crt_char_traits@D@@SAPADAAPADAAY02$$CBD@Z 1004718d f i libucrt:argv_wildcards.obj
 0001:000461a3       ??$tcspbrk@AAPA_WAAY02$$CB_W@?$__crt_char_traits@_W@@SAPA_WAAPA_WAAY02$$CB_W@Z 100471a3 f i libucrt:argv_wildcards.obj
 0001:000461b9       ??0?$__crt_unique_handle_t@U__crt_findfile_traits@@@@QAE@QAX@Z 100471b9 f i libucrt:argv_wildcards.obj
 0001:000461c9       ??0?$__crt_win32_buffer@DU__crt_win32_buffer_internal_dynamic_resizing@@@@QAE@XZ 100471c9 f i libucrt:argv_wildcards.obj
 0001:000461df       ??0?$__crt_win32_buffer@_WU__crt_win32_buffer_internal_dynamic_resizing@@@@QAE@XZ 100471df f i libucrt:argv_wildcards.obj
 0001:0004620f       ??1?$__crt_unique_handle_t@U__crt_findfile_traits@@@@QAE@XZ 1004720f f i libucrt:argv_wildcards.obj
 0001:00046226       ??1?$__crt_win32_buffer@DU__crt_win32_buffer_internal_dynamic_resizing@@@@QAE@XZ 10047226 f i libucrt:argv_wildcards.obj
 0001:0004622b       ??1?$__crt_win32_buffer@_WU__crt_win32_buffer_internal_dynamic_resizing@@@@QAE@XZ 1004722b f i libucrt:argv_wildcards.obj
 0001:00046286       ??R<lambda_28bda7af82a03b66c1cb3803a755f95d>@@QBE@IQB_WQADI@Z 10047286 f i libucrt:argv_wildcards.obj
 0001:000462c8       ??R<lambda_62f6974d9771e494a5ea317cc32e971c>@@QBE@IQBDQA_WI@Z 100472c8 f i libucrt:argv_wildcards.obj
 0001:00046341       ?_deallocate@?$__crt_win32_buffer@DU__crt_win32_buffer_internal_dynamic_resizing@@@@AAEXXZ 10047341 f i libucrt:argv_wildcards.obj
 0001:0004635b       ?_deallocate@?$__crt_win32_buffer@_WU__crt_win32_buffer_internal_dynamic_resizing@@@@AAEXXZ 1004735b f i libucrt:argv_wildcards.obj
 0001:00046375       ?allocate@?$__crt_win32_buffer@DU__crt_win32_buffer_internal_dynamic_resizing@@@@QAEHI@Z 10047375 f i libucrt:argv_wildcards.obj
 0001:000463b1       ?allocate@?$__crt_win32_buffer@_WU__crt_win32_buffer_internal_dynamic_resizing@@@@QAEHI@Z 100473b1 f i libucrt:argv_wildcards.obj
 0001:000463f0       ?allocate@__crt_win32_buffer_internal_dynamic_resizing@@SAHQAPAXIABV__crt_win32_buffer_empty_debug_info@@@Z 100473f0 f i libucrt:argv_wildcards.obj
 0001:0004647f       ?capacity@?$__crt_win32_buffer@DU__crt_win32_buffer_internal_dynamic_resizing@@@@QBEIXZ 1004747f f i libucrt:argv_wildcards.obj
 0001:00046483       ?capacity@?$__crt_win32_buffer@_WU__crt_win32_buffer_internal_dynamic_resizing@@@@QBEIXZ 10047483 f i libucrt:argv_wildcards.obj
 0001:00046487       ?close@?$__crt_unique_handle_t@U__crt_findfile_traits@@@@QAEXXZ 10047487 f i libucrt:argv_wildcards.obj
 0001:0004649e       ?close@__crt_findfile_traits@@SA_NPAX@Z 1004749e f i libucrt:argv_wildcards.obj
 0001:000464b3       ?data@?$__crt_win32_buffer@DU__crt_win32_buffer_internal_dynamic_resizing@@@@QAEPADXZ 100474b3 f i libucrt:argv_wildcards.obj
 0001:000464b7       ?data@?$__crt_win32_buffer@_WU__crt_win32_buffer_internal_dynamic_resizing@@@@QAEPA_WXZ 100474b7 f i libucrt:argv_wildcards.obj
 0001:000464bb       ?deallocate@__crt_win32_buffer_internal_dynamic_resizing@@SAXQAXABV__crt_win32_buffer_empty_debug_info@@@Z 100474bb f i libucrt:argv_wildcards.obj
 0001:000464cb       ?debug_info@?$__crt_win32_buffer@DU__crt_win32_buffer_internal_dynamic_resizing@@@@QBEABV__crt_win32_buffer_empty_debug_info@@XZ 100474cb f i libucrt:argv_wildcards.obj
 0001:000464ce       ?debug_info@?$__crt_win32_buffer@_WU__crt_win32_buffer_internal_dynamic_resizing@@@@QBEABV__crt_win32_buffer_empty_debug_info@@XZ 100474ce f i libucrt:argv_wildcards.obj
 0001:000465e7       ?get@?$__crt_unique_handle_t@U__crt_findfile_traits@@@@QBEPAXXZ 100475e7 f i libucrt:argv_wildcards.obj
 0001:0004661d       ?get_invalid_value@__crt_findfile_traits@@SAPAXXZ 1004761d f i libucrt:argv_wildcards.obj
 0001:0004666c       ?set_to_nullptr@?$__crt_win32_buffer@DU__crt_win32_buffer_internal_dynamic_resizing@@@@QAEXXZ 1004766c f i libucrt:argv_wildcards.obj
 0001:00046683       ?set_to_nullptr@?$__crt_win32_buffer@_WU__crt_win32_buffer_internal_dynamic_resizing@@@@QAEXXZ 10047683 f i libucrt:argv_wildcards.obj
 0001:0004669a       ?size@?$__crt_win32_buffer@DU__crt_win32_buffer_internal_dynamic_resizing@@@@QAEXI@Z 1004769a f i libucrt:argv_wildcards.obj
 0001:000466a9       ?size@?$__crt_win32_buffer@_WU__crt_win32_buffer_internal_dynamic_resizing@@@@QAEXI@Z 100476a9 f i libucrt:argv_wildcards.obj
 0001:000466ca       ?strpbrk@@YAPADQADQBD@Z    100476ca f i libucrt:argv_wildcards.obj
 0001:000466d5       ?wcspbrk@@YAPA_WPA_WPB_W@Z 100476d5 f i libucrt:argv_wildcards.obj
 0001:000466e0       ___acrt_expand_narrow_argv_wildcards 100476e0 f   libucrt:argv_wildcards.obj
 0001:000466eb       ___acrt_expand_wide_argv_wildcards 100476eb f   libucrt:argv_wildcards.obj
 0001:000466f6       ??$__acrt_convert_wcs_mbs_cp@_WDV<lambda_0fec1a7b3f42a53036604e18c2d5e07e>@@U__crt_win32_buffer_no_resizing@@@@YAHQB_WAAV?$__crt_win32_buffer@DU__crt_win32_buffer_no_resizing@@@@ABV<lambda_0fec1a7b3f42a53036604e18c2d5e07e>@@I@Z 100476f6 f i libucrt:getmodulefilenamea.obj
 0001:000467b8       ??$__acrt_wcs_to_mbs_cp@U__crt_win32_buffer_no_resizing@@@@YAHQB_WAAV?$__crt_win32_buffer@DU__crt_win32_buffer_no_resizing@@@@I@Z 100477b8 f i libucrt:getmodulefilenamea.obj
 0001:000467d5       ??0?$__crt_win32_buffer@DU__crt_win32_buffer_no_resizing@@@@QAE@QADI@Z 100477d5 f i libucrt:getmodulefilenamea.obj
 0001:000467f9       ??1?$__crt_win32_buffer@DU__crt_win32_buffer_no_resizing@@@@QAE@XZ 100477f9 f i libucrt:getmodulefilenamea.obj
 0001:00046804       ??R<lambda_0fec1a7b3f42a53036604e18c2d5e07e>@@QBE@IQB_WQADI@Z 10047804 f i libucrt:getmodulefilenamea.obj
 0001:00046828       ?_deallocate@?$__crt_win32_buffer@DU__crt_win32_buffer_no_resizing@@@@AAEXXZ 10047828 f i libucrt:getmodulefilenamea.obj
 0001:00046833       ?allocate@?$__crt_win32_buffer@DU__crt_win32_buffer_no_resizing@@@@QAEHI@Z 10047833 f i libucrt:getmodulefilenamea.obj
 0001:0004685a       ?allocate@__crt_win32_buffer_no_resizing@@SAHQAPAXIABV__crt_win32_buffer_empty_debug_info@@@Z 1004785a f i libucrt:getmodulefilenamea.obj
 0001:00046867       ?capacity@?$__crt_win32_buffer@DU__crt_win32_buffer_no_resizing@@@@QBEIXZ 10047867 f i libucrt:getmodulefilenamea.obj
 0001:0004686b       ?data@?$__crt_win32_buffer@DU__crt_win32_buffer_no_resizing@@@@QAEPADXZ 1004786b f i libucrt:getmodulefilenamea.obj
 0001:0004686f       ?deallocate@__crt_win32_buffer_no_resizing@@SAXQAXABV__crt_win32_buffer_empty_debug_info@@@Z 1004786f f i libucrt:getmodulefilenamea.obj
 0001:00046872       ?debug_info@?$__crt_win32_buffer@DU__crt_win32_buffer_no_resizing@@@@QBEABV__crt_win32_buffer_empty_debug_info@@XZ 10047872 f i libucrt:getmodulefilenamea.obj
 0001:00046875       ?set_to_nullptr@?$__crt_win32_buffer@DU__crt_win32_buffer_no_resizing@@@@QAEXXZ 10047875 f i libucrt:getmodulefilenamea.obj
 0001:00046889       ?size@?$__crt_win32_buffer@DU__crt_win32_buffer_no_resizing@@@@QAEXI@Z 10047889 f i libucrt:getmodulefilenamea.obj
 0001:00046898       ?size@?$__crt_win32_buffer@DU__crt_win32_buffer_no_resizing@@@@QBEIXZ 10047898 f i libucrt:getmodulefilenamea.obj
 0001:0004689c       ___acrt_GetModuleFileNameA 1004789c f   libucrt:getmodulefilenamea.obj
 0001:000469b0       ??$initialize_from_array@$$BY10BAA@E@?$dual_state_global@PAE@__crt_state_management@@QAAXAAY10BAA@E@Z 100479b0 f i libucrt:mbctype.obj
 0001:000469bf       ??$initialize_from_array@$$BY10BAB@E@?$dual_state_global@PAE@__crt_state_management@@QAAXAAY10BAB@E@Z 100479bf f i libucrt:mbctype.obj
 0001:00046adb       ?dangerous_get_state_array@?$dual_state_global@PAE@__crt_state_management@@QAEPAPAEXZ 10047adb f i libucrt:mbctype.obj
 0001:00046ade       ?dangerous_get_state_array@?$dual_state_global@PAU__crt_multibyte_data@@@__crt_state_management@@QAEPAPAU__crt_multibyte_data@@XZ 10047ade f i libucrt:mbctype.obj
 0001:00046b52       ?initialize@?$dual_state_global@PAU__crt_multibyte_data@@@__crt_state_management@@QAEXQAU__crt_multibyte_data@@@Z 10047b52 f i libucrt:mbctype.obj
 0001:00046f6b       ?value@?$dual_state_global@PAE@__crt_state_management@@QAEAAPAEXZ 10047f6b f i libucrt:mbctype.obj
 0001:00046f6e       ___acrt_initialize_multibyte 10047f6e f   libucrt:mbctype.obj
 0001:00046fb6       ___acrt_update_thread_multibyte_data 10047fb6 f   libucrt:mbctype.obj
 0001:00046fc9       ___p__mbcasemap            10047fc9 f   libucrt:mbctype.obj
 0001:00046fcf       ___p__mbctype              10047fcf f   libucrt:mbctype.obj
 0001:00046fd5       __getmbcp                  10047fd5 f   libucrt:mbctype.obj
 0001:00047009       __setmbcp                  10048009 f   libucrt:mbctype.obj
 0001:00047028       __setmbcp_nolock           10048028 f   libucrt:mbctype.obj
 0001:000472fe       __ismbbalnum               100482fe f   libucrt:ismbbyte.obj
 0001:00047319       __ismbbalnum_l             10048319 f   libucrt:ismbbyte.obj
 0001:00047335       __ismbbalpha               10048335 f   libucrt:ismbbyte.obj
 0001:00047350       __ismbbalpha_l             10048350 f   libucrt:ismbbyte.obj
 0001:0004736c       __ismbbblank               1004836c f   libucrt:ismbbyte.obj
 0001:0004738f       __ismbbblank_l             1004838f f   libucrt:ismbbyte.obj
 0001:000473b3       __ismbbgraph               100483b3 f   libucrt:ismbbyte.obj
 0001:000473ce       __ismbbgraph_l             100483ce f   libucrt:ismbbyte.obj
 0001:000473ea       __ismbbkalnum              100483ea f   libucrt:ismbbyte.obj
 0001:00047402       __ismbbkalnum_l            10048402 f   libucrt:ismbbyte.obj
 0001:0004741b       __ismbbkana                1004841b f   libucrt:ismbbyte.obj
 0001:0004742e       __ismbbkana_l              1004842e f   libucrt:ismbbyte.obj
 0001:0004747d       __ismbbkprint              1004847d f   libucrt:ismbbyte.obj
 0001:00047495       __ismbbkprint_l            10048495 f   libucrt:ismbbyte.obj
 0001:000474ae       __ismbbkpunct              100484ae f   libucrt:ismbbyte.obj
 0001:000474c6       __ismbbkpunct_l            100484c6 f   libucrt:ismbbyte.obj
 0001:000474df       __ismbblead                100484df f   libucrt:ismbbyte.obj
 0001:000474f7       __ismbblead_l              100484f7 f   libucrt:ismbbyte.obj
 0001:00047510       __ismbbprint               10048510 f   libucrt:ismbbyte.obj
 0001:0004752b       __ismbbprint_l             1004852b f   libucrt:ismbbyte.obj
 0001:00047547       __ismbbpunct               10048547 f   libucrt:ismbbyte.obj
 0001:0004755f       __ismbbpunct_l             1004855f f   libucrt:ismbbyte.obj
 0001:00047578       __ismbbtrail               10048578 f   libucrt:ismbbyte.obj
 0001:00047590       __ismbbtrail_l             10048590 f   libucrt:ismbbyte.obj
 0001:000475a9       ___acrt_initialize_command_line 100485a9 f   libucrt:argv_data.obj
 0001:000475c2       ___acrt_uninitialize_command_line 100485c2 f   libucrt:argv_data.obj
 0001:000475c5       ___p___argc                100485c5 f   libucrt:argv_data.obj
 0001:000475cb       ___p___argv                100485cb f   libucrt:argv_data.obj
 0001:000475d1       ___p___wargv               100485d1 f   libucrt:argv_data.obj
 0001:000475d7       ___p__acmdln               100485d7 f   libucrt:argv_data.obj
 0001:000475dd       ___p__pgmptr               100485dd f   libucrt:argv_data.obj
 0001:000475e3       ___p__wcmdln               100485e3 f   libucrt:argv_data.obj
 0001:000475e9       ___p__wpgmptr              100485e9 f   libucrt:argv_data.obj
 0001:000475ef       __get_pgmptr               100485ef f   libucrt:argv_data.obj
 0001:00047620       __get_wpgmptr              10048620 f   libucrt:argv_data.obj
 0001:000476e9       ___acrt_MultiByteToWideChar 100486e9 f   libucrt:multibytetowidechar.obj
 0001:000477a3       ___acrt_WideCharToMultiByte 100487a3 f   libucrt:widechartomultibyte.obj
 0001:000478aa       ___dcrt_get_narrow_environment_from_os 100488aa f   libucrt:get_environment_from_os.obj
 0001:0004794a       ___dcrt_get_wide_environment_from_os 1004894a f   libucrt:get_environment_from_os.obj
 0001:000480d2       ??$get_or_create_environment_nolock@$$V@?$__crt_char_traits@D@@SAPAPADXZ 100490d2 f i libucrt:setenv.obj
 0001:000480d7       ??$get_or_create_environment_nolock@$$V@?$__crt_char_traits@_W@@SAPAPA_WXZ 100490d7 f i libucrt:setenv.obj
 0001:000480dc       ??$set_environment_variable@ABQADQAD@?$__crt_char_traits@D@@SAHABQAD$$QBQAD@Z 100490dc f i libucrt:setenv.obj
 0001:000480f4       ??$set_environment_variable@ABQA_WQA_W@?$__crt_char_traits@_W@@SAHABQA_W$$QBQA_W@Z 100490f4 f i libucrt:setenv.obj
 0001:0004810b       ??$tcschr@ABQADD@?$__crt_char_traits@D@@SAPADABQAD$$QAD@Z 1004910b f i libucrt:setenv.obj
 0001:00048125       ??$tcschr@ABQA_WD@?$__crt_char_traits@_W@@SAPA_WABQA_W$$QAD@Z 10049125 f i libucrt:setenv.obj
 0001:00048143       ??$tcscpy_s@AAPADABIAAPAD@?$__crt_char_traits@D@@SAHAAPADABI0@Z 10049143 f i libucrt:setenv.obj
 0001:00048161       ??$tcscpy_s@AAPA_WABIAAPA_W@?$__crt_char_traits@_W@@SAHAAPA_WABI0@Z 10049161 f i libucrt:setenv.obj
 0001:0004817f       ??$tcscpy_s@ABQADABIABQAD@?$__crt_char_traits@D@@SAHABQADABI0@Z 1004917f f i libucrt:setenv.obj
 0001:0004819d       ??$tcscpy_s@ABQA_WABIABQA_W@?$__crt_char_traits@_W@@SAHABQA_WABI0@Z 1004919d f i libucrt:setenv.obj
 0001:000481bb       ??$tcslen@ABQAD@?$__crt_char_traits@D@@SAIABQAD@Z 100491bb f i libucrt:setenv.obj
 0001:000481d3       ??$tcslen@ABQA_W@?$__crt_char_traits@_W@@SAIABQA_W@Z 100491d3 f i libucrt:setenv.obj
 0001:000481f1       ??$tcsnicoll@ABQBDAAPADABI@?$__crt_char_traits@D@@SAHABQBDAAPADABI@Z 100491f1 f i libucrt:setenv.obj
 0001:0004820f       ??$tcsnicoll@ABQB_WAAPA_WABI@?$__crt_char_traits@_W@@SAHABQB_WAAPA_WABI@Z 1004920f f i libucrt:setenv.obj
 0001:00048251       ?strchr@@YAPADQADH@Z       10049251 f i libucrt:setenv.obj
 0001:0004825c       ?wcschr@@YAPA_WPA_W_W@Z    1004925c f i libucrt:setenv.obj
 0001:00048267       ___dcrt_set_variable_in_narrow_environment_nolock 10049267 f   libucrt:setenv.obj
 0001:00048272       ___dcrt_set_variable_in_wide_environment_nolock 10049272 f   libucrt:setenv.obj
 0001:0004827d       ___acrt_getheap            1004927d f   libucrt:heap_handle.obj
 0001:00048283       ___acrt_initialize_heap    10049283 f   libucrt:heap_handle.obj
 0001:00048294       ___acrt_uninitialize_heap  10049294 f   libucrt:heap_handle.obj
 0001:0004829e       __get_heap_handle          1004929e f   libucrt:heap_handle.obj
 0001:000482a4       ___acrt_execute_initializers 100492a4 f   libucrt:shared_initialization.obj
 0001:0004830c       ___acrt_execute_uninitializers 1004930c f   libucrt:shared_initialization.obj
 0001:0004833d       ??$__crt_fast_decode_pointer@P6AHPAU_exception@@@Z@@YAP6AHPAU_exception@@@ZQ6AH0@Z@Z 1004933d f i libucrt:matherr.obj
 0001:00048358       ??$__crt_fast_encode_pointer@P6AHPAU_exception@@@Z@@YAP6AHPAU_exception@@@ZQ6AH0@Z@Z 10049358 f i libucrt:matherr.obj
 0001:00048377       ?initialize@?$dual_state_global@P6AHPAU_exception@@@Z@__crt_state_management@@QAEXQ6AHPAU_exception@@@Z@Z 10049377 f i libucrt:matherr.obj
 0001:00048393       ?value@?$dual_state_global@P6AHPAU_exception@@@Z@__crt_state_management@@QAEAAP6AHPAU_exception@@@ZXZ 10049393 f i libucrt:matherr.obj
 0001:00048396       ___acrt_has_user_matherr   10049396 f   libucrt:matherr.obj
 0001:000483b3       ___acrt_initialize_user_matherr 100493b3 f   libucrt:matherr.obj
 0001:000483c2       ___acrt_invoke_user_matherr 100493c2 f   libucrt:matherr.obj
 0001:000483f8       ___setusermatherr          100493f8 f   libucrt:matherr.obj
 0001:0004840d       ___fpe_flt_rounds          1004940d f   libucrt:fegetround.obj
 0001:00048441       _fegetround                10049441 f   libucrt:fegetround.obj
 0001:0004844e       __add_exp                  1004944e f   libucrt:util.obj
 0001:0004847d       __decomp                   1004947d f   libucrt:util.obj
 0001:0004854f       __get_exp                  1004954f f   libucrt:util.obj
 0001:00048567       __set_bexp                 10049567 f   libucrt:util.obj
 0001:0004858e       __set_exp                  1004958e f   libucrt:util.obj
 0001:000485bb       __sptype                   100495bb f   libucrt:util.obj
 0001:0004861e       ___clrfp_sse2              1004961e f   libucrt:fpctrl.obj
 0001:00048650       ___ctrlfp_sse2             10049650 f   libucrt:fpctrl.obj
 0001:0004868b       ___fclrf_sse2              1004968b f   libucrt:fpctrl.obj
 0001:000486a8       ___get_fpsr_sse2           100496a8 f   libucrt:fpctrl.obj
 0001:000486c4       ___set_fpsr_sse2           100496c4 f   libucrt:fpctrl.obj
 0001:00048744       ___set_statfp_sse2         10049744 f   libucrt:fpctrl.obj
 0001:0004875f       ___statfp_sse2             1004975f f   libucrt:fpctrl.obj
 0001:00048774       __clrfp                    10049774 f   libucrt:fpctrl.obj
 0001:00048785       __ctrlfp                   10049785 f   libucrt:fpctrl.obj
 0001:000487af       __set_statfp               100497af f   libucrt:fpctrl.obj
 0001:00048808       __statfp                   10049808 f   libucrt:fpctrl.obj
 0001:00048818       ___pctype_func             10049818 f   libucrt:ctype.obj
 0001:0004883c       ___pwctype_func            1004983c f   libucrt:ctype.obj
 0001:00048842       __isctype                  10049842 f   libucrt:isctype.obj
 0001:00048875       __isctype_l                10049875 f   libucrt:isctype.obj
 0001:00048940       ___acrt_add_locale_ref     10049940 f   libucrt:locale_refcounting.obj
 0001:000489bd       ___acrt_free_locale        100499bd f   libucrt:locale_refcounting.obj
 0001:00048b05       ___acrt_locale_add_lc_time_reference 10049b05 f   libucrt:locale_refcounting.obj
 0001:00048b2e       ___acrt_locale_free_lc_time_if_unreferenced 10049b2e f   libucrt:locale_refcounting.obj
 0001:00048b5f       ___acrt_locale_release_lc_time_reference 10049b5f f   libucrt:locale_refcounting.obj
 0001:00048b88       ___acrt_release_locale_ref 10049b88 f   libucrt:locale_refcounting.obj
 0001:00048c09       ___acrt_update_thread_locale_data 10049c09 f   libucrt:locale_refcounting.obj
 0001:00048c8a       __updatetlocinfoEx_nolock  10049c8a f   libucrt:locale_refcounting.obj
 0001:00048cda       ??$?RG@__crt_internal_free_policy@@QBEXQBG@Z 10049cda f i libucrt:initctype.obj
 0001:00048cec       ??$?RJ@__crt_internal_free_policy@@QBEXQBJ@Z 10049cec f i libucrt:initctype.obj
 0001:00048cfe       ??0?$__crt_unique_heap_ptr@GU__crt_internal_free_policy@@@@QAE@QAG@Z 10049cfe f i libucrt:initctype.obj
 0001:00048d0e       ??0?$__crt_unique_heap_ptr@JU__crt_internal_free_policy@@@@QAE@QAJ@Z 10049d0e f i libucrt:initctype.obj
 0001:00048d1e       ??1?$__crt_unique_heap_ptr@GU__crt_internal_free_policy@@@@QAE@XZ 10049d1e f i libucrt:initctype.obj
 0001:00048d30       ??1?$__crt_unique_heap_ptr@JU__crt_internal_free_policy@@@@QAE@XZ 10049d30 f i libucrt:initctype.obj
 0001:00048d42       ?detach@?$__crt_unique_heap_ptr@GU__crt_internal_free_policy@@@@QAEPAGXZ 10049d42 f i libucrt:initctype.obj
 0001:00048d48       ?detach@?$__crt_unique_heap_ptr@JU__crt_internal_free_policy@@@@QAEPAJXZ 10049d48 f i libucrt:initctype.obj
 0001:00048d4e       ?release@?$__crt_unique_heap_ptr@GU__crt_internal_free_policy@@@@QAEXXZ 10049d4e f i libucrt:initctype.obj
 0001:00048d60       ?release@?$__crt_unique_heap_ptr@JU__crt_internal_free_policy@@@@QAEXXZ 10049d60 f i libucrt:initctype.obj
 0001:00048d72       ____lc_codepage_func       10049d72 f   libucrt:initctype.obj
 0001:00048d97       ____lc_collate_cp_func     10049d97 f   libucrt:initctype.obj
 0001:00048dbc       ____lc_locale_name_func    10049dbc f   libucrt:initctype.obj
 0001:00048de3       ____mb_cur_max_func        10049de3 f   libucrt:initctype.obj
 0001:00048e08       ____mb_cur_max_l_func      10049e08 f   libucrt:initctype.obj
 0001:00048e21       ___acrt_locale_initialize_ctype 10049e21 f   libucrt:initctype.obj
 0001:0004927e       ??$?RUlconv@@@__crt_internal_free_policy@@QBEXQBUlconv@@@Z 1004a27e f i libucrt:initmon.obj
 0001:00049290       ??0?$__crt_unique_heap_ptr@Ulconv@@U__crt_internal_free_policy@@@@QAE@QAUlconv@@@Z 1004a290 f i libucrt:initmon.obj
 0001:000492a0       ??1?$__crt_unique_heap_ptr@Ulconv@@U__crt_internal_free_policy@@@@QAE@XZ 1004a2a0 f i libucrt:initmon.obj
 0001:000492b2       ?detach@?$__crt_unique_heap_ptr@Ulconv@@U__crt_internal_free_policy@@@@QAEPAUlconv@@XZ 1004a2b2 f i libucrt:initmon.obj
 0001:000492b8       ?release@?$__crt_unique_heap_ptr@Ulconv@@U__crt_internal_free_policy@@@@QAEXXZ 1004a2b8 f i libucrt:initmon.obj
 0001:000492ca       ___acrt_locale_free_monetary 1004a2ca f   libucrt:initmon.obj
 0001:000493c8       ___acrt_locale_initialize_monetary 1004a3c8 f   libucrt:initmon.obj
 0001:00049760       ___acrt_locale_free_numeric 1004a760 f   libucrt:initnum.obj
 0001:000497c9       ___acrt_locale_initialize_numeric 1004a7c9 f   libucrt:initnum.obj
 0001:00049a1d       ??$?RU__crt_lc_time_data@@@__crt_internal_free_policy@@QBEXQBU__crt_lc_time_data@@@Z 1004aa1d f i libucrt:inittime.obj
 0001:00049aa1       ??0?$__crt_unique_heap_ptr@U__crt_lc_time_data@@U__crt_internal_free_policy@@@@QAE@QAU__crt_lc_time_data@@@Z 1004aaa1 f i libucrt:inittime.obj
 0001:00049ab1       ??1?$__crt_unique_heap_ptr@U__crt_lc_time_data@@U__crt_internal_free_policy@@@@QAE@XZ 1004aab1 f i libucrt:inittime.obj
 0001:00049ac3       ??B?$__crt_unique_heap_ptr@U__crt_lc_time_data@@U__crt_internal_free_policy@@@@QBE_NXZ 1004aac3 f i libucrt:inittime.obj
 0001:00049aca       ?detach@?$__crt_unique_heap_ptr@U__crt_lc_time_data@@U__crt_internal_free_policy@@@@QAEPAU__crt_lc_time_data@@XZ 1004aaca f i libucrt:inittime.obj
 0001:00049af5       ?get@?$__crt_unique_heap_ptr@U__crt_lc_time_data@@U__crt_internal_free_policy@@@@QBEPAU__crt_lc_time_data@@XZ 1004aaf5 f i libucrt:inittime.obj
 0001:00049de0       ?is_valid@?$__crt_unique_heap_ptr@U__crt_lc_time_data@@U__crt_internal_free_policy@@@@QBE_NXZ 1004ade0 f i libucrt:inittime.obj
 0001:00049de7       ?release@?$__crt_unique_heap_ptr@U__crt_lc_time_data@@U__crt_internal_free_policy@@@@QAEXXZ 1004ade7 f i libucrt:inittime.obj
 0001:00049df9       ___acrt_locale_free_time   1004adf9 f   libucrt:inittime.obj
 0001:00049edd       ___acrt_locale_initialize_time 1004aedd f   libucrt:inittime.obj
 0001:00049fc8       _wcscat_s                  1004afc8 f   libucrt:wcscat_s.obj
 0001:0004a11f       _wcsncat_s                 1004b11f f   libucrt:wcsncat_s.obj
 0001:0004a12a       _wcscspn                   1004b12a f   libucrt:wcscspn.obj
 0001:0004a183       _wcspbrk                   1004b183 f   libucrt:wcspbrk.obj
 0001:0004a1d1       ___acrt_GetStringTypeA     1004b1d1 f   libucrt:getstringtypea.obj
 0001:0004aa12       ___acrt_get_qualified_locale 1004ba12 f   libucrt:get_qualified_locale.obj
 0001:0004b3a5       ___acrt_get_qualified_locale_downlevel 1004c3a5 f   libucrt:getqloc_downlevel.obj
 0001:0004b595       _localeconv                1004c595 f   libucrt:localeconv.obj
 0001:0004b5bd       __query_new_mode           1004c5bd f   libucrt:new_mode.obj
 0001:0004b5c4       __set_new_mode             1004c5c4 f   libucrt:new_mode.obj
 0001:0004b6a4       ___acrt_fp_strflt_to_string 1004c6a4 f   libucrt:_fptostr.obj
 0001:0004ca60       ??0big_integer@__crt_strtox@@QAE@ABU01@@Z 1004da60 f i libucrt:cfout.obj
 0001:0004caa0       ??0big_integer@__crt_strtox@@QAE@XZ 1004daa0 f i libucrt:cfout.obj
 0001:0004cb30       ??4big_integer@__crt_strtox@@QAEAAU01@ABU01@@Z 1004db30 f i libucrt:cfout.obj
 0001:0004cb70       ??8__crt_strtox@@YA_NABUbig_integer@0@0@Z 1004db70 f i libucrt:cfout.obj
 0001:0004cbb0       ??9__crt_strtox@@YA_NABUbig_integer@0@0@Z 1004dbb0 f i libucrt:cfout.obj
 0001:0004cbf0       ?add_carry@__crt_strtox@@YAIAAIII@Z 1004dbf0 f i libucrt:cfout.obj
 0001:0004cc10       ?add_multiply_carry@__crt_strtox@@YAIAAIIII@Z 1004dc10 f i libucrt:cfout.obj
 0001:0004cc40       ?bit_scan_reverse@__crt_strtox@@YAII@Z 1004dc40 f i libucrt:cfout.obj
 0001:0004cc60       ?count_sequential_high_zeroes@__crt_strtox@@YAII@Z 1004dc60 f i libucrt:cfout.obj
 0001:0004cc80       ?divide@__crt_strtox@@YA_KAAUbig_integer@1@ABU21@@Z 1004dc80 f i libucrt:cfout.obj
 0001:0004d130       ?is_zero@__crt_strtox@@YA_NABUbig_integer@1@@Z 1004e130 f i libucrt:cfout.obj
 0001:0004d140       ?make_big_integer@__crt_strtox@@YA?AUbig_integer@1@_K@Z 1004e140 f i libucrt:cfout.obj
 0001:0004d160       ?make_big_integer_power_of_two@__crt_strtox@@YA?AUbig_integer@1@I@Z 1004e160 f i libucrt:cfout.obj
 0001:0004d1b0       ?multiply@__crt_strtox@@YA_NAAUbig_integer@1@ABU21@@Z 1004e1b0 f i libucrt:cfout.obj
 0001:0004d510       ?multiply@__crt_strtox@@YA_NAAUbig_integer@1@I@Z 1004e510 f i libucrt:cfout.obj
 0001:0004d5e0       ?multiply_64_32@__crt_strtox@@YA_K_KI@Z 1004e5e0 f i libucrt:cfout.obj
 0001:0004d600       ?multiply_by_power_of_ten@__crt_strtox@@YA_NAAUbig_integer@1@I@Z 1004e600 f i libucrt:cfout.obj
 0001:0004db90       ?multiply_core@__crt_strtox@@YAIQAIII@Z 1004eb90 f i libucrt:cfout.obj
 0001:0004dbd0       ?shift_left@__crt_strtox@@YA_NAAUbig_integer@1@I@Z 1004ebd0 f i libucrt:cfout.obj
 0001:0004dcff       ___acrt_fltout             1004ecff f   libucrt:cfout.obj
 0001:0004f368       ?__c32rtomb_utf8@__crt_mbstring@@YAIPAD_UPAU_Mbstatet@@AAV__crt_cached_ptd_host@@@Z 10050368 f   libucrt:c32rtomb.obj
 0001:0004f418       _c32rtomb                  10050418 f   libucrt:c32rtomb.obj
 0001:0004f47b       ?__mbrtowc_utf8@__crt_mbstring@@YAIPA_WPBDIPAU_Mbstatet@@AAV__crt_cached_ptd_host@@@Z 1005047b f   libucrt:mbrtowc.obj
 0001:0004f4be       ?__mbsrtowcs_utf8@__crt_mbstring@@YAIPA_WPAPBDIPAU_Mbstatet@@AAV__crt_cached_ptd_host@@@Z 100504be f   libucrt:mbrtowc.obj
 0001:0004f9f8       _btowc                     100509f8 f   libucrt:mbrtowc.obj
 0001:0004fa69       _mbrlen                    10050a69 f   libucrt:mbrtowc.obj
 0001:0004fab1       _mbrtowc                   10050ab1 f   libucrt:mbrtowc.obj
 0001:0004fb18       _mbsrtowcs                 10050b18 f   libucrt:mbrtowc.obj
 0001:0004fb52       _mbsrtowcs_s               10050b52 f   libucrt:mbrtowc.obj
 0001:0004ffad       ___acrt_stdio_flush_and_write_narrow_nolock 10050fad f   libucrt:_flsbuf.obj
 0001:0004ffb8       ___acrt_stdio_flush_and_write_wide_nolock 10050fb8 f   libucrt:_flsbuf.obj
 0001:0004ffc3       __isatty                   10050fc3 f   libucrt:isatty.obj
 0001:00050019       ??$?RU__crt_lowio_handle_data@@@__crt_internal_free_policy@@QBEXQBU__crt_lowio_handle_data@@@Z 10051019 f i libucrt:osfinfo.obj
 0001:0005002b       ??0?$__crt_unique_heap_ptr@U__crt_lowio_handle_data@@U__crt_internal_free_policy@@@@QAE@QAU__crt_lowio_handle_data@@@Z 1005102b f i libucrt:osfinfo.obj
 0001:0005003b       ??1?$__crt_unique_heap_ptr@U__crt_lowio_handle_data@@U__crt_internal_free_policy@@@@QAE@XZ 1005103b f i libucrt:osfinfo.obj
 0001:0005004d       ??B?$__crt_unique_heap_ptr@U__crt_lowio_handle_data@@U__crt_internal_free_policy@@@@QBE_NXZ 1005104d f i libucrt:osfinfo.obj
 0001:00050054       ?detach@?$__crt_unique_heap_ptr@U__crt_lowio_handle_data@@U__crt_internal_free_policy@@@@QAEPAU__crt_lowio_handle_data@@XZ 10051054 f i libucrt:osfinfo.obj
 0001:0005005a       ?get@?$__crt_unique_heap_ptr@U__crt_lowio_handle_data@@U__crt_internal_free_policy@@@@QBEPAU__crt_lowio_handle_data@@XZ 1005105a f i libucrt:osfinfo.obj
 0001:0005005d       ?is_valid@?$__crt_unique_heap_ptr@U__crt_lowio_handle_data@@U__crt_internal_free_policy@@@@QBE_NXZ 1005105d f i libucrt:osfinfo.obj
 0001:00050064       ?release@?$__crt_unique_heap_ptr@U__crt_lowio_handle_data@@U__crt_internal_free_policy@@@@QAEXXZ 10051064 f i libucrt:osfinfo.obj
 0001:00050076       ___acrt_lowio_create_handle_array 10051076 f   libucrt:osfinfo.obj
 0001:000500f1       ___acrt_lowio_destroy_handle_array 100510f1 f   libucrt:osfinfo.obj
 0001:00050126       ___acrt_lowio_ensure_fh_exists 10051126 f   libucrt:osfinfo.obj
 0001:000501c4       ___acrt_lowio_lock_fh      100511c4 f   libucrt:osfinfo.obj
 0001:000501e7       ___acrt_lowio_set_os_handle 100511e7 f   libucrt:osfinfo.obj
 0001:00050279       ___acrt_lowio_unlock_fh    10051279 f   libucrt:osfinfo.obj
 0001:0005029c       __alloc_osfhnd             1005129c f   libucrt:osfinfo.obj
 0001:000503af       __free_osfhnd              100513af f   libucrt:osfinfo.obj
 0001:00050440       __get_osfhandle            10051440 f   libucrt:osfinfo.obj
 0001:000504aa       __open_osfhandle           100514aa f   libucrt:osfinfo.obj
 0001:000505da       ___acrt_GetStringTypeW     100515da f   libucrt:getstringtypew.obj
 0001:0005067a       ___acrt_DownlevelLCIDToLocaleName 1005167a f   libucrt:lcidtoname_downlevel.obj
 0001:0005071d       ___acrt_DownlevelLocaleNameToLCID 1005171d f   libucrt:lcidtoname_downlevel.obj
 0001:000508ac       __commit                   100518ac f   libucrt:commit.obj
 0001:0005111a       __utf8_no_of_trailbytes    1005211a f i libucrt:write.obj
 0001:0005112b       __write                    1005212b f   libucrt:write.obj
 0001:00051162       __write_internal           10052162 f   libucrt:write.obj
 0001:00051273       __write_nolock             10052273 f   libucrt:write.obj
 0001:0005148f       ___ascii_wcsnicmp          1005248f f   libucrt:wcsnicmp.obj
 0001:000514de       __wcsnicmp                 100524de f   libucrt:wcsnicmp.obj
 0001:0005152a       __wcsnicmp_l               1005252a f   libucrt:wcsnicmp.obj
 0001:000515fd       __strnicmp                 100525fd f   libucrt:strnicmp.obj
 0001:0005166a       __strnicmp_l               1005266a f   libucrt:strnicmp.obj
 0001:00051a8d       ??$tsopen_nolock@PAHABQAHABQBDABHABHABHABH@?$__crt_char_traits@D@@SAH$$QAPAHABQAHABQBDABH333@Z 10052a8d f i libucrt:open.obj
 0001:00051abf       ??$tsopen_nolock@PAHABQAHABQB_WABHABHABHABH@?$__crt_char_traits@_W@@SAH$$QAPAHABQAHABQB_WABH333@Z 10052abf f i libucrt:open.obj
 0001:00051af1       ??$tsopen_nolock@PAHPAHABQBDABHHABHH@?$__crt_char_traits@D@@SAH$$QAPAH0ABQBDABH$$QAH23@Z 10052af1 f i libucrt:open.obj
 0001:00051b23       ??$tsopen_nolock@PAHPAHABQB_WABHHABHH@?$__crt_char_traits@_W@@SAH$$QAPAH0ABQB_WABH$$QAH23@Z 10052b23 f i libucrt:open.obj
 0001:0005215d       __open                     1005315d f   libucrt:open.obj
 0001:00052175       __sopen                    10053175 f   libucrt:open.obj
 0001:000521a8       __sopen_dispatch           100531a8 f   libucrt:open.obj
 0001:000521b3       __sopen_nolock             100531b3 f   libucrt:open.obj
 0001:00052221       __sopen_s                  10053221 f   libucrt:open.obj
 0001:00052241       __wopen                    10053241 f   libucrt:open.obj
 0001:00052259       __wsopen                   10053259 f   libucrt:open.obj
 0001:0005228c       __wsopen_dispatch          1005328c f   libucrt:open.obj
 0001:00052297       __wsopen_nolock            10053297 f   libucrt:open.obj
 0001:000525c1       __wsopen_s                 100535c1 f   libucrt:open.obj
 0001:000525e1       ___p__commode              100535e1 f   libucrt:ncommode.obj
 0001:000525e7       __towlower_l               100535e7 f   libucrt:towlower.obj
 0001:000526bb       _towlower                  100536bb f   libucrt:towlower.obj
 0001:000526ce       ??$parse_integer_from_string@JDPAPAD@__crt_strtox@@YAJQBDQAPADHQAU__crt_locale_pointers@@@Z 100536ce f i libucrt:strtox.obj
 0001:00052715       ??$parse_integer_from_string@J_WPAPA_W@__crt_strtox@@YAJQB_WQAPA_WHQAU__crt_locale_pointers@@@Z 10053715 f i libucrt:strtox.obj
 0001:0005275c       ??$parse_integer_from_string@KDPAPAD@__crt_strtox@@YAKQBDQAPADHQAU__crt_locale_pointers@@@Z 1005375c f i libucrt:strtox.obj
 0001:000527a3       ??$parse_integer_from_string@K_WPAPA_W@__crt_strtox@@YAKQB_WQAPA_WHQAU__crt_locale_pointers@@@Z 100537a3 f i libucrt:strtox.obj
 0001:000527ea       ??$parse_integer_from_string@_JDPAPAD@__crt_strtox@@YA_JQBDQAPADHQAU__crt_locale_pointers@@@Z 100537ea f i libucrt:strtox.obj
 0001:00052837       ??$parse_integer_from_string@_J_WPAPA_W@__crt_strtox@@YA_JQB_WQAPA_WHQAU__crt_locale_pointers@@@Z 10053837 f i libucrt:strtox.obj
 0001:00052884       ??$parse_integer_from_string@_KDPAPAD@__crt_strtox@@YA_KQBDQAPADHQAU__crt_locale_pointers@@@Z 10053884 f i libucrt:strtox.obj
 0001:000528d1       ??$parse_integer_from_string@_K_WPAPA_W@__crt_strtox@@YA_KQB_WQAPA_WHQAU__crt_locale_pointers@@@Z 100538d1 f i libucrt:strtox.obj
 0001:0005291e       __strtoi64                 1005391e f   libucrt:strtox.obj
 0001:0005296a       __strtoi64_l               1005396a f   libucrt:strtox.obj
 0001:000529b7       __strtoimax_l              100539b7 f   libucrt:strtox.obj
 0001:00052a04       __strtol_l                 10053a04 f   libucrt:strtox.obj
 0001:00052a4b       __strtoll_l                10053a4b f   libucrt:strtox.obj
 0001:00052a98       __strtoui64                10053a98 f   libucrt:strtox.obj
 0001:00052ae4       __strtoui64_l              10053ae4 f   libucrt:strtox.obj
 0001:00052b31       __strtoul_l                10053b31 f   libucrt:strtox.obj
 0001:00052b78       __strtoull_l               10053b78 f   libucrt:strtox.obj
 0001:00052bc5       __strtoumax_l              10053bc5 f   libucrt:strtox.obj
 0001:00052c12       __wcstoi64                 10053c12 f   libucrt:strtox.obj
 0001:00052c5e       __wcstoi64_l               10053c5e f   libucrt:strtox.obj
 0001:00052cab       __wcstoimax_l              10053cab f   libucrt:strtox.obj
 0001:00052cf8       __wcstol_l                 10053cf8 f   libucrt:strtox.obj
 0001:00052d3f       __wcstoll_l                10053d3f f   libucrt:strtox.obj
 0001:00052d8c       __wcstoui64                10053d8c f   libucrt:strtox.obj
 0001:00052dd8       __wcstoui64_l              10053dd8 f   libucrt:strtox.obj
 0001:00052e25       __wcstoul_l                10053e25 f   libucrt:strtox.obj
 0001:00052e6c       __wcstoull_l               10053e6c f   libucrt:strtox.obj
 0001:00052eb9       __wcstoumax_l              10053eb9 f   libucrt:strtox.obj
 0001:00052f06       _strtoimax                 10053f06 f   libucrt:strtox.obj
 0001:00052f52       _strtol                    10053f52 f   libucrt:strtox.obj
 0001:00052f98       _strtoll                   10053f98 f   libucrt:strtox.obj
 0001:00052fe4       _strtoul                   10053fe4 f   libucrt:strtox.obj
 0001:0005302a       _strtoull                  1005402a f   libucrt:strtox.obj
 0001:00053076       _strtoumax                 10054076 f   libucrt:strtox.obj
 0001:000530c2       _wcstoimax                 100540c2 f   libucrt:strtox.obj
 0001:0005310e       _wcstol                    1005410e f   libucrt:strtox.obj
 0001:00053154       _wcstoll                   10054154 f   libucrt:strtox.obj
 0001:000531a0       _wcstoul                   100541a0 f   libucrt:strtox.obj
 0001:000531e6       _wcstoull                  100541e6 f   libucrt:strtox.obj
 0001:00053232       _wcstoumax                 10054232 f   libucrt:strtox.obj
 0001:00053894       ??$tcscpy_s@AAPADABIABQBD@?$__crt_char_traits@D@@SAHAAPADABIABQBD@Z 10054894 f i libucrt:getenv.obj
 0001:000538b2       ??$tcscpy_s@AAPA_WABIABQB_W@?$__crt_char_traits@_W@@SAHAAPA_WABIABQB_W@Z 100548b2 f i libucrt:getenv.obj
 0001:000538d0       ??$tcscpy_s@ABQADABIABQBD@?$__crt_char_traits@D@@SAHABQADABIABQBD@Z 100548d0 f i libucrt:getenv.obj
 0001:000538ee       ??$tcscpy_s@ABQA_WABIABQB_W@?$__crt_char_traits@_W@@SAHABQA_WABIABQB_W@Z 100548ee f i libucrt:getenv.obj
 0001:0005390c       ??$tcsnicoll@AAPADABQBDABI@?$__crt_char_traits@D@@SAHAAPADABQBDABI@Z 1005490c f i libucrt:getenv.obj
 0001:0005392a       ??$tcsnicoll@AAPA_WABQB_WABI@?$__crt_char_traits@_W@@SAHAAPA_WABQB_WABI@Z 1005492a f i libucrt:getenv.obj
 0001:00053948       ??$tcsnlen@ABQBDH@?$__crt_char_traits@D@@SAIABQBD$$QAH@Z 10054948 f i libucrt:getenv.obj
 0001:00053960       ??$tcsnlen@ABQB_WH@?$__crt_char_traits@_W@@SAIABQB_W$$QAH@Z 10054960 f i libucrt:getenv.obj
 0001:00053978       __dupenv_s                 10054978 f   libucrt:getenv.obj
 0001:00053996       __wdupenv_s                10054996 f   libucrt:getenv.obj
 0001:000539b4       __wgetenv                  100549b4 f   libucrt:getenv.obj
 0001:000539bf       __wgetenv_s                100549bf f   libucrt:getenv.obj
 0001:000539ca       _getenv                    100549ca f   libucrt:getenv.obj
 0001:000539d5       _getenv_s                  100549d5 f   libucrt:getenv.obj
 0001:00053aa0       _qsort                     10054aa0 f   libucrt:qsort.obj
 0001:00054045       _strncpy_s                 10055045 f   libucrt:strncpy_s.obj
 0001:00054050       _strpbrk                   10055050 f   libucrt:strpbrk.obj
 0001:00054090       __mbsdec                   10055090 f   libucrt:mbsdec.obj
 0001:000540a7       __mbsdec_l                 100550a7 f   libucrt:mbsdec.obj
 0001:00054323       ___acrt_LCMapStringA       10055323 f   libucrt:lcmapstringa.obj
 0001:0005437b       __wcsnicoll                1005537b f   libucrt:wcsnicol.obj
 0001:000543e8       __wcsnicoll_l              100553e8 f   libucrt:wcsnicol.obj
 0001:000544a8       __strnicoll                100554a8 f   libucrt:strnicol.obj
 0001:000544d1       __strnicoll_l              100554d1 f   libucrt:strnicol.obj
 0001:00054599       ___acrt_SetEnvironmentVariableA 10055599 f   libucrt:setenvironmentvariablea.obj
 0001:0005462e       ??$__acrt_fenv_shift_bits@W4__acrt_fenv_abstract_control@@@@YA?AW4__acrt_fenv_abstract_control@@W40@0I@Z 1005562e f i libucrt:_fenvutils.obj
 0001:00054640       ??$__acrt_fenv_shift_bits@W4__acrt_fenv_abstract_status@@@@YA?AW4__acrt_fenv_abstract_status@@W40@0I@Z 10055640 f i libucrt:_fenvutils.obj
 0001:00054652       ??$__acrt_fenv_translate_bit@W4__acrt_fenv_abstract_control@@W4__acrt_fenv_machine_sse_control@@@@YA?AW4__acrt_fenv_abstract_control@@W4__acrt_fenv_machine_sse_control@@0W40@1@Z 10055652 f i libucrt:_fenvutils.obj
 0001:0005466a       ??$__acrt_fenv_translate_bit@W4__acrt_fenv_abstract_control@@W4__acrt_fenv_machine_x87_control@@@@YA?AW4__acrt_fenv_abstract_control@@W4__acrt_fenv_machine_x87_control@@0W40@1@Z 1005566a f i libucrt:_fenvutils.obj
 0001:00054682       ??$__acrt_fenv_translate_bit@W4__acrt_fenv_abstract_status@@W4__acrt_fenv_machine_sse_status@@@@YA?AW4__acrt_fenv_abstract_status@@W4__acrt_fenv_machine_sse_status@@0W40@1@Z 10055682 f i libucrt:_fenvutils.obj
 0001:00054697       ??$__acrt_fenv_translate_bit@W4__acrt_fenv_abstract_status@@W4__acrt_fenv_machine_x87_status@@@@YA?AW4__acrt_fenv_abstract_status@@W4__acrt_fenv_machine_x87_status@@0W40@1@Z 10055697 f i libucrt:_fenvutils.obj
 0001:000546ac       ??$__acrt_fenv_translate_bit@W4__acrt_fenv_machine_sse_control@@W4__acrt_fenv_abstract_control@@@@YA?AW4__acrt_fenv_machine_sse_control@@W4__acrt_fenv_abstract_control@@0W40@1@Z 100556ac f i libucrt:_fenvutils.obj
 0001:000546c3       ??$__acrt_fenv_translate_bit@W4__acrt_fenv_machine_sse_status@@W4__acrt_fenv_abstract_status@@@@YA?AW4__acrt_fenv_machine_sse_status@@W4__acrt_fenv_abstract_status@@0W40@1@Z 100556c3 f i libucrt:_fenvutils.obj
 0001:000546d8       ??$__acrt_fenv_translate_bit@W4__acrt_fenv_machine_x87_control@@W4__acrt_fenv_abstract_control@@@@YA?AW4__acrt_fenv_machine_x87_control@@W4__acrt_fenv_abstract_control@@0W40@1@Z 100556d8 f i libucrt:_fenvutils.obj
 0001:000546ef       ??$__acrt_fenv_translate_bit@W4__acrt_fenv_machine_x87_status@@W4__acrt_fenv_abstract_status@@@@YA?AW4__acrt_fenv_machine_x87_status@@W4__acrt_fenv_abstract_status@@0W40@1@Z 100556ef f i libucrt:_fenvutils.obj
 0001:00054704       ??$__acrt_fenv_unshift_bits@W4__acrt_fenv_abstract_control@@@@YA?AW4__acrt_fenv_abstract_control@@W40@0I@Z 10055704 f i libucrt:_fenvutils.obj
 0001:00054716       ??$__acrt_fenv_unshift_bits@W4__acrt_fenv_abstract_status@@@@YA?AW4__acrt_fenv_abstract_status@@W40@0I@Z 10055716 f i libucrt:_fenvutils.obj
 0001:00054b0b       ??I@YA?AW4__acrt_fenv_abstract_control@@W40@0@Z 10055b0b f i libucrt:_fenvutils.obj
 0001:00054b18       ??I@YA?AW4__acrt_fenv_abstract_status@@W40@0@Z 10055b18 f i libucrt:_fenvutils.obj
 0001:00054b25       ??I@YA?AW4__acrt_fenv_machine_sse_control@@W40@0@Z 10055b25 f i libucrt:_fenvutils.obj
 0001:00054b32       ??I@YA?AW4__acrt_fenv_machine_sse_status@@W40@0@Z 10055b32 f i libucrt:_fenvutils.obj
 0001:00054b3f       ??I@YA?AW4__acrt_fenv_machine_x87_control@@W40@0@Z 10055b3f f i libucrt:_fenvutils.obj
 0001:00054b4c       ??I@YA?AW4__acrt_fenv_machine_x87_status@@W40@0@Z 10055b4c f i libucrt:_fenvutils.obj
 0001:00054b59       ??U@YA?AW4__acrt_fenv_abstract_control@@W40@0@Z 10055b59 f i libucrt:_fenvutils.obj
 0001:00054b66       ??U@YA?AW4__acrt_fenv_abstract_status@@W40@0@Z 10055b66 f i libucrt:_fenvutils.obj
 0001:00054b73       ??U@YA?AW4__acrt_fenv_machine_sse_control@@W40@0@Z 10055b73 f i libucrt:_fenvutils.obj
 0001:00054b80       ??U@YA?AW4__acrt_fenv_machine_x87_control@@W40@0@Z 10055b80 f i libucrt:_fenvutils.obj
 0001:00054b8d       ??_5@YAAAW4__acrt_fenv_abstract_control@@AAW40@W40@@Z 10055b8d f i libucrt:_fenvutils.obj
 0001:00054b9c       ??_5@YAAAW4__acrt_fenv_abstract_status@@AAW40@W40@@Z 10055b9c f i libucrt:_fenvutils.obj
 0001:00054bab       ??_5@YAAAW4__acrt_fenv_machine_sse_control@@AAW40@W40@@Z 10055bab f i libucrt:_fenvutils.obj
 0001:00054bbc       ??_5@YAAAW4__acrt_fenv_machine_sse_status@@AAW40@W40@@Z 10055bbc f i libucrt:_fenvutils.obj
 0001:00054bcb       ??_5@YAAAW4__acrt_fenv_machine_x87_control@@AAW40@W40@@Z 10055bcb f i libucrt:_fenvutils.obj
 0001:00054bdc       ??_5@YAAAW4__acrt_fenv_machine_x87_status@@AAW40@W40@@Z 10055bdc f i libucrt:_fenvutils.obj
 0001:00054beb       ?__acrt_fenv_shift_abstract_sse_control@@YA?AW4__acrt_fenv_abstract_control@@W41@@Z 10055beb f i libucrt:_fenvutils.obj
 0001:00054c08       ?__acrt_fenv_shift_abstract_sse_status@@YA?AW4__acrt_fenv_abstract_status@@W41@@Z 10055c08 f i libucrt:_fenvutils.obj
 0001:00054c18       ?__acrt_fenv_shift_abstract_x87_control@@YA?AW4__acrt_fenv_abstract_control@@W41@@Z 10055c18 f i libucrt:_fenvutils.obj
 0001:00054c35       ?__acrt_fenv_shift_abstract_x87_status@@YA?AW4__acrt_fenv_abstract_status@@W41@@Z 10055c35 f i libucrt:_fenvutils.obj
 0001:00054c45       ?__acrt_fenv_unshift_abstract_sse_control@@YA?AW4__acrt_fenv_abstract_control@@W41@@Z 10055c45 f i libucrt:_fenvutils.obj
 0001:00054c64       ?__acrt_fenv_unshift_abstract_sse_status@@YA?AW4__acrt_fenv_abstract_status@@W41@@Z 10055c64 f i libucrt:_fenvutils.obj
 0001:00054c74       ?__acrt_fenv_unshift_abstract_x87_control@@YA?AW4__acrt_fenv_abstract_control@@W41@@Z 10055c74 f i libucrt:_fenvutils.obj
 0001:00054c93       ?__acrt_fenv_unshift_abstract_x87_status@@YA?AW4__acrt_fenv_abstract_status@@W41@@Z 10055c93 f i libucrt:_fenvutils.obj
 0001:000551a6       ___acrt_fenv_expand_round_control 100561a6 f   libucrt:_fenvutils.obj
 0001:000551dc       ___acrt_fenv_get_common_round_control 100561dc f   libucrt:_fenvutils.obj
 0001:000551fe       ___acrt_fenv_get_control   100561fe f   libucrt:_fenvutils.obj
 0001:0005527e       ___acrt_fenv_get_fp_status_word_from_exception_mask 1005627e f   libucrt:_fenvutils.obj
 0001:00055298       ___acrt_fenv_get_status    10056298 f   libucrt:_fenvutils.obj
 0001:00055342       ___acrt_fenv_set_control   10056342 f   libucrt:_fenvutils.obj
 0001:000553bd       ___acrt_fenv_set_status    100563bd f   libucrt:_fenvutils.obj
 0001:00055598       ___acrt_GetLocaleInfoA     10056598 f   libucrt:getlocaleinfoa.obj
 0001:00055c4a       __i64toa                   10056c4a f   libucrt:xtoa.obj
 0001:00055c8b       __i64toa_s                 10056c8b f   libucrt:xtoa.obj
 0001:00055cca       __i64tow                   10056cca f   libucrt:xtoa.obj
 0001:00055d0b       __i64tow_s                 10056d0b f   libucrt:xtoa.obj
 0001:00055d4a       __itoa                     10056d4a f   libucrt:xtoa.obj
 0001:00055d7f       __itoa_s                   10056d7f f   libucrt:xtoa.obj
 0001:00055db2       __itow                     10056db2 f   libucrt:xtoa.obj
 0001:00055de7       __itow_s                   10056de7 f   libucrt:xtoa.obj
 0001:00055e1a       __ltoa                     10056e1a f   libucrt:xtoa.obj
 0001:00055e4f       __ltoa_s                   10056e4f f   libucrt:xtoa.obj
 0001:00055e82       __ltow                     10056e82 f   libucrt:xtoa.obj
 0001:00055eb7       __ltow_s                   10056eb7 f   libucrt:xtoa.obj
 0001:00055eea       __ui64toa                  10056eea f   libucrt:xtoa.obj
 0001:00055f0c       __ui64toa_s                10056f0c f   libucrt:xtoa.obj
 0001:00055f2c       __ui64tow                  10056f2c f   libucrt:xtoa.obj
 0001:00055f4e       __ui64tow_s                10056f4e f   libucrt:xtoa.obj
 0001:00055f6e       __ultoa                    10056f6e f   libucrt:xtoa.obj
 0001:00055f8d       __ultoa_s                  10056f8d f   libucrt:xtoa.obj
 0001:00055faa       __ultow                    10056faa f   libucrt:xtoa.obj
 0001:00055fc9       __ultow_s                  10056fc9 f   libucrt:xtoa.obj
 0001:00055fe6       __controlfp_s              10056fe6 f   libucrt:contrlfp.obj
 0001:00056045       _fegetenv                  10057045 f   libucrt:fegetenv.obj
 0001:00056062       _fesetenv                  10057062 f   libucrt:fesetenv.obj
 0001:000560ae       _feholdexcept              100570ae f   libucrt:feholdexcept.obj
 0001:00056100       __CIlog10                  10057100 f   libucrt:log10_impl.obj
 0001:0005613b       __CIlog10_default          1005713b f   libucrt:log10_impl.obj
 0001:0005614f       __log10_default            1005714f     libucrt:log10_impl.obj
 0001:00056210       _ceil                      10057210 f   libucrt:ceil_pentium4.obj
 0001:00056250       __ceil_pentium4            10057250 f   libucrt:ceil_pentium4.obj
 0001:0005632d       ?reset_and_return@__crt_mbstring@@YAIIPAU_Mbstatet@@@Z 1005732d f   libucrt:common_utf8.obj
 0001:00056341       ?return_illegal_sequence@__crt_mbstring@@YAIPAU_Mbstatet@@AAV__crt_cached_ptd_host@@@Z 10057341 f   libucrt:common_utf8.obj
 0001:00056363       ?__mbrtoc32_utf8@__crt_mbstring@@YAIPA_UPBDIPAU_Mbstatet@@AAV__crt_cached_ptd_host@@@Z 10057363 f   libucrt:mbrtoc32.obj
 0001:00056514       _mbrtoc32                  10057514 f   libucrt:mbrtoc32.obj
 0001:0005692e       __lseek                    1005792e f   libucrt:lseek.obj
 0001:00056965       __lseek_internal           10057965 f   libucrt:lseek.obj
 0001:00056970       __lseek_nolock             10057970 f   libucrt:lseek.obj
 0001:000569a7       __lseek_nolock_internal    100579a7 f   libucrt:lseek.obj
 0001:000569b2       __lseeki64                 100579b2 f   libucrt:lseek.obj
 0001:000569f2       __lseeki64_internal        100579f2 f   libucrt:lseek.obj
 0001:00056a10       __lseeki64_nolock          10057a10 f   libucrt:lseek.obj
 0001:00056a50       __lseeki64_nolock_internal 10057a50 f   libucrt:lseek.obj
 0001:00056a6e       ___acrt_stdio_allocate_buffer_nolock 10057a6e f   libucrt:_getbuf.obj
 0001:00056b6a       ___acrt_report_runtime_error 10057b6a f   libucrt:report_runtime_error.obj
 0001:00056c7f       __query_app_type           10057c7f f   libucrt:report_runtime_error.obj
 0001:00056c85       __set_app_type             10057c85 f   libucrt:report_runtime_error.obj
 0001:00056d75       __putwch                   10057d75 f   libucrt:putwch.obj
 0001:00056da2       __putwch_nolock            10057da2 f   libucrt:putwch.obj
 0001:00056dd4       __putwch_nolock_internal   10057dd4 f   libucrt:putwch.obj
 0001:00057322       __read                     10058322 f   libucrt:read.obj
 0001:0005743b       __read_nolock              1005843b f   libucrt:read.obj
 0001:000577d0       ___ascii_strnicmp          100587d0 f   libucrt:_strnicm.obj
 0001:00057831       ??$__crt_interlocked_read@H@@YAHPDH@Z 10058831 f i libucrt:setmode.obj
 0001:0005783e       __get_fmode                1005883e f   libucrt:setmode.obj
 0001:0005786b       __set_fmode                1005886b f   libucrt:setmode.obj
 0001:000578a8       __setmode                  100588a8 f   libucrt:setmode.obj
 0001:000579c8       __setmode_nolock           100589c8 f   libucrt:setmode.obj
 0001:00057b93       ??0__crt_seek_guard@@QAE@H_J@Z 10058b93 f i libucrt:chsize.obj
 0001:00057be0       ??1__crt_seek_guard@@QAE@XZ 10058be0 f i libucrt:chsize.obj
 0001:00057d00       ?check@?$cached@K@__crt_cached_ptd_host@@QBE_NK@Z 10058d00 f i libucrt:chsize.obj
 0001:00057d1c       __chsize                   10058d1c f   libucrt:chsize.obj
 0001:00057d38       __chsize_nolock            10058d38 f   libucrt:chsize.obj
 0001:00057d6f       __chsize_nolock_internal   10058d6f f   libucrt:chsize.obj
 0001:00057f06       __chsize_s                 10058f06 f   libucrt:chsize.obj
 0001:00057f3d       __umask                    10058f3d f   libucrt:umask.obj
 0001:00057f60       __umask_s                  10058f60 f   libucrt:umask.obj
 0001:00057f9b       ___strncnt                 10058f9b f   libucrt:strncnt.obj
 0001:00057fb7       ___acrt_CompareStringW     10058fb7 f   libucrt:comparestringw.obj
 0001:000582bb       ___acrt_CompareStringA     100592bb f   libucrt:comparestringa.obj
 0001:00058444       ___control87_2             10059444 f   libucrt:ieee87.obj
 0001:000588dc       ___fpreset_sse2            100598dc f   libucrt:ieee87.obj
 0001:00058ab2       __clearfp                  10059ab2 f   libucrt:ieee87.obj
 0001:00058b90       __control87                10059b90 f   libucrt:ieee87.obj
 0001:00058e91       __controlfp                10059e91 f   libucrt:ieee87.obj
 0001:00058eab       __fpreset                  10059eab f   libucrt:ieee87.obj
 0001:00058f81       __set_controlfp            10059f81 f   libucrt:ieee87.obj
 0001:00058ff4       __statusfp                 10059ff4 f   libucrt:ieee87.obj
 0001:0005908f       __statusfp2                1005a08f f   libucrt:ieee87.obj
 0001:000590f2       ___acrt_initialize_sse2    1005a0f2 f   libucrt:mathfcns.obj
 0001:00059102       __set_SSE2_enable          1005a102 f   libucrt:mathfcns.obj
 0001:00059130       __CIlog10_pentium4         1005a130 f   libucrt:log10_pentium4.obj
 0001:00059148       __log10_pentium4           1005a148     libucrt:log10_pentium4.obj
 0001:000593e0       __fFEXP                    1005a3e0 f   libucrt:87tran.obj
 0001:00059437       __rtinfpopse               1005a437     libucrt:87tran.obj
 0001:00059439       __rtinfnpopse              1005a439     libucrt:87tran.obj
 0001:00059449       __fFLN                     1005a449     libucrt:87tran.obj
 0001:000594fe       __rtinfpop                 1005a4fe     libucrt:87tran.obj
 0001:00059500       __rtinfnpop                1005a500     libucrt:87tran.obj
 0001:00059510       __rtforexpinf              1005a510 f   libucrt:87tran.obj
 0001:0005951d       __ffexpm1                  1005a51d     libucrt:87tran.obj
 0001:000595d0       __trandisp1                1005a5d0 f   libucrt:87disp.obj
 0001:00059645       __trandisp2                1005a645 f   libucrt:87disp.obj
 0001:000596df       __rttospopde               1005a6df     libucrt:87disp.obj
 0001:000596e4       __rttospop                 1005a6e4     libucrt:87disp.obj
 0001:000596f0       __rtnospop                 1005a6f0 f   libucrt:87disp.obj
 0001:00059700       __rttosnpop                1005a700 f   libucrt:87disp.obj
 0001:00059701       __rtnospopde               1005a701     libucrt:87disp.obj
 0001:00059708       __rtzeropop                1005a708     libucrt:87disp.obj
 0001:0005970a       __rtzeronpop               1005a70a     libucrt:87disp.obj
 0001:00059710       __rtzerospop               1005a710 f   libucrt:87disp.obj
 0001:0005971d       __rtonepop                 1005a71d     libucrt:87disp.obj
 0001:00059720       __rtonenpop                1005a720 f   libucrt:87disp.obj
 0001:00059730       __tosnan1                  1005a730 f   libucrt:87disp.obj
 0001:00059760       __nosnan2                  1005a760 f   libucrt:87disp.obj
 0001:00059770       __tosnan2                  1005a770 f   libucrt:87disp.obj
 0001:000597a0       __nan2                     1005a7a0 f   libucrt:87disp.obj
 0001:000597e0       __rtindfpop                1005a7e0 f   libucrt:87disp.obj
 0001:000597e2       __rtindfnpop               1005a7e2     libucrt:87disp.obj
 0001:000597f3       __rttosnpopde              1005a7f3     libucrt:87disp.obj
 0001:00059800       __rtatan2inf               1005a800 f   libucrt:87disp.obj
 0001:0005981d       __rtchsifneg               1005a81d     libucrt:87disp.obj
 0001:00059824       ___setfflag                1005a824 f   libucrt:fp_flags.obj
 0001:00059840       __twoToTOS                 1005a840 f   libucrt:common.obj
 0001:00059855       __load_CW                  1005a855 f   libucrt:common.obj
 0001:0005986c       __convertTOStoQNaN         1005a86c f   libucrt:common.obj
 0001:00059885       __fload_withFB             1005a885 f   libucrt:common.obj
 0001:000598c8       __checkTOS_withFB          1005a8c8 f   libucrt:common.obj
 0001:000598de       __fast_exit                1005a8de f   libucrt:common.obj
 0001:000598eb       __math_exit                1005a8eb f   libucrt:common.obj
 0001:00059915       __check_overflow_exit      1005a915 f   libucrt:common.obj
 0001:00059929       __check_range_exit         1005a929 f   libucrt:common.obj
 0001:000599d0       __startTwoArgErrorHandling 1005a9d0 f   libucrt:genexcep.obj
 0001:000599e7       __startOneArgErrorHandling 1005a9e7 f   libucrt:genexcep.obj
 0001:00059a23       ___libm_error_support      1005aa23 f   libucrt:libm_error.obj
 0001:00059c17       ___libm_setusermatherr     1005ac17 f   libucrt:libm_error.obj
 0001:00059c3e       __ceil_default             1005ac3e f   libucrt:ceil.obj
 0001:00059cfc       __set_error_mode           1005acfc f   libucrt:set_error_mode.obj
 0001:00059e3e       ??$message_box@$$TABQBDABQBDK@?$__crt_char_traits@D@@SAH$$QA$$TABQBD1$$QAK@Z 1005ae3e f i libucrt:crtmbox.obj
 0001:00059e5e       ??$message_box@$$TABQB_WABQB_WK@?$__crt_char_traits@_W@@SAH$$QA$$TABQB_W1$$QAK@Z 1005ae5e f i libucrt:crtmbox.obj
 0001:00059e7e       ??$message_box@PAUHWND__@@ABQBDABQBDABI@?$__crt_char_traits@D@@SAH$$QAPAUHWND__@@ABQBD1ABI@Z 1005ae7e f i libucrt:crtmbox.obj
 0001:00059e9e       ??$message_box@PAUHWND__@@ABQB_WABQB_WABI@?$__crt_char_traits@_W@@SAH$$QAPAUHWND__@@ABQB_W1ABI@Z 1005ae9e f i libucrt:crtmbox.obj
 0001:00059ebe       ??$output_debug_string@ABQBD@?$__crt_char_traits@D@@SAXABQBD@Z 1005aebe f i libucrt:crtmbox.obj
 0001:00059ecf       ??$output_debug_string@ABQB_W@?$__crt_char_traits@_W@@SAXABQB_W@Z 1005aecf f i libucrt:crtmbox.obj
 0001:00059ee1       ___acrt_show_narrow_message_box 1005aee1 f   libucrt:crtmbox.obj
 0001:00059eec       ___acrt_show_wide_message_box 1005aeec f   libucrt:crtmbox.obj
 0001:00059fa7       ___dcrt_lowio_ensure_console_output_initialized 1005afa7 f   libucrt:initcon.obj
 0001:00059fc6       ___dcrt_terminate_console_output 1005afc6 f   libucrt:initcon.obj
 0001:00059fdd       ___dcrt_write_console      1005afdd f   libucrt:initcon.obj
 0001:0005a032       ?dangerous_get_state_array@?$dual_state_global@H@__crt_state_management@@QAEPAHXZ 1005b032 f i libucrt:txtmode.obj
 0001:0005a035       ___acrt_initialize_fmode   1005b035 f   libucrt:txtmode.obj
 0001:0005a04b       ___p__fmode                1005b04b f   libucrt:txtmode.obj
 0001:0005a051       __d_inttype                1005b051 f   libucrt:powhlp.obj
 0001:0005a0b9       __powhlp                   1005b0b9 f   libucrt:powhlp.obj
 0001:0005a1e4       __87except                 1005b1e4 f   libucrt:87except.obj
 0001:0005a2f4       __frnd                     1005b2f4 f   libucrt:frnd.obj
 0001:0005a308       ___acrt_OutputDebugStringA@4 1005b308 f   libucrt:outputdebugstringa.obj
 0001:0005a377       __chgsign                  1005b377 f   libucrt:ieeemisc.obj
 0001:0005a39f       __chgsignf                 1005b39f f   libucrt:ieeemisc.obj
 0001:0005a3c0       __copysign                 1005b3c0 f   libucrt:ieeemisc.obj
 0001:0005a3e3       __copysignf                1005b3e3 f   libucrt:ieeemisc.obj
 0001:0005a3ff       __finite                   1005b3ff f   libucrt:ieeemisc.obj
 0001:0005a419       __fpclass                  1005b419 f   libucrt:ieeemisc.obj
 0001:0005a4bd       __isnan                    1005b4bd f   libucrt:ieeemisc.obj
 0001:0005a4f4       __logb                     1005b4f4 f   libucrt:ieeemisc.obj
 0001:0005a5c4       __nextafter                1005b5c4 f   libucrt:ieeemisc.obj
 0001:0005a5e3       __scalb                    1005b5e3 f   libucrt:ieeemisc.obj
 0001:0005a8a0       __mbstowcs_l               1005b8a0 f   libucrt:mbstowcs.obj
 0001:0005a8d8       __mbstowcs_s_l             1005b8d8 f   libucrt:mbstowcs.obj
 0001:0005a916       _mbstowcs                  1005b916 f   libucrt:mbstowcs.obj
 0001:0005a94d       _mbstowcs_s                1005b94d f   libucrt:mbstowcs.obj
 0001:0005a98a       _ldexp                     1005b98a f   libucrt:ldexp.obj
 0001:0005ab7d       _nextafter                 1005bb7d f   libucrt:nextafter.obj
 0001:0005ab9c       _nexttoward                1005bb9c f   libucrt:nexttoward.obj
 0001:0005ad87       __d_int                    1005bd87 f   libucrt:_test.obj
 0001:0005ae8d       __dtest                    1005be8d f   libucrt:_test.obj
 0001:0005aef1       __fd_int                   1005bef1 f   libucrt:_test.obj
 0001:0005afbe       __fdtest                   1005bfbe f   libucrt:_test.obj
 0001:0005b00c       __fperrraise               1005c00c f   libucrt:_test.obj
 0001:0005b02d       __ld_int                   1005c02d f   libucrt:_test.obj
 0001:0005b038       __ldtest                   1005c038 f   libucrt:_test.obj
 0001:0005b043       __dclass                   1005c043 f   libucrt:nan.obj
 0001:0005b054       __dpcomp                   1005c054 f   libucrt:nan.obj
 0001:0005b0aa       __dsign                    1005c0aa f   libucrt:nan.obj
 0001:0005b0ba       _nan                       1005c0ba f   libucrt:nan.obj
 0001:0005b0c1       __ldclass                  1005c0c1 f   libucrt:nanl.obj
 0001:0005b0d2       __ldpcomp                  1005c0d2 f   libucrt:nanl.obj
 0001:0005b128       __ldsign                   1005c128 f   libucrt:nanl.obj
 0001:0005b138       _nanl                      1005c138 f   libucrt:nanl.obj
 0001:0005b13f       ??_4@YAAAW4__acrt_fenv_abstract_status@@AAW40@W40@@Z 1005c13f f i libucrt:fegetexceptflag.obj
 0001:0005b14e       _fegetexceptflag           1005c14e f   libucrt:fegetexceptflag.obj
 0001:0005b17f       ??S@YA?AW4__acrt_fenv_abstract_status@@W40@@Z 1005c17f f i libucrt:fesetexceptflag.obj
 0001:0005b18b       _fesetexceptflag           1005c18b f   libucrt:fesetexceptflag.obj
 0001:0005b1ed       _fetestexcept              1005c1ed f   libucrt:fetestexcept.obj
 0001:0005b20d       _IsDebuggerPresent@0       1005c20d f   kernel32:KERNEL32.dll
 0001:0005b213       _SetEvent@4                1005c213 f   kernel32:KERNEL32.dll
 0001:0005b219       _ResetEvent@4              1005c219 f   kernel32:KERNEL32.dll
 0001:0005b21f       _WaitForSingleObjectEx@12  1005c21f f   kernel32:KERNEL32.dll
 0001:0005b225       _CreateEventW@16           1005c225 f   kernel32:KERNEL32.dll
 0001:0005b22b       _UnhandledExceptionFilter@4 1005c22b f   kernel32:KERNEL32.dll
 0001:0005b231       _IsProcessorFeaturePresent@4 1005c231 f   kernel32:KERNEL32.dll
 0001:0005b237       _GetStartupInfoW@4         1005c237 f   kernel32:KERNEL32.dll
 0001:0005b23d       _QueryPerformanceCounter@4 1005c23d f   kernel32:KERNEL32.dll
 0001:0005b243       _GetSystemTimeAsFileTime@4 1005c243 f   kernel32:KERNEL32.dll
 0001:0005b249       _InitializeSListHead@4     1005c249 f   kernel32:KERNEL32.dll
 0001:0005b24f       _RtlUnwind@16              1005c24f f   kernel32:KERNEL32.dll
 0001:0005b255       _InterlockedPushEntrySList@8 1005c255 f   kernel32:KERNEL32.dll
 0001:0005b25b       _InterlockedFlushSList@4   1005c25b f   kernel32:KERNEL32.dll
 0001:0005b261       _EncodePointer@4           1005c261 f   kernel32:KERNEL32.dll
 0001:0005b267       _TlsAlloc@0                1005c267 f   kernel32:KERNEL32.dll
 0001:0005b26d       _TlsGetValue@4             1005c26d f   kernel32:KERNEL32.dll
 0001:0005b273       _TlsSetValue@8             1005c273 f   kernel32:KERNEL32.dll
 0001:0005b279       _TlsFree@4                 1005c279 f   kernel32:KERNEL32.dll
 0001:0005b27f       _ExitProcess@4             1005c27f f   kernel32:KERNEL32.dll
 0001:0005b285       _GetModuleHandleExW@12     1005c285 f   kernel32:KERNEL32.dll
 0001:0005b28b       _CreateThread@24           1005c28b f   kernel32:KERNEL32.dll
 0001:0005b291       _ExitThread@4              1005c291 f   kernel32:KERNEL32.dll
 0001:0005b297       _FreeLibraryAndExitThread@8 1005c297 f   kernel32:KERNEL32.dll
 0001:0005b29d       _SetConsoleCtrlHandler@8   1005c29d f   kernel32:KERNEL32.dll
 0001:0005b2a3       _GetCurrentThread@0        1005c2a3 f   kernel32:KERNEL32.dll
 0001:0005b2a9       _GetStdHandle@4            1005c2a9 f   kernel32:KERNEL32.dll
 0001:0005b2af       _GetFileType@4             1005c2af f   kernel32:KERNEL32.dll
 0001:0005b2b5       _GetDateFormatW@24         1005c2b5 f   kernel32:KERNEL32.dll
 0001:0005b2bb       _GetTimeFormatW@24         1005c2bb f   kernel32:KERNEL32.dll
 0001:0005b2c1       _CompareStringW@24         1005c2c1 f   kernel32:KERNEL32.dll
 0001:0005b2c7       _LCMapStringW@24           1005c2c7 f   kernel32:KERNEL32.dll
 0001:0005b2cd       _GetLocaleInfoW@16         1005c2cd f   kernel32:KERNEL32.dll
 0001:0005b2d3       _IsValidLocale@8           1005c2d3 f   kernel32:KERNEL32.dll
 0001:0005b2d9       _GetUserDefaultLCID@0      1005c2d9 f   kernel32:KERNEL32.dll
 0001:0005b2df       _EnumSystemLocalesW@8      1005c2df f   kernel32:KERNEL32.dll
 0001:0005b2e5       _GetTimeZoneInformation@4  1005c2e5 f   kernel32:KERNEL32.dll
 0001:0005b2eb       _FindClose@4               1005c2eb f   kernel32:KERNEL32.dll
 0001:0005b2f1       _FindFirstFileExW@24       1005c2f1 f   kernel32:KERNEL32.dll
 0001:0005b2f7       _FindNextFileW@8           1005c2f7 f   kernel32:KERNEL32.dll
 0001:0005b2fd       _IsValidCodePage@4         1005c2fd f   kernel32:KERNEL32.dll
 0001:0005b303       _GetACP@0                  1005c303 f   kernel32:KERNEL32.dll
 0001:0005b309       _GetOEMCP@0                1005c309 f   kernel32:KERNEL32.dll
 0001:0005b30f       _GetCPInfo@8               1005c30f f   kernel32:KERNEL32.dll
 0001:0005b315       _GetCommandLineA@0         1005c315 f   kernel32:KERNEL32.dll
 0001:0005b31b       _GetCommandLineW@0         1005c31b f   kernel32:KERNEL32.dll
 0001:0005b321       _GetEnvironmentStringsW@0  1005c321 f   kernel32:KERNEL32.dll
 0001:0005b327       _FreeEnvironmentStringsW@4 1005c327 f   kernel32:KERNEL32.dll
 0001:0005b32d       _SetEnvironmentVariableW@8 1005c32d f   kernel32:KERNEL32.dll
 0001:0005b333       _GetStringTypeW@16         1005c333 f   kernel32:KERNEL32.dll
 0001:0005b339       _GetFileSizeEx@8           1005c339 f   kernel32:KERNEL32.dll
 0001:0005b33f       _SetFilePointerEx@20       1005c33f f   kernel32:KERNEL32.dll
 0001:0005b345       _SetStdHandle@8            1005c345 f   kernel32:KERNEL32.dll
 0001:0005b34b       _FlushFileBuffers@4        1005c34b f   kernel32:KERNEL32.dll
 0001:0005b351       _WriteFile@20              1005c351 f   kernel32:KERNEL32.dll
 0001:0005b357       _GetConsoleOutputCP@0      1005c357 f   kernel32:KERNEL32.dll
 0001:0005b35d       _GetConsoleMode@8          1005c35d f   kernel32:KERNEL32.dll
 0001:0005b363       _ReadFile@20               1005c363 f   kernel32:KERNEL32.dll
 0001:0005b369       _ReadConsoleW@20           1005c369 f   kernel32:KERNEL32.dll
 0001:0005b36f       _SetEndOfFile@4            1005c36f f   kernel32:KERNEL32.dll
 0001:0005b375       _WriteConsoleW@20          1005c375 f   kernel32:KERNEL32.dll
 0001:0005b380       __FindPESection            1005c380 f   LIBCMT:pesect.obj
 0001:0005b3d0       __IsNonwritableInCurrentImage 1005c3d0 f   LIBCMT:pesect.obj
 0001:0005b490       __ValidateImageBase        1005c490 f   LIBCMT:pesect.obj
 0001:0005b4d0       __aulldvrm                 1005c4d0 f   LIBCMT:ulldvrm.obj
 0001:0005b570       __aulldiv                  1005c570 f   LIBCMT:ulldiv.obj
 0001:0005b5e0       __aullrem                  1005c5e0 f   LIBCMT:ullrem.obj
 0001:0005b660       __alloca_probe_16          1005c660 f   LIBCMT:alloca16.obj
 0001:0005b676       __alloca_probe_8           1005c676     LIBCMT:alloca16.obj
 0001:0005b68c       __except_handler4_noexcept 1005c68c f   LIBCMT:chandler4_noexcept.obj
 0001:0005b6e0       __allrem                   1005c6e0 f   LIBCMT:llrem.obj
 0001:0005b7a0       __ftol2_sse_excpt          1005c7a0 f   LIBCMT:ftol2.obj
 0001:0005b7b0       __ftol2_sse                1005c7b0 f   LIBCMT:ftol2.obj
 0001:0005b7c0       __ftoi2                    1005c7c0 f   LIBCMT:ftol2.obj
 0001:0005b840       __ftoui2                   1005c840 f   LIBCMT:ftol2.obj
 0001:0005b8f0       __ftol2                    1005c8f0 f   LIBCMT:ftol2.obj
 0001:0005b9a0       __ftoul2                   1005c9a0 f   LIBCMT:ftol2.obj
 0001:0005ba59       __initialize_default_precision 1005ca59 f   LIBCMT:default_precision.obj
 0001:0005ba80       _strrchr                   1005ca80 f   libvcruntime:strrchr.obj
 0001:0005bbc0       _strchr                    1005cbc0 f   libvcruntime:strchr.obj
 0001:0005bc2e       ___from_strstr_to_strchr   1005cc2e     libvcruntime:strchr.obj
 0001:0005bceb       _wcschr                    1005cceb f   libvcruntime:wcschr.obj
 0001:0005bdb2       __filter_x86_sse2_floating_point_exception 1005cdb2 f   LIBCMT:x86_exception_filter.obj
 0001:0005bdb2       __filter_x86_sse2_floating_point_exception_default 1005cdb2 f   LIBCMT:x86_exception_filter.obj
 0001:0005ccd5       ??__FstrHeap@?1??GetInstance@CAtlStringMgr@ATL@@SAPAUIAtlStringMgr@2@XZ@YAXXZ 1005dcd5 f i GenericHTTPClient.obj
 0001:0005ccdf       ??__FstrMgr@?1??GetInstance@CAtlStringMgr@ATL@@SAPAUIAtlStringMgr@2@XZ@YAXXZ 1005dcdf f i GenericHTTPClient.obj
 0002:00000000       __imp__RegQueryInfoKeyW@48 1005e000     advapi32:ADVAPI32.dll
 0002:00000004       __imp__RegEnumKeyExW@32    1005e004     advapi32:ADVAPI32.dll
 0002:00000008       __imp__RegDeleteValueW@8   1005e008     advapi32:ADVAPI32.dll
 0002:0000000c       __imp__RegDeleteKeyW@8     1005e00c     advapi32:ADVAPI32.dll
 0002:00000010       __imp__RegCreateKeyExW@36  1005e010     advapi32:ADVAPI32.dll
 0002:00000014       __imp__RegSetValueExW@24   1005e014     advapi32:ADVAPI32.dll
 0002:00000018       __imp__RegOpenKeyW@12      1005e018     advapi32:ADVAPI32.dll
 0002:0000001c       __imp__RegCreateKeyW@12    1005e01c     advapi32:ADVAPI32.dll
 0002:00000020       __imp__RegQueryValueExW@24 1005e020     advapi32:ADVAPI32.dll
 0002:00000024       __imp__RegOpenKeyExW@20    1005e024     advapi32:ADVAPI32.dll
 0002:00000028       __imp__RegCloseKey@4       1005e028     advapi32:ADVAPI32.dll
 0002:0000002c       \177ADVAPI32_NULL_THUNK_DATA 1005e02c     advapi32:ADVAPI32.dll
 0002:00000030       __imp__GetOEMCP@0          1005e030     kernel32:KERNEL32.dll
 0002:00000034       __imp__GetACP@0            1005e034     kernel32:KERNEL32.dll
 0002:00000038       __imp__IsValidCodePage@4   1005e038     kernel32:KERNEL32.dll
 0002:0000003c       __imp__FindNextFileW@8     1005e03c     kernel32:KERNEL32.dll
 0002:00000040       __imp__FindFirstFileExW@24 1005e040     kernel32:KERNEL32.dll
 0002:00000044       __imp__CreateFileW@28      1005e044     kernel32:KERNEL32.dll
 0002:00000048       __imp__GetFileSize@8       1005e048     kernel32:KERNEL32.dll
