 BugSplat64

 Timestamp is 63595a06 (Wed Oct 26 16:02:14 2022)

 Preferred load address is 0000000180000000

 Start         Length     Name                   Class
 0001:00000000 00000290H .text$di                CODE
 0001:00000290 00073780H .text$mn                CODE
 0001:00073a10 00000040H .text$mn$00             CODE
 0001:00073a50 00001620H .text$x                 CODE
 0001:00075070 000001c4H .text$yd                CODE
 0002:00000000 000005a0H .idata$5                DATA
 0002:000005a0 00000028H .00cfg                  DATA
 0002:000005c8 00000008H .CRT$XCA                DATA
 0002:000005d0 00000008H .CRT$XCL                DATA
 0002:000005d8 00000050H .CRT$XCU                DATA
 0002:00000628 00000008H .CRT$XCZ                DATA
 0002:00000630 00000008H .CRT$XIA                DATA
 0002:00000638 00000030H .CRT$XIC                DATA
 0002:00000668 00000008H .CRT$XIZ                DATA
 0002:00000670 00000008H .CRT$XLA                DATA
 0002:00000678 00000008H .CRT$XLZ                DATA
 0002:00000680 00000008H .CRT$XPA                DATA
 0002:00000688 00000010H .CRT$XPX                DATA
 0002:00000698 00000008H .CRT$XPXA               DATA
 0002:000006a0 00000008H .CRT$XPZ                DATA
 0002:000006a8 00000008H .CRT$XTA                DATA
 0002:000006b0 00000010H .CRT$XTZ                DATA
 0002:000006b8 00000000H .gehcont$y              DATA
 0002:000006b8 00000000H .gfids$y                DATA
 0002:000006c0 0000e140H .rdata                  DATA
 0002:0000e800 00000008H .rdata$CastGuardVftablesA DATA
 0002:0000e808 00000008H .rdata$CastGuardVftablesC DATA
 0002:0000e810 00000028H .rdata$T                DATA
 0002:0000e838 00001024H .rdata$r                DATA
 0002:0000f85c 000006e8H .rdata$voltmd           DATA
 0002:0000ff44 00000494H .rdata$zzzdbg           DATA
 0002:000103d8 00000008H .rtc$IAA                DATA
 0002:000103e0 00000008H .rtc$IZZ                DATA
 0002:000103e8 00000008H .rtc$TAA                DATA
 0002:000103f0 00000008H .rtc$TZZ                DATA
 0002:000103f8 00000008H .tls                    DATA
 0002:00010400 00000014H .tls$                   DATA
 0002:00010414 00000004H .tls$ZZZ                DATA
 0002:00010418 00008660H .xdata                  DATA
 0002:00018a78 000004f0H .xdata$x                DATA
 0002:00018f68 00000008H ATL$__a                 DATA
 0002:00018f70 00000010H ATL$__z                 DATA
 0002:00018f80 000009ccH .edata                  DATA
 0002:0001994c 000000a0H .idata$2                DATA
 0002:000199ec 00000014H .idata$3                DATA
 0002:00019a00 000005a0H .idata$4                DATA
 0002:00019fa0 00000c84H .idata$6                DATA
 0003:00000000 00000c48H .data                   DATA
 0003:00000c48 00000240H .data$r                 DATA
 0003:00000e88 00000358H .data$rs                DATA
 0003:000011e0 0000528cH .bss                    DATA
 0004:00000000 0000612cH .pdata                  DATA
 0005:00000000 000000f4H _RDATA                  DATA
 0006:00000000 00000120H .rsrc$01                DATA
 0006:00000120 00000b30H .rsrc$02                DATA

  Address         Publics by Value              Rva+Base               Lib:Object

 0000:00000000       __arm64x_extra_rfe_table_size 0000000000000000     <absolute>
 0000:00000000       __hybrid_code_map_count    0000000000000000     <absolute>
 0000:00000000       __arm64x_native_entrypoint 0000000000000000     <absolute>
 0000:00000000       __guard_iat_table          0000000000000000     <absolute>
 0000:00000000       __guard_fids_count         0000000000000000     <absolute>
 0000:00000000       __hybrid_auxiliary_iat     0000000000000000     <absolute>
 0000:00000000       ___safe_se_handler_table   0000000000000000     <absolute>
 0000:00000000       __guard_eh_cont_count      0000000000000000     <absolute>
 0000:00000000       __guard_check_icall_a64n_fptr 0000000000000000     <absolute>
 0000:00000000       __x64_code_ranges_to_entry_points 0000000000000000     <absolute>
 0000:00000000       ___safe_se_handler_count   0000000000000000     <absolute>
 0000:00000000       __x64_code_ranges_to_entry_points_count 0000000000000000     <absolute>
 0000:00000000       __arm64x_redirection_metadata_count 0000000000000000     <absolute>
 0000:00000000       __dynamic_value_reloc_table 0000000000000000     <absolute>
 0000:00000000       __arm64x_extra_rfe_table   0000000000000000     <absolute>
 0000:00000000       __arm64x_redirection_metadata 0000000000000000     <absolute>
 0000:00000000       __enclave_config           0000000000000000     <absolute>
 0000:00000000       __AbsoluteZero             0000000000000000     <absolute>
 0000:00000000       __guard_iat_count          0000000000000000     <absolute>
 0000:00000000       __guard_eh_cont_table      0000000000000000     <absolute>
 0000:00000000       __hybrid_auxiliary_iat_copy 0000000000000000     <absolute>
 0000:00000000       __guard_longjmp_count      0000000000000000     <absolute>
 0000:00000000       __guard_longjmp_table      0000000000000000     <absolute>
 0000:00000000       __guard_fids_table         0000000000000000     <absolute>
 0000:00000000       __hybrid_code_map          0000000000000000     <absolute>
 0000:00000100       __guard_flags              0000000000000100     <absolute>
 0000:00000000       __ImageBase                0000000180000000     <linker-defined>
 0001:00000290       ??$_Allocate_manually_vector_aligned@U_Default_allocate_traits@std@@@std@@YAPEAX_K@Z 0000000180001290 f i GenericHTTPClient.obj
 0001:000002cc       ??$_Copy_memmove@PEAU__GENERIC_HTTP_ARGUMENT@GenericHTTPClient@@PEAU12@@std@@YAPEAU__GENERIC_HTTP_ARGUMENT@GenericHTTPClient@@PEAU12@00@Z 00000001800012cc f i GenericHTTPClient.obj
 0001:000002fc       ??$_Emplace_reallocate@AEBU__GENERIC_HTTP_ARGUMENT@GenericHTTPClient@@@?$vector@U__GENERIC_HTTP_ARGUMENT@GenericHTTPClient@@V?$allocator@U__GENERIC_HTTP_ARGUMENT@GenericHTTPClient@@@std@@@std@@QEAAPEAU__GENERIC_HTTP_ARGUMENT@GenericHTTPClient@@QEAU23@AEBU23@@Z 00000001800012fc f i GenericHTTPClient.obj
 0001:00000484       ??0?$CStringT@_WV?$StrTraitATL@_WV?$ChTraitsCRT@_W@ATL@@@ATL@@@ATL@@QEAA@PEBD@Z 0000000180001484 f i GenericHTTPClient.obj
 0001:00000508       ??0?$CStringT@_WV?$StrTraitATL@_WV?$ChTraitsCRT@_W@ATL@@@ATL@@@ATL@@QEAA@PEB_W@Z 0000000180001508 f i GenericHTTPClient.obj
 0001:0000059c       ??0CAtlException@ATL@@QEAA@J@Z 000000018000159c f i GenericHTTPClient.obj
 0001:000005a4       ??0GenericHTTPClient@@QEAA@XZ 00000001800015a4 f   GenericHTTPClient.obj
 0001:000005d8       ??0bad_alloc@std@@QEAA@AEBV01@@Z 00000001800015d8 f i GenericHTTPClient.obj
 0001:00000614       ??0bad_array_new_length@std@@QEAA@AEBV01@@Z 0000000180001614 f i GenericHTTPClient.obj
 0001:00000650       ??0bad_array_new_length@std@@QEAA@XZ 0000000180001650 f i GenericHTTPClient.obj
 0001:00000670       ??0exception@std@@QEAA@AEBV01@@Z 0000000180001670 f i GenericHTTPClient.obj
 0001:000006a4       ??1?$CSimpleStringT@_W$0A@@ATL@@QEAA@XZ 00000001800016a4 f i GenericHTTPClient.obj
 0001:000006cc       ??1?$CStringT@_WV?$StrTraitATL@_WV?$ChTraitsCRT@_W@ATL@@@ATL@@@ATL@@QEAA@XZ 00000001800016cc f i GenericHTTPClient.obj
 0001:000006f4       ??1CAtlStringMgr@ATL@@UEAA@XZ 00000001800016f4 f i GenericHTTPClient.obj
 0001:00000708       ??1CWin32Heap@ATL@@UEAA@XZ 0000000180001708 f i GenericHTTPClient.obj
 0001:00000730       ??1GenericHTTPClient@@UEAA@XZ 0000000180001730 f   GenericHTTPClient.obj
 0001:0000075c       ??1bad_array_new_length@std@@UEAA@XZ 000000018000175c f i GenericHTTPClient.obj
 0001:00000770       ??1exception@std@@UEAA@XZ  0000000180001770 f i GenericHTTPClient.obj
 0001:00000784       ??4?$CStringT@_WV?$StrTraitATL@_WV?$ChTraitsCRT@_W@ATL@@@ATL@@@ATL@@QEAAAEAV01@PEBD@Z 0000000180001784 f i GenericHTTPClient.obj
 0001:00000844       ??_GCAtlStringMgr@ATL@@UEAAPEAXI@Z 0000000180001844 f i GenericHTTPClient.obj
 0001:00000844       ??_ECAtlStringMgr@ATL@@UEAAPEAXI@Z 0000000180001844 f i GenericHTTPClient.obj
 0001:00000878       ??_GCWin32Heap@ATL@@UEAAPEAXI@Z 0000000180001878 f i GenericHTTPClient.obj
 0001:00000878       ??_ECWin32Heap@ATL@@UEAAPEAXI@Z 0000000180001878 f i GenericHTTPClient.obj
 0001:000008c8       ??_GGenericHTTPClient@@UEAAPEAXI@Z 00000001800018c8 f i GenericHTTPClient.obj
 0001:000008c8       ??_EGenericHTTPClient@@UEAAPEAXI@Z 00000001800018c8 f i GenericHTTPClient.obj
 0001:000008fc       ??_Ebad_alloc@std@@UEAAPEAXI@Z 00000001800018fc f i GenericHTTPClient.obj
 0001:000008fc       ??_Gbad_alloc@std@@UEAAPEAXI@Z 00000001800018fc f i GenericHTTPClient.obj
 0001:00000940       ??_Gbad_array_new_length@std@@UEAAPEAXI@Z 0000000180001940 f i GenericHTTPClient.obj
 0001:00000940       ??_Ebad_array_new_length@std@@UEAAPEAXI@Z 0000000180001940 f i GenericHTTPClient.obj
 0001:00000984       ??_Gexception@std@@UEAAPEAXI@Z 0000000180001984 f i GenericHTTPClient.obj
 0001:00000984       ??_Eexception@std@@UEAAPEAXI@Z 0000000180001984 f i GenericHTTPClient.obj
 0001:000009c8       ?AddPutPostArguments@GenericHTTPClient@@QEAAXPEB_W0H@Z 00000001800019c8 f   GenericHTTPClient.obj
 0001:00000a8c       ?AddPutPostArguments@GenericHTTPClient@@QEAAXPEB_WK@Z 0000000180001a8c f   GenericHTTPClient.obj
 0001:00000b54       ?Allocate@CAtlStringMgr@ATL@@UEAAPEAUCStringData@2@HH@Z 0000000180001b54 f i GenericHTTPClient.obj
 0001:00000bd8       ?Allocate@CWin32Heap@ATL@@UEAAPEAX_K@Z 0000000180001bd8 f i GenericHTTPClient.obj
 0001:00000be8       ?AtlFindStringResourceInstance@ATL@@YAPEAUHINSTANCE__@@IG@Z 0000000180001be8 f i GenericHTTPClient.obj
 0001:00000c9c       ?AtlThrowImpl@ATL@@YAXJ@Z  0000000180001c9c f i GenericHTTPClient.obj
 0001:00000cc0       ?Clone@CAtlStringMgr@ATL@@UEAAPEAUIAtlStringMgr@2@XZ 0000000180001cc0 f i GenericHTTPClient.obj
 0001:00000cc4       ?CloneData@?$CSimpleStringT@_W$0A@@ATL@@CAPEAUCStringData@2@PEAU32@@Z 0000000180001cc4 f i GenericHTTPClient.obj
 0001:00000d5c       ?Close@GenericHTTPClient@@QEAAHXZ 0000000180001d5c f   GenericHTTPClient.obj
 0001:00000da8       ?Connect@GenericHTTPClient@@QEAAHV?$CStringT@_WV?$StrTraitATL@_WV?$ChTraitsCRT@_W@ATL@@@ATL@@@ATL@@0G00@Z 0000000180001da8 f   GenericHTTPClient.obj
 0001:00001188       ?ConvertToBaseType@?$ChTraitsCRT@_W@ATL@@SAXPEA_WHPEB_WH@Z 0000000180002188 f i GenericHTTPClient.obj
 0001:00001218       ?CopyWideToMultibyte@GenericHTTPClient@@QEAAHV?$CStringT@_WV?$StrTraitATL@_WV?$ChTraitsCRT@_W@ATL@@@ATL@@@ATL@@PEADKK@Z 0000000180002218 f   GenericHTTPClient.obj
 0001:00001310       ?DebuggerConsoleMessage@GenericHTTPClient@@QEAAXXZ 0000000180002310 f   GenericHTTPClient.obj
 0001:0000132c       ?Empty@?$CSimpleStringT@_W$0A@@ATL@@QEAAXXZ 000000018000232c f i GenericHTTPClient.obj
 0001:0000139c       ?EncodeSpecialCharacters@GenericHTTPClient@@QEAA?AV?$CStringT@_WV?$StrTraitATL@_WV?$ChTraitsCRT@_W@ATL@@@ATL@@@ATL@@V23@@Z 000000018000239c f   GenericHTTPClient.obj
 0001:00001430       ?EnsureLinked@CAtlStringMgrStaticInitializer@ATLImplementationDetails@ATL@@QEAAPEAXXZ 0000000180002430 f i GenericHTTPClient.obj
 0001:00001434       ?Fork@?$CSimpleStringT@_W$0A@@ATL@@AEAAXH@Z 0000000180002434 f i GenericHTTPClient.obj
 0001:00001510       ?Free@CAtlStringMgr@ATL@@UEAAXPEAUCStringData@2@@Z 0000000180002510 f i GenericHTTPClient.obj
 0001:0000151c       ?Free@CWin32Heap@ATL@@UEAAXPEAX@Z 000000018000251c f i GenericHTTPClient.obj
 0001:0000153c       ?GetContentType@GenericHTTPClient@@QEAAPEB_WPEB_W@Z 000000018000253c f   GenericHTTPClient.obj
 0001:00001648       ?GetInstance@CAtlStringMgr@ATL@@SAPEAUIAtlStringMgr@2@XZ 0000000180002648 f i GenericHTTPClient.obj
 0001:00001768       ?GetNilString@CAtlStringMgr@ATL@@UEAAPEAUCStringData@2@XZ 0000000180002768 f i GenericHTTPClient.obj
 0001:00001774       ?GetPostArguments@GenericHTTPClient@@QEAAKPEADK@Z 0000000180002774 f   GenericHTTPClient.obj
 0001:00001a18       ?GetSize@CWin32Heap@ATL@@UEAA_KPEAX@Z 0000000180002a18 f i GenericHTTPClient.obj
 0001:00001a28       ?InitilizePutPostArguments@GenericHTTPClient@@QEAAXXZ 0000000180002a28 f   GenericHTTPClient.obj
 0001:00001a34       ?LoadStringW@?$CStringT@_WV?$StrTraitATL@_WV?$ChTraitsCRT@_W@ATL@@@ATL@@@ATL@@QEAAHPEAUHINSTANCE__@@I@Z 0000000180002a34 f i GenericHTTPClient.obj
 0001:00001b10       ?ParseURLW@GenericHTTPClient@@QEAAXPEB_WPEA_WH1H@Z 0000000180002b10 f   GenericHTTPClient.obj
 0001:00001c68       ?PrepareWrite2@?$CSimpleStringT@_W$0A@@ATL@@AEAAXH@Z 0000000180002c68 f i GenericHTTPClient.obj
 0001:00001cc8       ?QueryHTTPResponse@GenericHTTPClient@@QEAAPEB_WXZ 0000000180002cc8 f   GenericHTTPClient.obj
 0001:00001cd0       ?QueryHTTPResponseHeader@GenericHTTPClient@@QEAAPEB_WXZ 0000000180002cd0 f   GenericHTTPClient.obj
 0001:00001cd8       ?Reallocate@?$CSimpleStringT@_W$0A@@ATL@@AEAAXH@Z 0000000180002cd8 f i GenericHTTPClient.obj
 0001:00001d20       ?Reallocate@CAtlStringMgr@ATL@@UEAAPEAUCStringData@2@PEAU32@HH@Z 0000000180002d20 f i GenericHTTPClient.obj
 0001:00001d88       ?Reallocate@CWin32Heap@ATL@@UEAAPEAXPEAX_K@Z 0000000180002d88 f i GenericHTTPClient.obj
 0001:00001dc8       ?Reconnect@GenericHTTPClient@@QEAAHXZ 0000000180002dc8 f   GenericHTTPClient.obj
 0001:00001ea0       ?Replace@?$CStringT@_WV?$StrTraitATL@_WV?$ChTraitsCRT@_W@ATL@@@ATL@@@ATL@@QEAAHPEB_W0@Z 0000000180002ea0 f i GenericHTTPClient.obj
 0001:00002144       ?Request@GenericHTTPClient@@QEAAHPEB_WH0@Z 0000000180003144 f   GenericHTTPClient.obj
 0001:000022e0       ?RequestGet@GenericHTTPClient@@QEAAHPEB_W@Z 00000001800032e0 f   GenericHTTPClient.obj
 0001:000023b4       ?RequestOfURI@GenericHTTPClient@@QEAAHPEB_WH@Z 00000001800033b4 f   GenericHTTPClient.obj
 0001:000023f4       ?RequestPost@GenericHTTPClient@@QEAAHPEB_W@Z 00000001800033f4 f   GenericHTTPClient.obj
 0001:00002528       ?RequestPut@GenericHTTPClient@@QEAAHPEB_W@Z 0000000180003528 f   GenericHTTPClient.obj
 0001:000025b0       ?Response@GenericHTTPClient@@QEAAHPEA_WK0KAEAK@Z 00000001800035b0 f   GenericHTTPClient.obj
 0001:00002760       ?ResponseOfBytes@GenericHTTPClient@@QEAAKPEAEK@Z 0000000180003760 f   GenericHTTPClient.obj
 0001:000027d0       ?SendPutFileData@GenericHTTPClient@@QEAAKXZ 00000001800037d0 f   GenericHTTPClient.obj
 0001:000028e4       ?SetString@?$CSimpleStringT@_W$0A@@ATL@@QEAAXPEB_WH@Z 00000001800038e4 f i GenericHTTPClient.obj
 0001:00002a10       ?ThrowMemoryException@?$CSimpleStringT@_W$0A@@ATL@@KAXXZ 0000000180003a10 f i GenericHTTPClient.obj
 0001:00002a20       ?_AtlGetStringResourceImage@ATL@@YAPEBUATLSTRINGRESOURCEIMAGE@1@PEAUHINSTANCE__@@PEAUHRSRC__@@I@Z 0000000180003a20 f i GenericHTTPClient.obj
 0001:00002abc       ?_Change_array@?$vector@U__GENERIC_HTTP_ARGUMENT@GenericHTTPClient@@V?$allocator@U__GENERIC_HTTP_ARGUMENT@GenericHTTPClient@@@std@@@std@@AEAAXQEAU__GENERIC_HTTP_ARGUMENT@GenericHTTPClient@@_K1@Z 0000000180003abc f i GenericHTTPClient.obj
 0001:00002b70       ?_Throw_bad_array_new_length@std@@YAXXZ 0000000180003b70 f i GenericHTTPClient.obj
 0001:00002b90       ?_Tidy@?$vector@U__GENERIC_HTTP_ARGUMENT@GenericHTTPClient@@V?$allocator@U__GENERIC_HTTP_ARGUMENT@GenericHTTPClient@@@std@@@std@@AEAAXXZ 0000000180003b90 f i GenericHTTPClient.obj
 0001:00002c0c       ?_Xlength@?$vector@U__GENERIC_HTTP_ARGUMENT@GenericHTTPClient@@V?$allocator@U__GENERIC_HTTP_ARGUMENT@GenericHTTPClient@@@std@@@std@@CAXXZ 0000000180003c0c f i GenericHTTPClient.obj
 0001:00002c20       ?deallocate@?$allocator@U__GENERIC_HTTP_ARGUMENT@GenericHTTPClient@@@std@@QEAAXQEAU__GENERIC_HTTP_ARGUMENT@GenericHTTPClient@@_K@Z 0000000180003c20 f i GenericHTTPClient.obj
 0001:00002c64       ?what@exception@std@@UEBAPEBDXZ 0000000180003c64 f i GenericHTTPClient.obj
 0001:00002c78       __local_stdio_printf_options 0000000180003c78 f i GenericHTTPClient.obj
 0001:00002c80       swprintf_s                 0000000180003c80 f i GenericHTTPClient.obj
 0001:00002cd4       ??0?$CSimpleStringT@_W$0A@@ATL@@QEAA@PEB_WHPEAUIAtlStringMgr@1@@Z 0000000180003cd4 f i BugSplatImp.obj
 0001:00002dac       ??0BugSplatImp@@QEAA@XZ    0000000180003dac f   BugSplatImp.obj
 0001:00002dd4       ??0MiniDmpSender@@QEAA@AEBV0@@Z 0000000180003dd4 f i BugSplatImp.obj
 0001:00002dec       ??4?$CSimpleStringT@_W$0A@@ATL@@QEAAAEAV01@AEBV01@@Z 0000000180003dec f i BugSplatImp.obj
 0001:00002e6c       ??4BugSplatImp@@QEAAAEAV0@$$QEAV0@@Z 0000000180003e6c f i BugSplatImp.obj
 0001:00002edc       ??4BugSplatImp@@QEAAAEAV0@AEBV0@@Z 0000000180003edc f i BugSplatImp.obj
 0001:00002efc       ??4MiniDmpSender@@QEAAAEAV0@AEBV0@@Z 0000000180003efc f i BugSplatImp.obj
 0001:00002f08       ??HATL@@YA?AV?$CStringT@_WV?$StrTraitATL@_WV?$ChTraitsCRT@_W@ATL@@@ATL@@@0@AEBV10@0@Z 0000000180003f08 f i BugSplatImp.obj
 0001:00002fa8       ??_EMiniDmpSender@@UEAAPEAXI@Z 0000000180003fa8 f i BugSplatImp.obj
 0001:00003024       ??_GMiniDmpSender@@UEAAPEAXI@Z 0000000180004024 f i BugSplatImp.obj
 0001:00003058       ?Append@?$CSimpleStringT@_W$0A@@ATL@@QEAAXPEB_WH@Z 0000000180004058 f i BugSplatImp.obj
 0001:0000316c       ?AppendChar@?$CSimpleStringT@_W$0A@@ATL@@QEAAX_W@Z 000000018000416c f i BugSplatImp.obj
 0001:000031fc       ?Concatenate@?$CSimpleStringT@_W$0A@@ATL@@KAXAEAV12@PEB_WH1H@Z 00000001800041fc f i BugSplatImp.obj
 0001:00003304       ?CreateMiniDump@BugSplatImp@@QEAAHPEAUHINSTANCE__@@KPEAXKPEAU_EXCEPTION_POINTERS@@W4_BS_MINIDUMP_TYPE@MiniDmpSender@@PEB_WPEA_WK@Z 0000000180004304 f   BugSplatImp.obj
 0001:0000357c       ?GetReducedGuid@BugSplatImp@@QEAAXPEA_WK@Z 000000018000457c f   BugSplatImp.obj
 0001:000037a4       ?Left@?$CStringT@_WV?$StrTraitATL@_WV?$ChTraitsCRT@_W@ATL@@@ATL@@@ATL@@QEBA?AV12@H@Z 00000001800047a4 f i BugSplatImp.obj
 0001:00003824       ?MakeUpper@?$CStringT@_WV?$StrTraitATL@_WV?$ChTraitsCRT@_W@ATL@@@ATL@@@ATL@@QEAAAEAV12@XZ 0000000180004824 f i BugSplatImp.obj
 0001:0000389c       ?Mid@?$CStringT@_WV?$StrTraitATL@_WV?$ChTraitsCRT@_W@ATL@@@ATL@@@ATL@@QEBA?AV12@HH@Z 000000018000489c f i BugSplatImp.obj
 0001:00003978       ?ReduceGuidString@BugSplatImp@@QEAAXPEA_WK@Z 0000000180004978 f   BugSplatImp.obj
 0001:00003cf0       ?ResumeSuspendedThreads@BugSplatImp@@QEAAXXZ 0000000180004cf0 f   BugSplatImp.obj
 0001:00003d54       ?SuspendAllThreadsInProcess@BugSplatImp@@QEAAXPEAX@Z 0000000180004d54 f   BugSplatImp.obj
 0001:00003e28       ?SuspendThreadsInCurrentProcess@BugSplatImp@@QEAAXXZ 0000000180004e28 f   BugSplatImp.obj
 0001:00003f1c       ?UINTtoWchar_t@@YA_WI@Z    0000000180004f1c f   BugSplatImp.obj
 0001:00003f3c       ?Wchar_tToUINT@@YAI_W@Z    0000000180004f3c f   BugSplatImp.obj
 0001:00003f6c       ?combine1_4@@YAIII@Z       0000000180004f6c f   BugSplatImp.obj
 0001:00003f78       ?combine2_3@@YAIII@Z       0000000180004f78 f   BugSplatImp.obj
 0001:00003f88       ?combine3_2@@YAIII@Z       0000000180004f88 f   BugSplatImp.obj
 0001:00003f98       ?combine4_1@@YAIII@Z       0000000180004f98 f   BugSplatImp.obj
 0001:00003fa4       ?combineLast3@@YAII@Z      0000000180004fa4 f   BugSplatImp.obj
 0001:00003fac       ?createReportAndExit@MiniDmpSender@@QEAAXXZ 0000000180004fac f i BugSplatImp.obj
 0001:00003fe0       ??$?8V?$MemoryPoolAllocator@VCrtAllocator@rapidjson@@@rapidjson@@@?$GenericValue@U?$UTF16@_W@rapidjson@@V?$MemoryPoolAllocator@VCrtAllocator@rapidjson@@@2@@rapidjson@@QEBA_NAEBV01@@Z 0000000180004fe0 f i mdump.obj
 0001:00004224       ??$?A$$CB_W@?$GenericValue@U?$UTF16@_W@rapidjson@@V?$MemoryPoolAllocator@VCrtAllocator@rapidjson@@@2@@rapidjson@@QEAAAEAV01@PEB_W@Z 0000000180005224 f i mdump.obj
 0001:000042f0       ??$DoFindMember@V?$MemoryPoolAllocator@VCrtAllocator@rapidjson@@@rapidjson@@@?$GenericValue@U?$UTF16@_W@rapidjson@@V?$MemoryPoolAllocator@VCrtAllocator@rapidjson@@@2@@rapidjson@@AEAA?AV?$GenericMemberIterator@$0A@U?$UTF16@_W@rapidjson@@V?$MemoryPoolAllocator@VCrtAllocator@rapidjson@@@2@@1@AEBV01@@Z 00000001800052f0 f i mdump.obj
 0001:00004370       ??$Encode@V?$StackStream@_W@?$GenericReader@U?$UTF16@_W@rapidjson@@U12@VCrtAllocator@2@@rapidjson@@@?$UTF16@_W@rapidjson@@SAXAEAV?$StackStream@_W@?$GenericReader@U?$UTF16@_W@rapidjson@@U12@VCrtAllocator@2@@1@I@Z 0000000180005370 f i mdump.obj
 0001:00004448       ??$Expand@V?$GenericValue@U?$UTF16@_W@rapidjson@@V?$MemoryPoolAllocator@VCrtAllocator@rapidjson@@@2@@rapidjson@@@?$Stack@VCrtAllocator@rapidjson@@@internal@rapidjson@@AEAAX_K@Z 0000000180005448 f i mdump.obj
 0001:000044f8       ??$Expand@_W@?$Stack@VCrtAllocator@rapidjson@@@internal@rapidjson@@AEAAX_K@Z 00000001800054f8 f i mdump.obj
 0001:000045a8       ??$Parse@$0A@U?$GenericStringStream@U?$UTF16@_W@rapidjson@@@rapidjson@@V?$GenericDocument@U?$UTF16@_W@rapidjson@@V?$MemoryPoolAllocator@VCrtAllocator@rapidjson@@@2@VCrtAllocator@2@@2@@?$GenericReader@U?$UTF16@_W@rapidjson@@U12@VCrtAllocator@2@@rapidjson@@QEAA?AUParseResult@1@AEAU?$GenericStringStream@U?$UTF16@_W@rapidjson@@@1@AEAV?$GenericDocument@U?$UTF16@_W@rapidjson@@V?$MemoryPoolAllocator@VCrtAllocator@rapidjson@@@2@VCrtAllocator@2@@1@@Z 00000001800055a8 f i mdump.obj
 0001:00004994       ??$ParseArray@$0A@U?$GenericStringStream@U?$UTF16@_W@rapidjson@@@rapidjson@@V?$GenericDocument@U?$UTF16@_W@rapidjson@@V?$MemoryPoolAllocator@VCrtAllocator@rapidjson@@@2@VCrtAllocator@2@@2@@?$GenericReader@U?$UTF16@_W@rapidjson@@U12@VCrtAllocator@2@@rapidjson@@AEAAXAEAU?$GenericStringStream@U?$UTF16@_W@rapidjson@@@1@AEAV?$GenericDocument@U?$UTF16@_W@rapidjson@@V?$MemoryPoolAllocator@VCrtAllocator@rapidjson@@@2@VCrtAllocator@2@@1@@Z 0000000180005994 f i mdump.obj
 0001:00004ae8       ??$ParseFalse@$0A@U?$GenericStringStream@U?$UTF16@_W@rapidjson@@@rapidjson@@V?$GenericDocument@U?$UTF16@_W@rapidjson@@V?$MemoryPoolAllocator@VCrtAllocator@rapidjson@@@2@VCrtAllocator@2@@2@@?$GenericReader@U?$UTF16@_W@rapidjson@@U12@VCrtAllocator@2@@rapidjson@@AEAAXAEAU?$GenericStringStream@U?$UTF16@_W@rapidjson@@@1@AEAV?$GenericDocument@U?$UTF16@_W@rapidjson@@V?$MemoryPoolAllocator@VCrtAllocator@rapidjson@@@2@VCrtAllocator@2@@1@@Z 0000000180005ae8 f i mdump.obj
 0001:00004b84       ??$ParseNull@$0A@U?$GenericStringStream@U?$UTF16@_W@rapidjson@@@rapidjson@@V?$GenericDocument@U?$UTF16@_W@rapidjson@@V?$MemoryPoolAllocator@VCrtAllocator@rapidjson@@@2@VCrtAllocator@2@@2@@?$GenericReader@U?$UTF16@_W@rapidjson@@U12@VCrtAllocator@2@@rapidjson@@AEAAXAEAU?$GenericStringStream@U?$UTF16@_W@rapidjson@@@1@AEAV?$GenericDocument@U?$UTF16@_W@rapidjson@@V?$MemoryPoolAllocator@VCrtAllocator@rapidjson@@@2@VCrtAllocator@2@@1@@Z 0000000180005b84 f i mdump.obj
 0001:00004c0c       ??$ParseNumber@$0A@U?$GenericStringStream@U?$UTF16@_W@rapidjson@@@rapidjson@@V?$GenericDocument@U?$UTF16@_W@rapidjson@@V?$MemoryPoolAllocator@VCrtAllocator@rapidjson@@@2@VCrtAllocator@2@@2@@?$GenericReader@U?$UTF16@_W@rapidjson@@U12@VCrtAllocator@2@@rapidjson@@AEAAXAEAU?$GenericStringStream@U?$UTF16@_W@rapidjson@@@1@AEAV?$GenericDocument@U?$UTF16@_W@rapidjson@@V?$MemoryPoolAllocator@VCrtAllocator@rapidjson@@@2@VCrtAllocator@2@@1@@Z 0000000180005c0c f i mdump.obj
 0001:00005388       ??$ParseObject@$0A@U?$GenericStringStream@U?$UTF16@_W@rapidjson@@@rapidjson@@V?$GenericDocument@U?$UTF16@_W@rapidjson@@V?$MemoryPoolAllocator@VCrtAllocator@rapidjson@@@2@VCrtAllocator@2@@2@@?$GenericReader@U?$UTF16@_W@rapidjson@@U12@VCrtAllocator@2@@rapidjson@@AEAAXAEAU?$GenericStringStream@U?$UTF16@_W@rapidjson@@@1@AEAV?$GenericDocument@U?$UTF16@_W@rapidjson@@V?$MemoryPoolAllocator@VCrtAllocator@rapidjson@@@2@VCrtAllocator@2@@1@@Z 0000000180006388 f i mdump.obj
 0001:0000554c       ??$ParseStream@$0A@U?$UTF16@_W@rapidjson@@U?$GenericStringStream@U?$UTF16@_W@rapidjson@@@2@@?$GenericDocument@U?$UTF16@_W@rapidjson@@V?$MemoryPoolAllocator@VCrtAllocator@rapidjson@@@2@VCrtAllocator@2@@rapidjson@@QEAAAEAV01@AEAU?$GenericStringStream@U?$UTF16@_W@rapidjson@@@1@@Z 000000018000654c f i mdump.obj
 0001:00005620       ??$ParseString@$0A@U?$GenericStringStream@U?$UTF16@_W@rapidjson@@@rapidjson@@V?$GenericDocument@U?$UTF16@_W@rapidjson@@V?$MemoryPoolAllocator@VCrtAllocator@rapidjson@@@2@VCrtAllocator@2@@2@@?$GenericReader@U?$UTF16@_W@rapidjson@@U12@VCrtAllocator@2@@rapidjson@@AEAAXAEAU?$GenericStringStream@U?$UTF16@_W@rapidjson@@@1@AEAV?$GenericDocument@U?$UTF16@_W@rapidjson@@V?$MemoryPoolAllocator@VCrtAllocator@rapidjson@@@2@VCrtAllocator@2@@1@_N@Z 0000000180006620 f i mdump.obj
 0001:00005974       ??$ParseTrue@$0A@U?$GenericStringStream@U?$UTF16@_W@rapidjson@@@rapidjson@@V?$GenericDocument@U?$UTF16@_W@rapidjson@@V?$MemoryPoolAllocator@VCrtAllocator@rapidjson@@@2@VCrtAllocator@2@@2@@?$GenericReader@U?$UTF16@_W@rapidjson@@U12@VCrtAllocator@2@@rapidjson@@AEAAXAEAU?$GenericStringStream@U?$UTF16@_W@rapidjson@@@1@AEAV?$GenericDocument@U?$UTF16@_W@rapidjson@@V?$MemoryPoolAllocator@VCrtAllocator@rapidjson@@@2@VCrtAllocator@2@@1@@Z 0000000180006974 f i mdump.obj
 0001:00005a04       ??$ParseValue@$0A@U?$GenericStringStream@U?$UTF16@_W@rapidjson@@@rapidjson@@V?$GenericDocument@U?$UTF16@_W@rapidjson@@V?$MemoryPoolAllocator@VCrtAllocator@rapidjson@@@2@VCrtAllocator@2@@2@@?$GenericReader@U?$UTF16@_W@rapidjson@@U12@VCrtAllocator@2@@rapidjson@@AEAAXAEAU?$GenericStringStream@U?$UTF16@_W@rapidjson@@@1@AEAV?$GenericDocument@U?$UTF16@_W@rapidjson@@V?$MemoryPoolAllocator@VCrtAllocator@rapidjson@@@2@VCrtAllocator@2@@1@@Z 0000000180006a04 f i mdump.obj
 0001:00005a50       ??$SkipWhitespace@U?$GenericStringStream@U?$UTF16@_W@rapidjson@@@rapidjson@@@rapidjson@@YAXAEAU?$GenericStringStream@U?$UTF16@_W@rapidjson@@@0@@Z 0000000180006a50 f i mdump.obj
 0001:00005a90       ??$StringEqual@V?$MemoryPoolAllocator@VCrtAllocator@rapidjson@@@rapidjson@@@?$GenericValue@U?$UTF16@_W@rapidjson@@V?$MemoryPoolAllocator@VCrtAllocator@rapidjson@@@2@@rapidjson@@AEBA_NAEBV01@@Z 0000000180006a90 f i mdump.obj
 0001:00005b1c       ??$_Emplace_reallocate@V?$CStringT@_WV?$StrTraitATL@_WV?$ChTraitsCRT@_W@ATL@@@ATL@@@ATL@@@?$vector@V?$CStringT@_WV?$StrTraitATL@_WV?$ChTraitsCRT@_W@ATL@@@ATL@@@ATL@@V?$allocator@V?$CStringT@_WV?$StrTraitATL@_WV?$ChTraitsCRT@_W@ATL@@@ATL@@@ATL@@@std@@@std@@QEAAPEAV?$CStringT@_WV?$StrTraitATL@_WV?$ChTraitsCRT@_W@ATL@@@ATL@@@ATL@@QEAV23@$$QEAV23@@Z 0000000180006b1c f i mdump.obj
 0001:00005d14       ??0?$CStringT@_WV?$StrTraitATL@_WV?$ChTraitsCRT@_W@ATL@@@ATL@@@ATL@@QEAA@PEB_WPEAUIAtlStringMgr@1@@Z 0000000180006d14 f i mdump.obj
 0001:00005da4       ??0?$GenericDocument@U?$UTF16@_W@rapidjson@@V?$MemoryPoolAllocator@VCrtAllocator@rapidjson@@@2@VCrtAllocator@2@@rapidjson@@QEAA@PEAV?$MemoryPoolAllocator@VCrtAllocator@rapidjson@@@1@_KPEAVCrtAllocator@1@@Z 0000000180006da4 f i mdump.obj
 0001:00005e2c       ??0?$MemoryPoolAllocator@VCrtAllocator@rapidjson@@@rapidjson@@QEAA@_KPEAVCrtAllocator@1@@Z 0000000180006e2c f i mdump.obj
 0001:00005ecc       ??0MiniDumper@@QEAA@XZ     0000000180006ecc f   mdump.obj
 0001:00006218       ??0TotalUptimeAndCrashCalculator@@QEAA@PEB_W00@Z 0000000180007218 f i mdump.obj
 0001:00006434       ??1?$CHeapPtr@_WVCLocalAllocator@ATL@@@ATL@@QEAA@XZ 0000000180007434 f i mdump.obj
 0001:00006450       ??1?$GenericDocument@U?$UTF16@_W@rapidjson@@V?$MemoryPoolAllocator@VCrtAllocator@rapidjson@@@2@VCrtAllocator@2@@rapidjson@@QEAA@XZ 0000000180007450 f i mdump.obj
 0001:000064a4       ??1?$GenericReader@U?$UTF16@_W@rapidjson@@U12@VCrtAllocator@2@@rapidjson@@QEAA@XZ 00000001800074a4 f i mdump.obj
 0001:000064cc       ??1?$GenericValue@U?$UTF16@_W@rapidjson@@V?$MemoryPoolAllocator@VCrtAllocator@rapidjson@@@2@@rapidjson@@QEAA@XZ 00000001800074cc f i mdump.obj
 0001:000064d0       ??1?$MemoryPoolAllocator@VCrtAllocator@rapidjson@@@rapidjson@@QEAA@XZ 00000001800074d0 f i mdump.obj
 0001:00006540       ??1?$Stack@VCrtAllocator@rapidjson@@@internal@rapidjson@@QEAA@XZ 0000000180007540 f i mdump.obj
 0001:00006568       ??1?$StreamLocalCopy@U?$GenericStringStream@U?$UTF16@_W@rapidjson@@@rapidjson@@$00@internal@rapidjson@@QEAA@XZ 0000000180007568 f i mdump.obj
 0001:00006574       ??1?$_Uninitialized_backout_al@V?$allocator@V?$CStringT@_WV?$StrTraitATL@_WV?$ChTraitsCRT@_W@ATL@@@ATL@@@ATL@@@std@@@std@@QEAA@XZ 0000000180007574 f i mdump.obj
 0001:000065b8       ??1?$vector@V?$CStringT@_WV?$StrTraitATL@_WV?$ChTraitsCRT@_W@ATL@@@ATL@@@ATL@@V?$allocator@V?$CStringT@_WV?$StrTraitATL@_WV?$ChTraitsCRT@_W@ATL@@@ATL@@@ATL@@@std@@@std@@QEAA@XZ 00000001800075b8 f i mdump.obj
 0001:000065c0       ??1ClearStackOnExit@?$GenericDocument@U?$UTF16@_W@rapidjson@@V?$MemoryPoolAllocator@VCrtAllocator@rapidjson@@@2@VCrtAllocator@2@@rapidjson@@QEAA@XZ 00000001800075c0 f i mdump.obj
 0001:000065d4       ??1ClearStackOnExit@?$GenericReader@U?$UTF16@_W@rapidjson@@U12@VCrtAllocator@2@@rapidjson@@QEAA@XZ 00000001800075d4 f i mdump.obj
 0001:000065e0       ??1DumpData@@QEAA@XZ       00000001800075e0 f i mdump.obj
 0001:00006608       ??1MiniDumper@@UEAA@XZ     0000000180007608 f   mdump.obj
 0001:0000679c       ??1ResourceSwitch@@QEAA@XZ 000000018000779c f i mdump.obj
 0001:000067b4       ??1TotalUptimeAndCrashCalculator@@QEAA@XZ 00000001800077b4 f i mdump.obj
 0001:000068a8       ??8?$GenericValue@U?$UTF16@_W@rapidjson@@V?$MemoryPoolAllocator@VCrtAllocator@rapidjson@@@2@@rapidjson@@QEBA_NPEB_W@Z 00000001800078a8 f i mdump.obj
 0001:00006928       ??B?$CSimpleStringT@_W$0A@@ATL@@QEBAPEB_WXZ 0000000180007928 f i mdump.obj
 0001:0000692c       ??HATL@@YA?AV?$CStringT@_WV?$StrTraitATL@_WV?$ChTraitsCRT@_W@ATL@@@ATL@@@0@AEBV10@PEB_W@Z 000000018000792c f i mdump.obj
 0001:000069e4       ??HATL@@YA?AV?$CStringT@_WV?$StrTraitATL@_WV?$ChTraitsCRT@_W@ATL@@@ATL@@@0@PEB_WAEBV10@@Z 00000001800079e4 f i mdump.obj
 0001:00006a9c       ??_GMiniDumper@@UEAAPEAXI@Z 0000000180007a9c f i mdump.obj
 0001:00006a9c       ??_EMiniDumper@@UEAAPEAXI@Z 0000000180007a9c f i mdump.obj
 0001:00006ad0       ?AddChunk@?$MemoryPoolAllocator@VCrtAllocator@rapidjson@@@rapidjson@@AEAA_N_K@Z 0000000180007ad0 f i mdump.obj
 0001:00006b3c       ?AllocGuardMemory@MiniDumper@@QEAA_NXZ 0000000180007b3c f   mdump.obj
 0001:00006b7c       ?AtlMessageBox@WTL@@YAHPEAUHWND__@@V_U_STRINGorID@ATL@@1I@Z 0000000180007b7c f i mdump.obj
 0001:00006d54       ?CreateReportThreaded@MiniDumper@@SAIPEAX@Z 0000000180007d54 f   mdump.obj
 0001:000071dc       ?Delete@?$CStringT@_WV?$StrTraitATL@_WV?$ChTraitsCRT@_W@ATL@@@ATL@@@ATL@@QEAAHHH@Z 00000001800081dc f i mdump.obj
 0001:000072e8       ?ExceptionHandler@MiniDumper@@SAJPEAU_EXCEPTION_POINTERS@@K@Z 00000001800082e8 f   mdump.obj
 0001:000076b4       ?FindMember@?$GenericValue@U?$UTF16@_W@rapidjson@@V?$MemoryPoolAllocator@VCrtAllocator@rapidjson@@@2@@rapidjson@@QEAA?AV?$GenericMemberIterator@$0A@U?$UTF16@_W@rapidjson@@V?$MemoryPoolAllocator@VCrtAllocator@rapidjson@@@2@@2@PEB_W@Z 00000001800086b4 f i mdump.obj
 0001:00007734       ?Format@?$CStringT@_WV?$StrTraitATL@_WV?$ChTraitsCRT@_W@ATL@@@ATL@@@ATL@@QEAAXPEB_WZZ 0000000180008734 f i mdump.obj
 0001:00007758       ?FormatMessageV@?$CStringT@_WV?$StrTraitATL@_WV?$ChTraitsCRT@_W@ATL@@@ATL@@@ATL@@QEAAXPEB_WPEAPEAD@Z 0000000180008758 f i mdump.obj
 0001:000078f8       ?FormatMessageW@?$CStringT@_WV?$StrTraitATL@_WV?$ChTraitsCRT@_W@ATL@@@ATL@@@ATL@@QEAAXIZZ 00000001800088f8 f i mdump.obj
 0001:000079e8       ?FormatV@?$CStringT@_WV?$StrTraitATL@_WV?$ChTraitsCRT@_W@ATL@@@ATL@@@ATL@@QEAAXPEB_WPEAD@Z 00000001800089e8 f i mdump.obj
 0001:00007b34       ?FreeGuardMemory@MiniDumper@@QEAA_NXZ 0000000180008b34 f   mdump.obj
 0001:00007b64       ?GetFullDumpEnabledStatus@MiniDumper@@SA_NXZ 0000000180008b64 f   mdump.obj
 0001:00007f7c       ?GetMFA@MiniDumper@@SA_NPEAXPEA_WH@Z 0000000180008f7c f   mdump.obj
 0001:000080c8       ?Int64@?$GenericDocument@U?$UTF16@_W@rapidjson@@V?$MemoryPoolAllocator@VCrtAllocator@rapidjson@@@2@VCrtAllocator@2@@rapidjson@@QEAA_N_J@Z 00000001800090c8 f i mdump.obj
 0001:00008170       ?IsError@ParseResult@rapidjson@@QEBA_NXZ 0000000180009170 f i mdump.obj
 0001:00008178       ?LaunchHangDetection@MiniDumper@@QEAAX_N@Z 0000000180009178 f   mdump.obj
 0001:000083cc       ?MakeLower@?$CStringT@_WV?$StrTraitATL@_WV?$ChTraitsCRT@_W@ATL@@@ATL@@@ATL@@QEAAAEAV12@XZ 00000001800093cc f i mdump.obj
 0001:00008444       ?Malloc@?$MemoryPoolAllocator@VCrtAllocator@rapidjson@@@rapidjson@@QEAAPEAX_K@Z 0000000180009444 f i mdump.obj
 0001:000084b0       ?ResolveMiniDumpType@MiniDumper@@SA?AW4_BS_MINIDUMP_TYPE@MiniDmpSender@@XZ 00000001800094b0 f   mdump.obj
 0001:000084fc       ?SendReportThreaded@MiniDumper@@SAIPEAX@Z 00000001800094fc f   mdump.obj
 0001:00008bcc       ?SetArrayRaw@?$GenericValue@U?$UTF16@_W@rapidjson@@V?$MemoryPoolAllocator@VCrtAllocator@rapidjson@@@2@@rapidjson@@AEAAXPEAV12@IAEAV?$MemoryPoolAllocator@VCrtAllocator@rapidjson@@@2@@Z 0000000180009bcc f i mdump.obj
 0001:00008c54       ?SetObjectRaw@?$GenericValue@U?$UTF16@_W@rapidjson@@V?$MemoryPoolAllocator@VCrtAllocator@rapidjson@@@2@@rapidjson@@AEAAXPEAV?$GenericMember@U?$UTF16@_W@rapidjson@@V?$MemoryPoolAllocator@VCrtAllocator@rapidjson@@@2@@2@IAEAV?$MemoryPoolAllocator@VCrtAllocator@rapidjson@@@2@@Z 0000000180009c54 f i mdump.obj
 0001:00008cdc       ?SetStringRaw@?$GenericValue@U?$UTF16@_W@rapidjson@@V?$MemoryPoolAllocator@VCrtAllocator@rapidjson@@@2@@rapidjson@@AEAAXU?$GenericStringRef@_W@2@AEAV?$MemoryPoolAllocator@VCrtAllocator@rapidjson@@@2@@Z 0000000180009cdc f i mdump.obj
 0001:00008d70       ?ShrinkToFit@?$Stack@VCrtAllocator@rapidjson@@@internal@rapidjson@@QEAAXXZ 0000000180009d70 f i mdump.obj
 0001:00008dd4       ?TerminateHangDetection@MiniDumper@@QEAAXXZ 0000000180009dd4 f   mdump.obj
 0001:00008e2c       ?TopLevelUnhandledExceptionFilter@MiniDumper@@SAJPEAU_EXCEPTION_POINTERS@@@Z 0000000180009e2c f   mdump.obj
 0001:00008e98       ?TrimLeft@?$CStringT@_WV?$StrTraitATL@_WV?$ChTraitsCRT@_W@ATL@@@ATL@@@ATL@@QEAAAEAV12@XZ 0000000180009e98 f i mdump.obj
 0001:00008fa4       ?TrimRight@?$CStringT@_WV?$StrTraitATL@_WV?$ChTraitsCRT@_W@ATL@@@ATL@@@ATL@@QEAAAEAV12@XZ 0000000180009fa4 f i mdump.obj
 0001:0000905c       ?Uint64@?$GenericDocument@U?$UTF16@_W@rapidjson@@V?$MemoryPoolAllocator@VCrtAllocator@rapidjson@@@2@VCrtAllocator@2@@rapidjson@@QEAA_N_K@Z 000000018000a05c f i mdump.obj
 0001:000090ec       ?_Change_array@?$vector@V?$CStringT@_WV?$StrTraitATL@_WV?$ChTraitsCRT@_W@ATL@@@ATL@@@ATL@@V?$allocator@V?$CStringT@_WV?$StrTraitATL@_WV?$ChTraitsCRT@_W@ATL@@@ATL@@@ATL@@@std@@@std@@AEAAXQEAV?$CStringT@_WV?$StrTraitATL@_WV?$ChTraitsCRT@_W@ATL@@@ATL@@@ATL@@_K1@Z 000000018000a0ec f i mdump.obj
 0001:000091b0       ?_Destroy@?$vector@V?$CStringT@_WV?$StrTraitATL@_WV?$ChTraitsCRT@_W@ATL@@@ATL@@@ATL@@V?$allocator@V?$CStringT@_WV?$StrTraitATL@_WV?$ChTraitsCRT@_W@ATL@@@ATL@@@ATL@@@std@@@std@@AEAAXPEAV?$CStringT@_WV?$StrTraitATL@_WV?$ChTraitsCRT@_W@ATL@@@ATL@@@ATL@@0@Z 000000018000a1b0 f i mdump.obj
 0001:000091f8       ?_Tidy@?$vector@V?$CStringT@_WV?$StrTraitATL@_WV?$ChTraitsCRT@_W@ATL@@@ATL@@@ATL@@V?$allocator@V?$CStringT@_WV?$StrTraitATL@_WV?$ChTraitsCRT@_W@ATL@@@ATL@@@ATL@@@std@@@std@@AEAAXXZ 000000018000a1f8 f i mdump.obj
 0001:0000929c       ?_Xlength@?$vector@V?$CStringT@_WV?$StrTraitATL@_WV?$ChTraitsCRT@_W@ATL@@@ATL@@@ATL@@V?$allocator@V?$CStringT@_WV?$StrTraitATL@_WV?$ChTraitsCRT@_W@ATL@@@ATL@@@ATL@@@std@@@std@@CAXXZ 000000018000a29c f i mdump.obj
 0001:000092b0       ?bugsplatMessage@MiniDumper@@SAIPEB_WII@Z 000000018000a2b0 f   mdump.obj
 0001:000092f0       ?capture@TotalUptimeAndCrashCalculator@@QEAAX_N@Z 000000018000a2f0 f i mdump.obj
 0001:00009530       ?createAsanReport@MiniDumper@@QEAAXPEBD@Z 000000018000a530 f   mdump.obj
 0001:00009670       ?createReport@MiniDumper@@QEAAXK@Z 000000018000a670 f   mdump.obj
 0001:00009698       ?createReport@MiniDumper@@QEAAXPEAU_EXCEPTION_POINTERS@@@Z 000000018000a698 f   mdump.obj
 0001:000096c0       ?createReport@MiniDumper@@QEAAXPEB_W@Z 000000018000a6c0 f   mdump.obj
 0001:000097e0       ?deallocate@?$allocator@V?$CStringT@_WV?$StrTraitATL@_WV?$ChTraitsCRT@_W@ATL@@@ATL@@@ATL@@@std@@QEAAXQEAV?$CStringT@_WV?$StrTraitATL@_WV?$ChTraitsCRT@_W@ATL@@@ATL@@@ATL@@_K@Z 000000018000a7e0 f i mdump.obj
 0001:00009824       ?debugMode@@YA_NXZ         000000018000a824 f   mdump.obj
 0001:000098e8       ?disableNetworkAccess@MiniDumper@@QEAA_N_N@Z 000000018000a8e8 f   mdump.obj
 0001:000098f4       ?enableExceptionFilter@MiniDumper@@QEAA_N_N@Z 000000018000a8f4 f   mdump.obj
 0001:0000990c       ?getLogFilePath@MiniDumper@@QEAAPEB_WXZ 000000018000a90c f   mdump.obj
 0001:00009914       ?getMiniDumpType@MiniDumper@@QEBA?AW4_BS_MINIDUMP_TYPE@MiniDmpSender@@XZ 000000018000a914 f   mdump.obj
 0001:0000991c       ?getRegistryBase@@YAXAEAV?$CStringT@_WV?$StrTraitATL@_WV?$ChTraitsCRT@_W@ATL@@@ATL@@@ATL@@@Z 000000018000a91c f   mdump.obj
 0001:00009948       ?getRegistryRoot@@YAXAEAV?$CStringT@_WV?$StrTraitATL@_WV?$ChTraitsCRT@_W@ATL@@@ATL@@@ATL@@PEB_W11@Z 000000018000a948 f   mdump.obj
 0001:000099c4       ?initExceptionHandler@MiniDumper@@QEAAXPEB_W000K@Z 000000018000a9c4 f   mdump.obj
 0001:00009cf4       ?invalid_parameter_handler@@YAXPEB_W00I_K@Z 000000018000acf4 f i mdump.obj
 0001:00009d00       ?isExceptionFilterEnabled@MiniDumper@@QEBA_NXZ 000000018000ad00 f   mdump.obj
 0001:00009d08       ?isNetworkAccessDisabled@MiniDumper@@QEBA_NXZ 000000018000ad08 f   mdump.obj
 0001:00009d10       ?logOutput@@YAXIPEB_W_N@Z  000000018000ad10 f   mdump.obj
 0001:00009fac       ?removeAdditionalFile@MiniDumper@@QEAA_NPEB_W@Z 000000018000afac f   mdump.obj
 0001:0000a028       ?resetDescriptionString@MiniDumper@@QEAAXPEB_W@Z 000000018000b028 f   mdump.obj
 0001:0000a060       ?resetVersionString@MiniDumper@@QEAAXPEB_W@Z 000000018000b060 f   mdump.obj
 0001:0000a090       ?sendAdditionalFile@MiniDumper@@QEAAXPEB_W@Z 000000018000b090 f   mdump.obj
 0001:0000a10c       ?setCallback@MiniDumper@@QEAAXP6A_NIPEAX0@Z@Z 000000018000b10c f   mdump.obj
 0001:0000a114       ?setDefaultUserDescription@MiniDumper@@QEAAXPEB_W@Z 000000018000b114 f   mdump.obj
 0001:0000a14c       ?setDefaultUserEmail@MiniDumper@@QEAAXPEB_W@Z 000000018000b14c f   mdump.obj
 0001:0000a184       ?setDefaultUserName@MiniDumper@@QEAAXPEB_W@Z 000000018000b184 f   mdump.obj
 0001:0000a1bc       ?setFlags@MiniDumper@@QEAA_NK@Z 000000018000b1bc f   mdump.obj
 0001:0000a208       ?setGuardByteBufferSize@MiniDumper@@QEAAHH@Z 000000018000b208 f   mdump.obj
 0001:0000a248       ?setHangDetectionTimeout@MiniDumper@@QEAAHH@Z 000000018000b248 f   mdump.obj
 0001:0000a260       ?setLogFilePath@MiniDumper@@QEAAXPEB_W@Z 000000018000b260 f   mdump.obj
 0001:0000a298       ?setMiniDumpType@MiniDumper@@QEAAXW4_BS_MINIDUMP_TYPE@MiniDmpSender@@@Z 000000018000b298 f   mdump.obj
 0001:0000a2a0       ?setNotes@MiniDumper@@QEAAXPEB_W@Z 000000018000b2a0 f   mdump.obj
 0001:0000a2d0       ?setResourceDllPath@MiniDumper@@QEAAXPEB_W@Z 000000018000b2d0 f   mdump.obj
 0001:0000a308       ?setUserZipPath@MiniDumper@@QEAAXPEB_W@Z 000000018000b308 f   mdump.obj
 0001:0000a340       ?signal_handler@@YAXH@Z    000000018000b340 f i mdump.obj
 0001:0000a34c       ?terminator@@YAXXZ         000000018000b34c f i mdump.obj
 0001:0000a358       _fwprintf_p                000000018000b358 f i mdump.obj
 0001:0000a39c       wprintf                    000000018000b39c f i mdump.obj
 0001:0000a3f0       ??0MiniDmpSender@@QEAA@PEB_W000K@Z 000000018000b3f0 f   BugSplatNative.obj
 0001:0000a4b8       ??1MiniDmpSender@@UEAA@XZ  000000018000b4b8 f   BugSplatNative.obj
 0001:0000a4ec       ?createAsanReport@MiniDmpSender@@QEAAXPEBD@Z 000000018000b4ec f   BugSplatNative.obj
 0001:0000a4f8       ?createReport@MiniDmpSender@@QEAAXPEAU_EXCEPTION_POINTERS@@@Z 000000018000b4f8 f   BugSplatNative.obj
 0001:0000a504       ?createReport@MiniDmpSender@@QEAAXPEB_W@Z 000000018000b504 f   BugSplatNative.obj
 0001:0000a510       ?disableNetworkAccess@MiniDmpSender@@QEAA_N_N@Z 000000018000b510 f   BugSplatNative.obj
 0001:0000a51c       ?enableExceptionFilter@MiniDmpSender@@QEAA_N_N@Z 000000018000b51c f   BugSplatNative.obj
 0001:0000a528       ?getFlags@MiniDmpSender@@QEBAKXZ 000000018000b528 f   BugSplatNative.obj
 0001:0000a530       ?getMiniDumpType@MiniDmpSender@@QEBA?AW4_BS_MINIDUMP_TYPE@1@XZ 000000018000b530 f   BugSplatNative.obj
 0001:0000a53c       ?getMinidumpPath@MiniDmpSender@@QEAAXPEA_W_K@Z 000000018000b53c f   BugSplatNative.obj
 0001:0000a55c       ?imp@MiniDmpSender@@QEAAPEAXXZ 000000018000b55c f   BugSplatNative.obj
 0001:0000a564       ?isExceptionFilterEnabled@MiniDmpSender@@QEBA_NXZ 000000018000b564 f   BugSplatNative.obj
 0001:0000a570       ?isNetworkAccessDisabled@MiniDmpSender@@QEBA_NXZ 000000018000b570 f   BugSplatNative.obj
 0001:0000a57c       ?removeAdditionalFile@MiniDmpSender@@QEAA_NPEB_W@Z 000000018000b57c f   BugSplatNative.obj
 0001:0000a588       ?resetAppIdentifier@MiniDmpSender@@QEAAXPEB_W@Z 000000018000b588 f   BugSplatNative.obj
 0001:0000a594       ?resetVersionString@MiniDmpSender@@QEAAXPEB_W@Z 000000018000b594 f   BugSplatNative.obj
 0001:0000a5a0       ?sendAdditionalFile@MiniDmpSender@@QEAAXPEB_W@Z 000000018000b5a0 f   BugSplatNative.obj
 0001:0000a5ac       ?setCallback@MiniDmpSender@@QEAAXP6A_NIPEAX0@Z@Z 000000018000b5ac f   BugSplatNative.obj
 0001:0000a5b8       ?setDefaultUserDescription@MiniDmpSender@@QEAAXPEB_W@Z 000000018000b5b8 f   BugSplatNative.obj
 0001:0000a5c4       ?setDefaultUserEmail@MiniDmpSender@@QEAAXPEB_W@Z 000000018000b5c4 f   BugSplatNative.obj
 0001:0000a5d0       ?setDefaultUserName@MiniDmpSender@@QEAAXPEB_W@Z 000000018000b5d0 f   BugSplatNative.obj
 0001:0000a5dc       ?setFlags@MiniDmpSender@@QEAA_NK@Z 000000018000b5dc f   BugSplatNative.obj
 0001:0000a5e8       ?setGuardByteBufferSize@MiniDmpSender@@QEAAHH@Z 000000018000b5e8 f   BugSplatNative.obj
 0001:0000a5f4       ?setHangDetectionTimeout@MiniDmpSender@@QEAAHH@Z 000000018000b5f4 f   BugSplatNative.obj
 0001:0000a600       ?setLogFilePath@MiniDmpSender@@QEAAXPEB_W@Z 000000018000b600 f   BugSplatNative.obj
 0001:0000a60c       ?setMiniDumpType@MiniDmpSender@@QEAAXW4_BS_MINIDUMP_TYPE@1@@Z 000000018000b60c f   BugSplatNative.obj
 0001:0000a618       ?setNotes@MiniDmpSender@@QEAAXPEB_W@Z 000000018000b618 f   BugSplatNative.obj
 0001:0000a624       ?setResourceDllPath@MiniDmpSender@@QEAAXPEB_W@Z 000000018000b624 f   BugSplatNative.obj
 0001:0000a630       ?setUserZipPath@MiniDmpSender@@QEAAXPEB_W@Z 000000018000b630 f   BugSplatNative.obj
 0001:0000a63c       ?unhandledExceptionHandler@MiniDmpSender@@QEAAJPEAU_EXCEPTION_POINTERS@@@Z 000000018000b63c f   BugSplatNative.obj
 0001:0000a644       ?Lock@CAtlModule@ATL@@UEAAJXZ 000000018000b644 f i BugSplatNativeApp.obj
 0001:0000a654       ?Unlock@CAtlModule@ATL@@UEAAJXZ 000000018000b654 f i BugSplatNativeApp.obj
 0001:0000a660       ?GetLockCount@CAtlModule@ATL@@UEAAJXZ 000000018000b660 f i BugSplatNativeApp.obj
 0001:0000a664       ?GetGITPtr@CAtlModule@ATL@@UEAAJPEAPEAUIGlobalInterfaceTable@@@Z 000000018000b664 f i BugSplatNativeApp.obj
 0001:0000a6d4       ?AddCommonRGSReplacements@?$CAtlModuleT@VCComModule@ATL@@@ATL@@UEAAJPEAUIRegistrarBase@@@Z 000000018000b6d4 f i BugSplatNativeApp.obj
 0001:0000a6ec       ?UpdateRegistryFromResourceD@CComModule@ATL@@UEAAJPEB_WHPEAU_ATL_REGMAP_ENTRY@2@@Z 000000018000b6ec f i BugSplatNativeApp.obj
 0001:0000a6f4       ?UpdateRegistryFromResourceD@CComModule@ATL@@UEAAJIHPEAU_ATL_REGMAP_ENTRY@2@@Z 000000018000b6f4 f i BugSplatNativeApp.obj
 0001:0000a6fc       ?UpdateRegistryFromResource@CComModule@ATL@@UEAAJPEB_WHPEAU_ATL_REGMAP_ENTRY@2@@Z 000000018000b6fc f i BugSplatNativeApp.obj
 0001:0000a704       ?UpdateRegistryFromResource@CComModule@ATL@@UEAAJIHPEAU_ATL_REGMAP_ENTRY@2@@Z 000000018000b704 f i BugSplatNativeApp.obj
 0001:0000a70c       ??_GCComModule@ATL@@UEAAPEAXI@Z 000000018000b70c f i BugSplatNativeApp.obj
 0001:0000a70c       ??_ECComModule@ATL@@UEAAPEAXI@Z 000000018000b70c f i BugSplatNativeApp.obj
 0001:0000a74c       ??_ECAppModule@WTL@@UEAAPEAXI@Z 000000018000b74c f i BugSplatNativeApp.obj
 0001:0000a74c       ??_GCAppModule@WTL@@UEAAPEAXI@Z 000000018000b74c f i BugSplatNativeApp.obj
 0001:0000a78c       ?QueryInterface@CRegObject@ATL@@UEAAJAEBU_GUID@@PEAPEAX@Z 000000018000b78c f i BugSplatNativeApp.obj
 0001:0000a794       ?AddRef@CRegObject@ATL@@UEAAKXZ 000000018000b794 f i BugSplatNativeApp.obj
 0001:0000a79c       ?Release@CRegObject@ATL@@UEAAKXZ 000000018000b79c f i BugSplatNativeApp.obj
 0001:0000a7a0       ?AddReplacement@CRegObject@ATL@@UEAAJPEB_W0@Z 000000018000b7a0 f i BugSplatNativeApp.obj
 0001:0000a81c       ?ClearReplacements@CRegObject@ATL@@UEAAJXZ 000000018000b81c f i BugSplatNativeApp.obj
 0001:0000a858       ??_GCRegObject@ATL@@UEAAPEAXI@Z 000000018000b858 f i BugSplatNativeApp.obj
 0001:0000a858       ??_ECRegObject@ATL@@UEAAPEAXI@Z 000000018000b858 f i BugSplatNativeApp.obj
 0001:0000a88c       ??0CAtlComModule@ATL@@QEAA@XZ 000000018000b88c f i BugSplatNativeApp.obj
 0001:0000a914       ??0CAtlModule@ATL@@QEAA@XZ 000000018000b914 f i BugSplatNativeApp.obj
 0001:0000a994       ??1?$CAtlSafeAllocBufferManager@VCCRTAllocator@ATL@@@_ATL_SAFE_ALLOCA_IMPL@ATL@@QEAA@XZ 000000018000b994 f i BugSplatNativeApp.obj
 0001:0000a9c0       ??1?$CAutoVectorPtr@_W@ATL@@QEAA@XZ 000000018000b9c0 f i BugSplatNativeApp.obj
 0001:0000a9dc       ??1?$CTempBuffer@E$0BAA@VCCRTAllocator@ATL@@@ATL@@QEAA@XZ 000000018000b9dc f i BugSplatNativeApp.obj
 0001:0000a9f4       ??1?$CTempBuffer@_W$0BAA@VCCRTAllocator@ATL@@@ATL@@QEAA@XZ 000000018000b9f4 f i BugSplatNativeApp.obj
 0001:0000aa0c       ??1?$CTempBuffer@_W$0EAA@VCCRTAllocator@ATL@@@ATL@@QEAA@XZ 000000018000ba0c f i BugSplatNativeApp.obj
 0001:0000aa24       ??1CAtlModule@ATL@@UEAA@XZ 000000018000ba24 f i BugSplatNativeApp.obj
 0001:0000aa2c       ??1CParseBuffer@CRegParser@ATL@@QEAA@XZ 000000018000ba2c f i BugSplatNativeApp.obj
 0001:0000aa38       ??1CRegKey@ATL@@QEAA@XZ    000000018000ba38 f i BugSplatNativeApp.obj
 0001:0000aa60       ??1CRegObject@ATL@@UEAA@XZ 000000018000ba60 f i BugSplatNativeApp.obj
 0001:0000aae8       ?Add@?$CSimpleMap@PEA_WPEA_WVCExpansionVectorEqualHelper@ATL@@@ATL@@QEAAHAEBQEA_W0@Z 000000018000bae8 f i BugSplatNativeApp.obj
 0001:0000ab88       ?Add@CExpansionVector@ATL@@QEAAHPEB_W0@Z 000000018000bb88 f i BugSplatNativeApp.obj
 0001:0000aca8       ?AddValue@CRegParser@ATL@@IEAAJAEAVCRegKey@2@PEB_WPEA_W@Z 000000018000bca8 f i BugSplatNativeApp.obj
 0001:0000b130       ?AllocateHeap@?$CTempBuffer@E$0BAA@VCCRTAllocator@ATL@@@ATL@@AEAAX_K@Z 000000018000c130 f i BugSplatNativeApp.obj
 0001:0000b15c       ?AllocateHeap@?$CTempBuffer@_W$0BAA@VCCRTAllocator@ATL@@@ATL@@AEAAX_K@Z 000000018000c15c f i BugSplatNativeApp.obj
 0001:0000b188       ?AllocateHeap@?$CTempBuffer@_W$0EAA@VCCRTAllocator@ATL@@@ATL@@AEAAX_K@Z 000000018000c188 f i BugSplatNativeApp.obj
 0001:0000b1b4       ?Append@CParseBuffer@CRegParser@ATL@@QEAAHPEB_WH@Z 000000018000c1b4 f i BugSplatNativeApp.obj
 0001:0000b2fc       ?AtlHresultFromLastError@ATL@@YAJXZ 000000018000c2fc f i BugSplatNativeApp.obj
 0001:0000b31c       ?AtlHresultFromWin32@ATL@@YAJK@Z 000000018000c31c f i BugSplatNativeApp.obj
 0001:0000b32c       ?ChToByte@CRegParser@ATL@@KAE_W@Z 000000018000c32c f i BugSplatNativeApp.obj
 0001:0000b3b8       ?ClearReplacements@CExpansionVector@ATL@@QEAAJXZ 000000018000c3b8 f i BugSplatNativeApp.obj
 0001:0000b454       ?DeleteSubKey@CRegKey@ATL@@QEAAJPEB_W@Z 000000018000c454 f i BugSplatNativeApp.obj
 0001:0000b4ec       ?FreeHeap@?$CTempBuffer@E$0BAA@VCCRTAllocator@ATL@@@ATL@@AEAAXXZ 000000018000c4ec f i BugSplatNativeApp.obj
 0001:0000b4f4       ?FreeHeap@?$CTempBuffer@_W$0BAA@VCCRTAllocator@ATL@@@ATL@@AEAAXXZ 000000018000c4f4 f i BugSplatNativeApp.obj
 0001:0000b4fc       ?FreeHeap@?$CTempBuffer@_W$0EAA@VCCRTAllocator@ATL@@@ATL@@AEAAXXZ 000000018000c4fc f i BugSplatNativeApp.obj
 0001:0000b504       ?HKeyFromString@CRegParser@ATL@@KAPEAUHKEY__@@PEA_W@Z 000000018000c504 f i BugSplatNativeApp.obj
 0001:0000b568       ?Init@CAppModule@WTL@@QEAAJPEAU_ATL_OBJMAP_ENTRY30@ATL@@PEAUHINSTANCE__@@PEBU_GUID@@@Z 000000018000c568 f i BugSplatNativeApp.obj
 0001:0000b640       ?Lookup@?$CSimpleMap@PEA_WPEA_WVCExpansionVectorEqualHelper@ATL@@@ATL@@QEBAPEA_WAEBQEA_W@Z 000000018000c640 f i BugSplatNativeApp.obj
 0001:0000b6c8       ?NextToken@CRegParser@ATL@@IEAAJPEA_W@Z 000000018000c6c8 f i BugSplatNativeApp.obj
 0001:0000b884       ?PreProcessBuffer@CRegParser@ATL@@QEAAJPEA_WPEAPEA_W@Z 000000018000c884 f i BugSplatNativeApp.obj
 0001:0000bc70       ?RecurseDeleteKey@CRegKey@ATL@@QEAAJPEB_W@Z 000000018000cc70 f i BugSplatNativeApp.obj
 0001:0000bdc8       ?RegCreateKeyExW@CAtlTransactionManager@ATL@@QEAAJPEAUHKEY__@@PEB_WKPEA_WKKQEAU_SECURITY_ATTRIBUTES@@PEAPEAU3@PEAK@Z 000000018000cdc8 f i BugSplatNativeApp.obj
 0001:0000befc       ?RegDeleteKeyW@CAtlTransactionManager@ATL@@QEAAJPEAUHKEY__@@PEB_W@Z 000000018000cefc f i BugSplatNativeApp.obj
 0001:0000bf88       ?RegOpenKeyExW@CAtlTransactionManager@ATL@@QEAAJPEAUHKEY__@@PEB_WKKPEAPEAU3@@Z 000000018000cf88 f i BugSplatNativeApp.obj
 0001:0000c040       ?RegisterBuffer@CRegParser@ATL@@QEAAJPEA_WH@Z 000000018000d040 f i BugSplatNativeApp.obj
 0001:0000c1ac       ?RegisterFromResource@CRegObject@ATL@@IEAAJPEB_W00H@Z 000000018000d1ac f i BugSplatNativeApp.obj
 0001:0000c380       ?RegisterSubkeys@CRegParser@ATL@@IEAAJPEA_WPEAUHKEY__@@HH@Z 000000018000d380 f i BugSplatNativeApp.obj
 0001:0000cbf4       ?SetMultiStringValue@CRegKey@ATL@@QEAAJPEB_W0@Z 000000018000dbf4 f i BugSplatNativeApp.obj
 0001:0000cc74       ?SkipAssignment@CRegParser@ATL@@IEAAJPEA_W@Z 000000018000dc74 f i BugSplatNativeApp.obj
 0001:0000cd1c       ?Term@CAppModule@WTL@@QEAAXXZ 000000018000dd1c f i BugSplatNativeApp.obj
 0001:0000cd80       ?Term@CAtlComModule@ATL@@QEAAXXZ 000000018000dd80 f i BugSplatNativeApp.obj
 0001:0000cdf0       ?Term@CAtlModule@ATL@@QEAAXXZ 000000018000ddf0 f i BugSplatNativeApp.obj
 0001:0000ce70       ?Term@CComModule@ATL@@QEAAXXZ 000000018000de70 f i BugSplatNativeApp.obj
 0001:0000ceec       ?TermSettingChangeNotify@CAppModule@WTL@@QEAAXXZ 000000018000deec f i BugSplatNativeApp.obj
 0001:0000cf7c       ?UpdateRegistryFromResource@CAtlModule@ATL@@QEAAJIHPEAU_ATL_REGMAP_ENTRY@2@@Z 000000018000df7c f i BugSplatNativeApp.obj
 0001:0000d26c       ?UpdateRegistryFromResource@CAtlModule@ATL@@QEAAJPEB_WHPEAU_ATL_REGMAP_ENTRY@2@@Z 000000018000e26c f i BugSplatNativeApp.obj
 0001:0000d578       ?VTFromRegType@CRegParser@ATL@@KAHPEB_WAEAG@Z 000000018000e578 f i BugSplatNativeApp.obj
 0001:0000d614       ?_AtlInitializeCriticalSectionEx@ATL@@YAHPEAU_RTL_CRITICAL_SECTION@@KK@Z 000000018000e614 f i BugSplatNativeApp.obj
 0001:0000d61c       ?_AtlRaiseException@ATL@@YAXKK@Z 000000018000e61c f i BugSplatNativeApp.obj
 0001:0000d62c       ?ocscpy_s@@YA_NPEA_W_KPEB_W@Z 000000018000e62c f i BugSplatNativeApp.obj
 0001:0000d6e0       DllMain                    000000018000e6e0 f   BugSplatNativeApp.obj
 0001:0000d71c       ??0CAtlWinModule@ATL@@QEAA@XZ 000000018000e71c f i StdAfx.obj
 0001:0000d794       ??1stringdispid@CComTypeInfoHolder@ATL@@QEAA@XZ 000000018000e794 f i StdAfx.obj
 0001:0000d7a0       ??_Estringdispid@CComTypeInfoHolder@ATL@@QEAAPEAXI@Z 000000018000e7a0 f i StdAfx.obj
 0001:0000d820       ?AtlWinModuleTerm@ATL@@YAJPEAU_ATL_WIN_MODULE70@1@PEAUHINSTANCE__@@@Z 000000018000e820 f i StdAfx.obj
 0001:0000d8d0       InternetOpenW              000000018000e8d0 f   wininet:WININET.dll
 0001:0000d8d6       InternetCloseHandle        000000018000e8d6 f   wininet:WININET.dll
 0001:0000d8dc       InternetConnectW           000000018000e8dc f   wininet:WININET.dll
 0001:0000d8e2       InternetReadFile           000000018000e8e2 f   wininet:WININET.dll
 0001:0000d8e8       InternetQueryOptionW       000000018000e8e8 f   wininet:WININET.dll
 0001:0000d8ee       InternetSetOptionW         000000018000e8ee f   wininet:WININET.dll
 0001:0000d8f4       HttpOpenRequestW           000000018000e8f4 f   wininet:WININET.dll
 0001:0000d8fa       HttpSendRequestW           000000018000e8fa f   wininet:WININET.dll
 0001:0000d900       HttpQueryInfoW             000000018000e900 f   wininet:WININET.dll
 0001:0000d906       InternetAttemptConnect     000000018000e906 f   wininet:WININET.dll
 0001:0000d90c       PathFileExistsW            000000018000e90c f   shlwapi:SHLWAPI.dll
 0001:0000d912       PathAppendW                000000018000e912 f   shlwapi:SHLWAPI.dll
 0001:0000d918       PathRemoveExtensionW       000000018000e918 f   shlwapi:SHLWAPI.dll
 0001:0000d91e       PathStripPathW             000000018000e91e f   shlwapi:SHLWAPI.dll
 0001:0000d924       UrlEscapeW                 000000018000e924 f   shlwapi:SHLWAPI.dll
 0001:0000d92a       CreateFileW                000000018000e92a f   kernel32:KERNEL32.dll
 0001:0000d930       GetFileSize                000000018000e930 f   kernel32:KERNEL32.dll
 0001:0000d936       CloseHandle                000000018000e936 f   kernel32:KERNEL32.dll
 0001:0000d93c       GetLastError               000000018000e93c f   kernel32:KERNEL32.dll
 0001:0000d942       HeapDestroy                000000018000e942 f   kernel32:KERNEL32.dll
 0001:0000d948       HeapAlloc                  000000018000e948 f   kernel32:KERNEL32.dll
 0001:0000d94e       HeapReAlloc                000000018000e94e f   kernel32:KERNEL32.dll
 0001:0000d954       HeapFree                   000000018000e954 f   kernel32:KERNEL32.dll
 0001:0000d95a       HeapSize                   000000018000e95a f   kernel32:KERNEL32.dll
 0001:0000d960       GetProcessHeap             000000018000e960 f   kernel32:KERNEL32.dll
 0001:0000d966       CreateFileMappingW         000000018000e966 f   kernel32:KERNEL32.dll
 0001:0000d96c       MapViewOfFile              000000018000e96c f   kernel32:KERNEL32.dll
 0001:0000d972       UnmapViewOfFile            000000018000e972 f   kernel32:KERNEL32.dll
 0001:0000d978       FindResourceExW            000000018000e978 f   kernel32:KERNEL32.dll
 0001:0000d97e       LoadResource               000000018000e97e f   kernel32:KERNEL32.dll
 0001:0000d984       LockResource               000000018000e984 f   kernel32:KERNEL32.dll
 0001:0000d98a       SizeofResource             000000018000e98a f   kernel32:KERNEL32.dll
 0001:0000d990       FindResourceW              000000018000e990 f   kernel32:KERNEL32.dll
 0001:0000d996       MultiByteToWideChar        000000018000e996 f   kernel32:KERNEL32.dll
 0001:0000d99c       WideCharToMultiByte        000000018000e99c f   kernel32:KERNEL32.dll
 0001:0000d9a2       DeleteFileW                000000018000e9a2 f   kernel32:KERNEL32.dll
 0001:0000d9a8       GetTempPathW               000000018000e9a8 f   kernel32:KERNEL32.dll
 0001:0000d9ae       GetCurrentProcess          000000018000e9ae f   kernel32:KERNEL32.dll
 0001:0000d9b4       GetCurrentThreadId         000000018000e9b4 f   kernel32:KERNEL32.dll
 0001:0000d9ba       OpenThread                 000000018000e9ba f   kernel32:KERNEL32.dll
 0001:0000d9c0       SuspendThread              000000018000e9c0 f   kernel32:KERNEL32.dll
 0001:0000d9c6       ResumeThread               000000018000e9c6 f   kernel32:KERNEL32.dll
 0001:0000d9cc       GetProcessId               000000018000e9cc f   kernel32:KERNEL32.dll
 0001:0000d9d2       GetProcAddress             000000018000e9d2 f   kernel32:KERNEL32.dll
 0001:0000d9d8       LoadLibraryW               000000018000e9d8 f   kernel32:KERNEL32.dll
 0001:0000d9de       CreateToolhelp32Snapshot   000000018000e9de f   kernel32:KERNEL32.dll
 0001:0000d9e4       Thread32First              000000018000e9e4 f   kernel32:KERNEL32.dll
 0001:0000d9ea       Thread32Next               000000018000e9ea f   kernel32:KERNEL32.dll
 0001:0000d9f0       OutputDebugStringW         000000018000e9f0 f   kernel32:KERNEL32.dll
 0001:0000d9f6       SetUnhandledExceptionFilter 000000018000e9f6 f   kernel32:KERNEL32.dll
 0001:0000d9fc       SetLastError               000000018000e9fc f   kernel32:KERNEL32.dll
 0001:0000da02       SetErrorMode               000000018000ea02 f   kernel32:KERNEL32.dll
 0001:0000da08       EnterCriticalSection       000000018000ea08 f   kernel32:KERNEL32.dll
 0001:0000da0e       LeaveCriticalSection       000000018000ea0e f   kernel32:KERNEL32.dll
 0001:0000da14       InitializeCriticalSectionAndSpinCount 000000018000ea14 f   kernel32:KERNEL32.dll
 0001:0000da1a       WaitForSingleObject        000000018000ea1a f   kernel32:KERNEL32.dll
 0001:0000da20       GetCurrentProcessId        000000018000ea20 f   kernel32:KERNEL32.dll
 0001:0000da26       TerminateProcess           000000018000ea26 f   kernel32:KERNEL32.dll
 0001:0000da2c       CreateProcessW             000000018000ea2c f   kernel32:KERNEL32.dll
 0001:0000da32       FlushInstructionCache      000000018000ea32 f   kernel32:KERNEL32.dll
 0001:0000da38       OpenProcess                000000018000ea38 f   kernel32:KERNEL32.dll
 0001:0000da3e       GetSystemTime              000000018000ea3e f   kernel32:KERNEL32.dll
 0001:0000da44       VirtualProtect             000000018000ea44 f   kernel32:KERNEL32.dll
 0001:0000da4a       VirtualQuery               000000018000ea4a f   kernel32:KERNEL32.dll
 0001:0000da50       FreeLibrary                000000018000ea50 f   kernel32:KERNEL32.dll
 0001:0000da56       GetModuleFileNameW         000000018000ea56 f   kernel32:KERNEL32.dll
 0001:0000da5c       GetModuleHandleW           000000018000ea5c f   kernel32:KERNEL32.dll
 0001:0000da62       LocalFree                  000000018000ea62 f   kernel32:KERNEL32.dll
 0001:0000da68       FormatMessageW             000000018000ea68 f   kernel32:KERNEL32.dll
 0001:0000da6e       WritePrivateProfileStringW 000000018000ea6e f   kernel32:KERNEL32.dll
 0001:0000da74       SystemTimeToFileTime       000000018000ea74 f   kernel32:KERNEL32.dll
 0001:0000da7a       DecodePointer              000000018000ea7a f   kernel32:KERNEL32.dll
 0001:0000da80       RaiseException             000000018000ea80 f   kernel32:KERNEL32.dll
 0001:0000da86       InitializeCriticalSectionEx 000000018000ea86 f   kernel32:KERNEL32.dll
 0001:0000da8c       DeleteCriticalSection      000000018000ea8c f   kernel32:KERNEL32.dll
 0001:0000da92       LoadLibraryExW             000000018000ea92 f   kernel32:KERNEL32.dll
 0001:0000da98       lstrcmpiW                  000000018000ea98 f   kernel32:KERNEL32.dll
 0001:0000da9e       LoadStringW                000000018000ea9e f   user32:USER32.dll
 0001:0000daa4       MessageBoxW                000000018000eaa4 f   user32:USER32.dll
 0001:0000daaa       DestroyWindow              000000018000eaaa f   user32:USER32.dll
 0001:0000dab0       CharNextW                  000000018000eab0 f   user32:USER32.dll
 0001:0000dab6       UnregisterClassW           000000018000eab6 f   user32:USER32.dll
 0001:0000dabc       RegCloseKey                000000018000eabc f   advapi32:ADVAPI32.dll
 0001:0000dac2       RegOpenKeyExW              000000018000eac2 f   advapi32:ADVAPI32.dll
 0001:0000dac8       RegQueryValueExW           000000018000eac8 f   advapi32:ADVAPI32.dll
 0001:0000dace       RegCreateKeyW              000000018000eace f   advapi32:ADVAPI32.dll
 0001:0000dad4       RegOpenKeyW                000000018000ead4 f   advapi32:ADVAPI32.dll
 0001:0000dada       RegSetValueExW             000000018000eada f   advapi32:ADVAPI32.dll
 0001:0000dae0       RegCreateKeyExW            000000018000eae0 f   advapi32:ADVAPI32.dll
 0001:0000dae6       RegDeleteKeyW              000000018000eae6 f   advapi32:ADVAPI32.dll
 0001:0000daec       RegDeleteValueW            000000018000eaec f   advapi32:ADVAPI32.dll
 0001:0000daf2       RegEnumKeyExW              000000018000eaf2 f   advapi32:ADVAPI32.dll
 0001:0000daf8       RegQueryInfoKeyW           000000018000eaf8 f   advapi32:ADVAPI32.dll
 0001:0000dafe       CoCreateInstance           000000018000eafe f   ole32:ole32.dll
 0001:0000db04       CoTaskMemAlloc             000000018000eb04 f   ole32:ole32.dll
 0001:0000db0a       CoTaskMemRealloc           000000018000eb0a f   ole32:ole32.dll
 0001:0000db10       CoTaskMemFree              000000018000eb10 f   ole32:ole32.dll
 0001:0000db16       VarUI4FromStr              000000018000eb16 f   oleaut32:OLEAUT32.dll
 0001:0000db1c       SysFreeString              000000018000eb1c f   oleaut32:OLEAUT32.dll
 0001:0000db24       ??$?2PEAUHINSTANCE__@@@Wrapper@?$CSimpleArray@PEAUHINSTANCE__@@V?$CSimpleArrayEqualHelper@PEAUHINSTANCE__@@@ATL@@@ATL@@SAPEAX_KPEAPEAUHINSTANCE__@@@Z 000000018000eb24 f i atls:atlbase.obj
 0001:0000db28       ??0?$CComCritSecLock@VCComCriticalSection@ATL@@@ATL@@QEAA@AEAVCComCriticalSection@1@_N@Z 000000018000eb28 f i atls:atlbase.obj
 0001:0000db54       ??0?$CSimpleArray@PEAUHINSTANCE__@@V?$CSimpleArrayEqualHelper@PEAUHINSTANCE__@@@ATL@@@ATL@@QEAA@XZ 000000018000eb54 f i atls:atlbase.obj
 0001:0000db64       ??0CAtlBaseModule@ATL@@QEAA@XZ 000000018000eb64 f   atls:atlbase.obj
 0001:0000dc0c       ??0CComCriticalSection@ATL@@QEAA@XZ 000000018000ec0c f i atls:atlbase.obj
 0001:0000dc2c       ??0Wrapper@?$CSimpleArray@PEAUHINSTANCE__@@V?$CSimpleArrayEqualHelper@PEAUHINSTANCE__@@@ATL@@@ATL@@QEAA@AEBQEAUHINSTANCE__@@@Z 000000018000ec2c f i atls:atlbase.obj
 0001:0000dc38       ??0_ATL_BASE_MODULE70@ATL@@QEAA@XZ 000000018000ec38 f i atls:atlbase.obj
 0001:0000dc64       ??1?$CComCritSecLock@VCComCriticalSection@ATL@@@ATL@@QEAA@XZ 000000018000ec64 f i atls:atlbase.obj
 0001:0000dc88       ??1?$CSimpleArray@PEAUHINSTANCE__@@V?$CSimpleArrayEqualHelper@PEAUHINSTANCE__@@@ATL@@@ATL@@QEAA@XZ 000000018000ec88 f i atls:atlbase.obj
 0001:0000dcb0       ??1CAtlBaseModule@ATL@@QEAA@XZ 000000018000ecb0 f   atls:atlbase.obj
 0001:0000dce4       ??1CComCriticalSection@ATL@@QEAA@XZ 000000018000ece4 f i atls:atlbase.obj
 0001:0000dce8       ??1_ATL_BASE_MODULE70@ATL@@QEAA@XZ 000000018000ece8 f i atls:atlbase.obj
 0001:0000dd14       ??A?$CSimpleArray@PEAUHINSTANCE__@@V?$CSimpleArrayEqualHelper@PEAUHINSTANCE__@@@ATL@@@ATL@@QEAAAEAPEAUHINSTANCE__@@H@Z 000000018000ed14 f i atls:atlbase.obj
 0001:0000dd40       ?Add@?$CSimpleArray@PEAUHINSTANCE__@@V?$CSimpleArrayEqualHelper@PEAUHINSTANCE__@@@ATL@@@ATL@@QEAAHAEBQEAUHINSTANCE__@@@Z 000000018000ed40 f i atls:atlbase.obj
 0001:0000ddf4       ?AddResourceInstance@CAtlBaseModule@ATL@@QEAA_NPEAUHINSTANCE__@@@Z 000000018000edf4 f   atls:atlbase.obj
 0001:0000de3c       ?AtlCrtErrorCheck@ATL@@YAHH@Z 000000018000ee3c f i atls:atlbase.obj
 0001:0000de80       ?GetHInstanceAt@CAtlBaseModule@ATL@@QEAAPEAUHINSTANCE__@@H@Z 000000018000ee80 f   atls:atlbase.obj
 0001:0000def8       ?GetSize@?$CSimpleArray@PEAUHINSTANCE__@@V?$CSimpleArrayEqualHelper@PEAUHINSTANCE__@@@ATL@@@ATL@@QEBAHXZ 000000018000eef8 f i atls:atlbase.obj
 0001:0000defc       ?Init@CComCriticalSection@ATL@@QEAAJXZ 000000018000eefc f i atls:atlbase.obj
 0001:0000df30       ?InternalSetAtIndex@?$CSimpleArray@PEAUHINSTANCE__@@V?$CSimpleArrayEqualHelper@PEAUHINSTANCE__@@@ATL@@@ATL@@QEAAXHAEBQEAUHINSTANCE__@@@Z 000000018000ef30 f i atls:atlbase.obj
 0001:0000df48       ?Lock@?$CComCritSecLock@VCComCriticalSection@ATL@@@ATL@@QEAAJXZ 000000018000ef48 f i atls:atlbase.obj
 0001:0000df68       ?Lock@CComCriticalSection@ATL@@QEAAJXZ 000000018000ef68 f i atls:atlbase.obj
 0001:0000df7c       ?RemoveAll@?$CSimpleArray@PEAUHINSTANCE__@@V?$CSimpleArrayEqualHelper@PEAUHINSTANCE__@@@ATL@@@ATL@@QEAAXXZ 000000018000ef7c f i atls:atlbase.obj
 0001:0000dfa4       ?RemoveAt@?$CSimpleArray@PEAUHINSTANCE__@@V?$CSimpleArrayEqualHelper@PEAUHINSTANCE__@@@ATL@@@ATL@@QEAAHH@Z 000000018000efa4 f i atls:atlbase.obj
 0001:0000e048       ?RemoveResourceInstance@CAtlBaseModule@ATL@@QEAA_NPEAUHINSTANCE__@@@Z 000000018000f048 f   atls:atlbase.obj
 0001:0000e0c8       ?Term@CComCriticalSection@ATL@@QEAAJXZ 000000018000f0c8 f i atls:atlbase.obj
 0001:0000e0dc       ?Unlock@?$CComCritSecLock@VCComCriticalSection@ATL@@@ATL@@QEAAXXZ 000000018000f0dc f i atls:atlbase.obj
 0001:0000e0f8       ?Unlock@CComCriticalSection@ATL@@QEAAJXZ 000000018000f0f8 f i atls:atlbase.obj
 0001:0000e10c       ?memmove_s@Checked@ATL@@YAXPEAX_KPEBX1@Z 000000018000f10c f i atls:atlbase.obj
 0001:0000e160       HRESULT_FROM_WIN32         000000018000f160 f i atls:atlbase.obj
 0001:0000e1c4       ??0?$CTraceCategoryEx@$00$0A@@ATL@@QEAA@PEB_W@Z 000000018000f1c4 f i atls:stdafx.obj
 0001:0000e1c8       ??0?$CTraceCategoryEx@$01$0A@@ATL@@QEAA@PEB_W@Z 000000018000f1c8 f i atls:stdafx.obj
 0001:0000e1cc       ??0?$CTraceCategoryEx@$03$0A@@ATL@@QEAA@PEB_W@Z 000000018000f1cc f i atls:stdafx.obj
 0001:0000e1d0       ??0?$CTraceCategoryEx@$07$0A@@ATL@@QEAA@PEB_W@Z 000000018000f1d0 f i atls:stdafx.obj
 0001:0000e1d4       ??0?$CTraceCategoryEx@$0BA@$0A@@ATL@@QEAA@PEB_W@Z 000000018000f1d4 f i atls:stdafx.obj
 0001:0000e1d8       ??0?$CTraceCategoryEx@$0BAA@$0A@@ATL@@QEAA@PEB_W@Z 000000018000f1d8 f i atls:stdafx.obj
 0001:0000e1dc       ??0?$CTraceCategoryEx@$0BAAA@$0A@@ATL@@QEAA@PEB_W@Z 000000018000f1dc f i atls:stdafx.obj
 0001:0000e1e0       ??0?$CTraceCategoryEx@$0BAAAA@$0A@@ATL@@QEAA@PEB_W@Z 000000018000f1e0 f i atls:stdafx.obj
 0001:0000e1e4       ??0?$CTraceCategoryEx@$0BAAAAA@$0A@@ATL@@QEAA@PEB_W@Z 000000018000f1e4 f i atls:stdafx.obj
 0001:0000e1e8       ??0?$CTraceCategoryEx@$0CA@$0A@@ATL@@QEAA@PEB_W@Z 000000018000f1e8 f i atls:stdafx.obj
 0001:0000e1ec       ??0?$CTraceCategoryEx@$0CAA@$0A@@ATL@@QEAA@PEB_W@Z 000000018000f1ec f i atls:stdafx.obj
 0001:0000e1f0       ??0?$CTraceCategoryEx@$0CAAA@$0A@@ATL@@QEAA@PEB_W@Z 000000018000f1f0 f i atls:stdafx.obj
 0001:0000e1f4       ??0?$CTraceCategoryEx@$0CAAAA@$0A@@ATL@@QEAA@PEB_W@Z 000000018000f1f4 f i atls:stdafx.obj
 0001:0000e1f8       ??0?$CTraceCategoryEx@$0CAAAAA@$0A@@ATL@@QEAA@PEB_W@Z 000000018000f1f8 f i atls:stdafx.obj
 0001:0000e1fc       ??0?$CTraceCategoryEx@$0EA@$0A@@ATL@@QEAA@PEB_W@Z 000000018000f1fc f i atls:stdafx.obj
 0001:0000e200       ??0?$CTraceCategoryEx@$0EAA@$0A@@ATL@@QEAA@PEB_W@Z 000000018000f200 f i atls:stdafx.obj
 0001:0000e204       ??0?$CTraceCategoryEx@$0EAAA@$0A@@ATL@@QEAA@PEB_W@Z 000000018000f204 f i atls:stdafx.obj
 0001:0000e208       ??0?$CTraceCategoryEx@$0EAAAA@$0A@@ATL@@QEAA@PEB_W@Z 000000018000f208 f i atls:stdafx.obj
 0001:0000e20c       ??0?$CTraceCategoryEx@$0EAAAAA@$0A@@ATL@@QEAA@PEB_W@Z 000000018000f20c f i atls:stdafx.obj
 0001:0000e210       ??0?$CTraceCategoryEx@$0IA@$0A@@ATL@@QEAA@PEB_W@Z 000000018000f210 f i atls:stdafx.obj
 0001:0000e214       ??0?$CTraceCategoryEx@$0IAA@$0A@@ATL@@QEAA@PEB_W@Z 000000018000f214 f i atls:stdafx.obj
 0001:0000e218       ??0?$CTraceCategoryEx@$0IAAA@$0A@@ATL@@QEAA@PEB_W@Z 000000018000f218 f i atls:stdafx.obj
 0001:0000e21c       ??0?$CTraceCategoryEx@$0IAAAA@$0A@@ATL@@QEAA@PEB_W@Z 000000018000f21c f i atls:stdafx.obj
 0001:0000e220       ??_I@YAXPEAX_K1P6AX0@Z@Z   000000018000f220 f i atls:stdafx.obj
 0001:0000e278       ??0bad_alloc@std@@QEAA@XZ  000000018000f278 f i libcpmt:xthrow.obj
 0001:0000e298       ??0bad_function_call@std@@QEAA@AEBV01@@Z 000000018000f298 f i libcpmt:xthrow.obj
 0001:0000e2d4       ??0bad_function_call@std@@QEAA@XZ 000000018000f2d4 f i libcpmt:xthrow.obj
 0001:0000e2ec       ??0exception@std@@QEAA@QEBD@Z 000000018000f2ec f i libcpmt:xthrow.obj
 0001:0000e32c       ??0exception@std@@QEAA@QEBDH@Z 000000018000f32c f i libcpmt:xthrow.obj
 0001:0000e344       ??0exception@std@@QEAA@XZ  000000018000f344 f i libcpmt:xthrow.obj
 0001:0000e35c       ??0invalid_argument@std@@QEAA@AEBV01@@Z 000000018000f35c f i libcpmt:xthrow.obj
 0001:0000e398       ??0invalid_argument@std@@QEAA@PEBD@Z 000000018000f398 f i libcpmt:xthrow.obj
 0001:0000e3e0       ??0length_error@std@@QEAA@AEBV01@@Z 000000018000f3e0 f i libcpmt:xthrow.obj
 0001:0000e41c       ??0length_error@std@@QEAA@PEBD@Z 000000018000f41c f i libcpmt:xthrow.obj
 0001:0000e464       ??0logic_error@std@@QEAA@AEBV01@@Z 000000018000f464 f i libcpmt:xthrow.obj
 0001:0000e4a0       ??0logic_error@std@@QEAA@PEBD@Z 000000018000f4a0 f i libcpmt:xthrow.obj
 0001:0000e4e8       ??0out_of_range@std@@QEAA@AEBV01@@Z 000000018000f4e8 f i libcpmt:xthrow.obj
 0001:0000e524       ??0out_of_range@std@@QEAA@PEBD@Z 000000018000f524 f i libcpmt:xthrow.obj
 0001:0000e56c       ??0overflow_error@std@@QEAA@AEBV01@@Z 000000018000f56c f i libcpmt:xthrow.obj
 0001:0000e5a8       ??0overflow_error@std@@QEAA@PEBD@Z 000000018000f5a8 f i libcpmt:xthrow.obj
 0001:0000e5f0       ??0regex_error@std@@QEAA@AEBV01@@Z 000000018000f5f0 f i libcpmt:xthrow.obj
 0001:0000e63c       ??0regex_error@std@@QEAA@W4error_type@regex_constants@1@@Z 000000018000f63c f i libcpmt:xthrow.obj
 0001:0000e6a0       ??0runtime_error@std@@QEAA@AEBV01@@Z 000000018000f6a0 f i libcpmt:xthrow.obj
 0001:0000e6dc       ??0runtime_error@std@@QEAA@PEBD@Z 000000018000f6dc f i libcpmt:xthrow.obj
 0001:0000e724       ??1bad_alloc@std@@UEAA@XZ  000000018000f724 f i libcpmt:xthrow.obj
 0001:0000e738       ??1bad_function_call@std@@UEAA@XZ 000000018000f738 f i libcpmt:xthrow.obj
 0001:0000e74c       ??1invalid_argument@std@@UEAA@XZ 000000018000f74c f i libcpmt:xthrow.obj
 0001:0000e760       ??1length_error@std@@UEAA@XZ 000000018000f760 f i libcpmt:xthrow.obj
 0001:0000e774       ??1logic_error@std@@UEAA@XZ 000000018000f774 f i libcpmt:xthrow.obj
 0001:0000e788       ??1out_of_range@std@@UEAA@XZ 000000018000f788 f i libcpmt:xthrow.obj
 0001:0000e79c       ??1overflow_error@std@@UEAA@XZ 000000018000f79c f i libcpmt:xthrow.obj
 0001:0000e7b0       ??1regex_error@std@@UEAA@XZ 000000018000f7b0 f i libcpmt:xthrow.obj
 0001:0000e7c4       ??1runtime_error@std@@UEAA@XZ 000000018000f7c4 f i libcpmt:xthrow.obj
 0001:0000e7d8       ??_Ebad_function_call@std@@UEAAPEAXI@Z 000000018000f7d8 f i libcpmt:xthrow.obj
 0001:0000e7d8       ??_Gbad_function_call@std@@UEAAPEAXI@Z 000000018000f7d8 f i libcpmt:xthrow.obj
 0001:0000e81c       ??_Ginvalid_argument@std@@UEAAPEAXI@Z 000000018000f81c f i libcpmt:xthrow.obj
 0001:0000e81c       ??_Einvalid_argument@std@@UEAAPEAXI@Z 000000018000f81c f i libcpmt:xthrow.obj
 0001:0000e860       ??_Glength_error@std@@UEAAPEAXI@Z 000000018000f860 f i libcpmt:xthrow.obj
 0001:0000e860       ??_Elength_error@std@@UEAAPEAXI@Z 000000018000f860 f i libcpmt:xthrow.obj
 0001:0000e8a4       ??_Elogic_error@std@@UEAAPEAXI@Z 000000018000f8a4 f i libcpmt:xthrow.obj
 0001:0000e8a4       ??_Glogic_error@std@@UEAAPEAXI@Z 000000018000f8a4 f i libcpmt:xthrow.obj
 0001:0000e8e8       ??_Gout_of_range@std@@UEAAPEAXI@Z 000000018000f8e8 f i libcpmt:xthrow.obj
 0001:0000e8e8       ??_Eout_of_range@std@@UEAAPEAXI@Z 000000018000f8e8 f i libcpmt:xthrow.obj
 0001:0000e92c       ??_Goverflow_error@std@@UEAAPEAXI@Z 000000018000f92c f i libcpmt:xthrow.obj
 0001:0000e92c       ??_Eoverflow_error@std@@UEAAPEAXI@Z 000000018000f92c f i libcpmt:xthrow.obj
 0001:0000e970       ??_Eregex_error@std@@UEAAPEAXI@Z 000000018000f970 f i libcpmt:xthrow.obj
 0001:0000e970       ??_Gregex_error@std@@UEAAPEAXI@Z 000000018000f970 f i libcpmt:xthrow.obj
 0001:0000e9b4       ??_Gruntime_error@std@@UEAAPEAXI@Z 000000018000f9b4 f i libcpmt:xthrow.obj
 0001:0000e9b4       ??_Eruntime_error@std@@UEAAPEAXI@Z 000000018000f9b4 f i libcpmt:xthrow.obj
 0001:0000e9f8       ?_Stringify@regex_error@std@@CAPEBDW4error_type@regex_constants@2@@Z 000000018000f9f8 f i libcpmt:xthrow.obj
 0001:0000eac4       ?_Xbad_alloc@std@@YAXXZ    000000018000fac4 f   libcpmt:xthrow.obj
 0001:0000eae4       ?_Xbad_function_call@std@@YAXXZ 000000018000fae4 f   libcpmt:xthrow.obj
 0001:0000eb04       ?_Xinvalid_argument@std@@YAXPEBD@Z 000000018000fb04 f   libcpmt:xthrow.obj
 0001:0000eb28       ?_Xlength_error@std@@YAXPEBD@Z 000000018000fb28 f   libcpmt:xthrow.obj
 0001:0000eb4c       ?_Xout_of_range@std@@YAXPEBD@Z 000000018000fb4c f   libcpmt:xthrow.obj
 0001:0000eb70       ?_Xoverflow_error@std@@YAXPEBD@Z 000000018000fb70 f   libcpmt:xthrow.obj
 0001:0000eb94       ?_Xregex_error@std@@YAXW4error_type@regex_constants@1@@Z 000000018000fb94 f   libcpmt:xthrow.obj
 0001:0000ebb8       ?_Xruntime_error@std@@YAXPEBD@Z 000000018000fbb8 f   libcpmt:xthrow.obj
 0001:0000ebdc       ?what@bad_function_call@std@@UEBAPEBDXZ 000000018000fbdc f i libcpmt:xthrow.obj
 0001:0000ebe4       ??2@YAPEAX_K@Z             000000018000fbe4 f   LIBCMT:new_scalar.obj
 0001:0000ec20       ??3@YAXPEAX_K@Z            000000018000fc20 f   LIBCMT:delete_scalar_size.obj
 0001:0000ec28       ?configure_argv@__scrt_narrow_argv_policy@@SAHXZ 000000018000fc28 f i LIBCMT:utility.obj
 0001:0000ec88       ?initialize_environment@__scrt_narrow_environment_policy@@SAHXZ 000000018000fc88 f i LIBCMT:utility.obj
 0001:0000ecc0       NtCurrentTeb               000000018000fcc0 f i LIBCMT:utility.obj
 0001:0000eccc       __scrt_acquire_startup_lock 000000018000fccc f   LIBCMT:utility.obj
 0001:0000ed08       __scrt_dllmain_after_initialize_c 000000018000fd08 f   LIBCMT:utility.obj
 0001:0000ed3c       __scrt_dllmain_before_initialize_c 000000018000fd3c f   LIBCMT:utility.obj
 0001:0000ed54       __scrt_dllmain_crt_thread_attach 000000018000fd54 f   LIBCMT:utility.obj
 0001:0000ed7c       __scrt_dllmain_crt_thread_detach 000000018000fd7c f   LIBCMT:utility.obj
 0001:0000ed94       __scrt_dllmain_exception_filter 000000018000fd94 f   LIBCMT:utility.obj
 0001:0000edf4       __scrt_dllmain_uninitialize_c 000000018000fdf4 f   LIBCMT:utility.obj
 0001:0000ee24       __scrt_dllmain_uninitialize_critical 000000018000fe24 f   LIBCMT:utility.obj
 0001:0000ee38       __scrt_initialize_crt      000000018000fe38 f   LIBCMT:utility.obj
 0001:0000ee84       __scrt_initialize_onexit_tables 000000018000fe84 f   LIBCMT:utility.obj
 0001:0000ef10       __scrt_is_nonwritable_in_current_image 000000018000ff10 f   LIBCMT:utility.obj
 0001:0000efa8       __scrt_release_startup_lock 000000018000ffa8 f   LIBCMT:utility.obj
 0001:0000efcc       __scrt_uninitialize_crt    000000018000ffcc f   LIBCMT:utility.obj
 0001:0000eff8       _onexit                    000000018000fff8 f   LIBCMT:utility.obj
 0001:0000f034       at_quick_exit              0000000180010034 f   LIBCMT:utility.obj
 0001:0000f054       atexit                     0000000180010054 f   LIBCMT:utility.obj
 0001:0000f21c       _Init_thread_abort         000000018001021c f   LIBCMT:thread_safe_statics.obj
 0001:0000f24c       _Init_thread_footer        000000018001024c f   LIBCMT:thread_safe_statics.obj
 0001:0000f2ac       _Init_thread_header        00000001800102ac f   LIBCMT:thread_safe_statics.obj
 0001:0000f314       _Init_thread_lock          0000000180010314 f   LIBCMT:thread_safe_statics.obj
 0001:0000f324       _Init_thread_notify        0000000180010324 f   LIBCMT:thread_safe_statics.obj
 0001:0000f368       _Init_thread_unlock        0000000180010368 f   LIBCMT:thread_safe_statics.obj
 0001:0000f378       _Init_thread_wait          0000000180010378 f   LIBCMT:thread_safe_statics.obj
 0001:0000f3dc       __GSHandlerCheck           00000001800103dc f   LIBCMT:gshandler.obj
 0001:0000f3fc       __GSHandlerCheckCommon     00000001800103fc f   LIBCMT:gshandler.obj
 0001:0000f458       __GSHandlerCheck_EH4       0000000180010458 f   LIBCMT:gshandlereh4.obj
 0001:0000f4f0       __chkstk                   00000001800104f0 f   LIBCMT:chkstk.obj
 0001:0000f4f0       _alloca_probe              00000001800104f0 f   LIBCMT:chkstk.obj
 0001:0000f550       __security_check_cookie    0000000180010550 f   LIBCMT:amdsecgs.obj
 0001:0000f570       ??1type_info@@UEAA@XZ      0000000180010570 f   LIBCMT:std_type_info_static.obj
 0001:0000f57c       ??_Gtype_info@@UEAAPEAXI@Z 000000018001057c f i LIBCMT:std_type_info_static.obj
 0001:0000f57c       ??_Etype_info@@UEAAPEAXI@Z 000000018001057c f i LIBCMT:std_type_info_static.obj
 0001:0000f5a8       ??3@YAXPEAX@Z              00000001800105a8 f   LIBCMT:delete_scalar.obj
 0001:0000f5b0       ??_M@YAXPEAX_K1P6AX0@Z@Z   00000001800105b0 f   LIBCMT:ehvecdtr.obj
 0001:0000f61c       ??_M@YAXPEAX_KHP6AX0@Z@Z   000000018001061c f   LIBCMT:ehvecdtr.obj
 0001:0000f664       ?__ArrayUnwind@@YAXPEAX_K1P6AX0@Z@Z 0000000180010664 f   LIBCMT:ehvecdtr.obj
 0001:0000f6c8       ??_V@YAXPEAX_K@Z           00000001800106c8 f   LIBCMT:delete_array_size.obj
 0001:0000f6d0       ??_U@YAPEAX_K@Z            00000001800106d0 f   LIBCMT:new_array.obj
 0001:0000f6d8       ??_V@YAXPEAX@Z             00000001800106d8 f   LIBCMT:delete_array.obj
 0001:0000f6e0       __raise_securityfailure    00000001800106e0 f   LIBCMT:gs_report.obj
 0001:0000f714       __report_gsfailure         0000000180010714 f   LIBCMT:gs_report.obj
 0001:0000f7e8       __report_rangecheckfailure 00000001800107e8 f   LIBCMT:gs_report.obj
 0001:0000f7fc       __report_securityfailure   00000001800107fc f   LIBCMT:gs_report.obj
 0001:0000f898       __report_securityfailureEx 0000000180010898 f   LIBCMT:gs_report.obj
 0001:0000fa8c       ??_U@YAPEAX_KAEBUnothrow_t@std@@@Z 0000000180010a8c f   LIBCMT:new_array_nothrow.obj
 0001:0000fdd0       _CRT_INIT                  0000000180010dd0 f   LIBCMT:dll_dllmain.obj
 0001:0000fdd8       _DllMainCRTStartup         0000000180010dd8 f   LIBCMT:dll_dllmain.obj
 0001:0000fe18       _guard_check_icall_nop     0000000180010e18 f i LIBCMT:guard_support.obj
 0001:0000fe1c       ReadNoFence64              0000000180010e1c f i LIBCMT:guard_support.obj
 0001:0000fe20       ReadPointerNoFence         0000000180010e20 f i LIBCMT:guard_support.obj
 0001:0000fe24       __castguard_check_failure_debugbreak 0000000180010e24 f i LIBCMT:guard_support.obj
 0001:0000fe40       __castguard_check_failure_fastfail 0000000180010e40 f i LIBCMT:guard_support.obj
 0001:0000fe64       __castguard_check_failure_nop 0000000180010e64 f i LIBCMT:guard_support.obj
 0001:0000fe68       __castguard_check_failure_os_handled 0000000180010e68 f i LIBCMT:guard_support.obj
 0001:0000fec8       __castguard_slow_path_check_debugbreak 0000000180010ec8 f i LIBCMT:guard_support.obj
 0001:0000fefc       __castguard_slow_path_check_fastfail 0000000180010efc f i LIBCMT:guard_support.obj
 0001:0000ff38       __castguard_slow_path_check_nop 0000000180010f38 f i LIBCMT:guard_support.obj
 0001:0000ff3c       __castguard_slow_path_check_os_handled 0000000180010f3c f i LIBCMT:guard_support.obj
 0001:0000ffb0       _guard_icall_checks_enforced 0000000180010fb0 f i LIBCMT:guard_support.obj
 0001:0000ffc8       _guard_rf_checks_enforced  0000000180010fc8 f i LIBCMT:guard_support.obj
 0001:0000ffcc       ??0bad_alloc@std@@AEAA@QEBD@Z 0000000180010fcc f i LIBCMT:throw_bad_alloc.obj
 0001:0000ffe4       ?__scrt_throw_std_bad_alloc@@YAXXZ 0000000180010fe4 f   LIBCMT:throw_bad_alloc.obj
 0001:00010004       ?__scrt_throw_std_bad_array_new_length@@YAXXZ 0000000180011004 f   LIBCMT:throw_bad_alloc.obj
 0001:00010024       __isa_available_init       0000000180011024 f   LIBCMT:cpu_disp.obj
 0001:000101c8       _get_startup_argv_mode     00000001800111c8 f   LIBCMT:argv_mode.obj
 0001:000101d0       __scrt_is_ucrt_dll_in_use  00000001800111d0 f   LIBCMT:ucrt_detection.obj
 0001:000101dc       __crt_debugger_hook        00000001800111dc f   LIBCMT:utility_desktop.obj
 0001:000101e4       __scrt_fastfail            00000001800111e4 f   LIBCMT:utility_desktop.obj
 0001:00010330       __scrt_get_show_window_mode 0000000180011330 f   LIBCMT:utility_desktop.obj
 0001:0001036c       __scrt_initialize_mta      000000018001136c f   LIBCMT:utility_desktop.obj
 0001:00010374       __scrt_initialize_winrt    0000000180011374 f   LIBCMT:utility_desktop.obj
 0001:00010378       __scrt_is_managed_app      0000000180011378 f   LIBCMT:utility_desktop.obj
 0001:000103cc       __scrt_set_unhandled_exception_filter 00000001800113cc f   LIBCMT:utility_desktop.obj
 0001:000103dc       __scrt_exe_initialize_mta  00000001800113dc f   LIBCMT:utility_desktop.obj
 0001:000103dc       __scrt_stub_for_initialize_mta 00000001800113dc f   LIBCMT:utility_desktop.obj
 0001:000103e0       __scrt_unhandled_exception_filter 00000001800113e0 f   LIBCMT:utility_desktop.obj
 0001:0001043c       ??2@YAPEAX_KAEBUnothrow_t@std@@@Z 000000018001143c f   LIBCMT:new_scalar_nothrow.obj
 0001:000104bc       __security_init_cookie     00000001800114bc f   LIBCMT:gs_support.obj
 0001:00010568       ?__scrt_initialize_type_info@@YAXXZ 0000000180011568 f   LIBCMT:tncleanup.obj
 0001:00010578       ?__scrt_uninitialize_type_info@@YAXXZ 0000000180011578 f   LIBCMT:tncleanup.obj
 0001:00010584       __local_stdio_scanf_options 0000000180011584 f i LIBCMT:default_local_stdio_options.obj
 0001:0001058c       __scrt_initialize_default_local_stdio_options 000000018001158c f   LIBCMT:default_local_stdio_options.obj
 0001:000105a8       __scrt_get_dyn_tls_init_callback 00000001800115a8 f   LIBCMT:dyn_tls_init.obj
 0001:000105b0       _RTC_Initialize            00000001800115b0 f   LIBCMT:initsect.obj
 0001:000105ec       _RTC_Terminate             00000001800115ec f   LIBCMT:initsect.obj
 0001:00010630       RpcStringFreeW             0000000180011630 f   Rpcrt4:RPCRT4.dll
 0001:00010636       UuidCreate                 0000000180011636 f   Rpcrt4:RPCRT4.dll
 0001:0001063c       UuidToStringW              000000018001163c f   Rpcrt4:RPCRT4.dll
 0001:00010660       memcpy_repmovs             0000000180011660 f   libvcruntime:memcpy.obj
 0001:00010680       memcpy                     0000000180011680 f   libvcruntime:memcpy.obj
 0001:00010680       memmove                    0000000180011680 f   libvcruntime:memcpy.obj
 0001:00010d10       memset_repmovs             0000000180011d10 f   libvcruntime:memset.obj
 0001:00010d30       memset                     0000000180011d30 f   libvcruntime:memset.obj
 0001:00010ec0       wcsstr                     0000000180011ec0 f   libvcruntime:wcsstr.obj
 0001:000110d8       ??$?RD@__crt_public_free_policy@@QEBAXQEBD@Z 00000001800120d8 f i libvcruntime:std_exception.obj
 0001:000110e0       ??0?$__crt_unique_heap_ptr@DU__crt_public_free_policy@@@@QEAA@QEAD@Z 00000001800120e0 f i libvcruntime:std_exception.obj
 0001:000110e8       ??1?$__crt_unique_heap_ptr@DU__crt_public_free_policy@@@@QEAA@XZ 00000001800120e8 f i libvcruntime:std_exception.obj
 0001:00011104       ??B?$__crt_unique_heap_ptr@DU__crt_public_free_policy@@@@QEBA_NXZ 0000000180012104 f i libvcruntime:std_exception.obj
 0001:0001110c       ?detach@?$__crt_unique_heap_ptr@DU__crt_public_free_policy@@@@QEAAPEADXZ 000000018001210c f i libvcruntime:std_exception.obj
 0001:00011114       ?get@?$__crt_unique_heap_ptr@DU__crt_public_free_policy@@@@QEBAPEADXZ 0000000180012114 f i libvcruntime:std_exception.obj
 0001:00011118       ?is_valid@?$__crt_unique_heap_ptr@DU__crt_public_free_policy@@@@QEBA_NXZ 0000000180012118 f i libvcruntime:std_exception.obj
 0001:00011120       ?release@?$__crt_unique_heap_ptr@DU__crt_public_free_policy@@@@QEAAXXZ 0000000180012120 f i libvcruntime:std_exception.obj
 0001:0001113c       __std_exception_copy       000000018001213c f   libvcruntime:std_exception.obj
 0001:000111cc       __std_exception_destroy    00000001800121cc f   libvcruntime:std_exception.obj
 0001:000111f4       _CxxThrowException         00000001800121f4 f   libvcruntime:throw.obj
 0001:00011294       ??$?0AEAViterator@TryBlockMap4@FH4@@AEAV012@$0A@@?$pair@Viterator@TryBlockMap4@FH4@@V123@@std@@QEAA@AEAViterator@TryBlockMap4@FH4@@0@Z 0000000180012294 f i libvcruntime:risctrnsctrl.obj
 0001:000112a8       ??$?0AEAViterator@TryBlockMap@__FrameHandler3@@AEAV012@$0A@@?$pair@Viterator@TryBlockMap@__FrameHandler3@@V123@@std@@QEAA@AEAViterator@TryBlockMap@__FrameHandler3@@0@Z 00000001800122a8 f i libvcruntime:risctrnsctrl.obj
 0001:000113f8       ??$_CallSETranslator@V__FrameHandler3@@@@YAHPEAUEHExceptionRecord@@PEA_KPEAU_CONTEXT@@PEAU_xDISPATCHER_CONTEXT@@PEBU_s_FuncInfo@@K1H@Z 00000001800123f8 f i libvcruntime:risctrnsctrl.obj
 0001:0001144c       ??$_CallSETranslator@V__FrameHandler4@@@@YAHPEAUEHExceptionRecord@@PEA_KPEAU_CONTEXT@@PEAU_xDISPATCHER_CONTEXT@@PEAUFuncInfo4@FH4@@K1H@Z 000000018001244c f i libvcruntime:risctrnsctrl.obj
 0001:000114a0       ??$forward@AEAViterator@TryBlockMap4@FH4@@@std@@YAAEAViterator@TryBlockMap4@FH4@@AEAV123@@Z 00000001800124a0 f i libvcruntime:risctrnsctrl.obj
 0001:000114a4       ??$forward@AEAViterator@TryBlockMap@__FrameHandler3@@@std@@YAAEAViterator@TryBlockMap@__FrameHandler3@@AEAV123@@Z 00000001800124a4 f i libvcruntime:risctrnsctrl.obj
 0001:000114a8       ??0FuncInfo4@FH4@@QEAA@XZ  00000001800124a8 f i libvcruntime:risctrnsctrl.obj
 0001:000114bc       ??0FuncInfoHeader@FH4@@QEAA@XZ 00000001800124bc f i libvcruntime:risctrnsctrl.obj
 0001:000114c4       ??0iterator@TryBlockMap4@FH4@@QEAA@AEAV12@I@Z 00000001800124c4 f i libvcruntime:risctrnsctrl.obj
 0001:000114d0       ??0iterator@TryBlockMap@__FrameHandler3@@QEAA@AEAV12@I@Z 00000001800124d0 f i libvcruntime:risctrnsctrl.obj
 0001:000114dc       ??4iterator@TryBlockMap4@FH4@@QEAAAEAV012@AEBV012@@Z 00000001800124dc f i libvcruntime:risctrnsctrl.obj
 0001:000114e8       ??9iterator@TryBlockMap4@FH4@@QEBA_NAEBV012@@Z 00000001800124e8 f i libvcruntime:risctrnsctrl.obj
 0001:000114f4       ??Diterator@TryBlockMap4@FH4@@QEAA?AUTryBlockMapEntry4@2@XZ 00000001800124f4 f i libvcruntime:risctrnsctrl.obj
 0001:00011504       ??Eiterator@TryBlockMap4@FH4@@QEAAAEAV012@XZ 0000000180012504 f i libvcruntime:risctrnsctrl.obj
 0001:000115a0       ?CatchTryBlock@__FrameHandler3@@SAPEBU_s_TryBlockMapEntry@@PEBU_s_FuncInfo@@H@Z 00000001800125a0 f   libvcruntime:risctrnsctrl.obj
 0001:000115f4       ?DecompFuncInfo@FH4@@YA_JPEAEAEAUFuncInfo4@1@_KH@Z 00000001800125f4 f i libvcruntime:risctrnsctrl.obj
 0001:00011608       ?DecompFuncInfo@FH4@@YA_JPEAEAEAUFuncInfo4@1@_KH_N@Z 0000000180012608 f i libvcruntime:risctrnsctrl.obj
 0001:0001172c       ?DecompTryBlock@TryBlockMap4@FH4@@AEAAXXZ 000000018001272c f i libvcruntime:risctrnsctrl.obj
 0001:000117c0       ?ExecutionInCatch@__FrameHandler3@@SA_NPEAU_xDISPATCHER_CONTEXT@@PEBU_s_FuncInfo@@@Z 00000001800127c0 f   libvcruntime:risctrnsctrl.obj
 0001:000117ec       ?ExecutionInCatch@__FrameHandler4@@SA_NPEAU_xDISPATCHER_CONTEXT@@PEAUFuncInfo4@FH4@@@Z 00000001800127ec f   libvcruntime:risctrnsctrl.obj
 0001:000117f4       ?FrameUnwindToEmptyState@__FrameHandler3@@SAXPEA_KPEAU_xDISPATCHER_CONTEXT@@PEBU_s_FuncInfo@@@Z 00000001800127f4 f   libvcruntime:risctrnsctrl.obj
 0001:00011858       ?FrameUnwindToEmptyState@__FrameHandler4@@SAXPEA_KPEAU_xDISPATCHER_CONTEXT@@PEAUFuncInfo4@FH4@@@Z 0000000180012858 f   libvcruntime:risctrnsctrl.obj
 0001:0001188c       ?GetEstablisherFrame@__FrameHandler3@@SAPEA_KPEA_KPEAU_xDISPATCHER_CONTEXT@@PEBU_s_FuncInfo@@0@Z 000000018001288c f   libvcruntime:risctrnsctrl.obj
 0001:00011958       ?GetEstablisherFrame@__FrameHandler4@@SAPEA_KPEA_KPEAU_xDISPATCHER_CONTEXT@@PEAUFuncInfo4@FH4@@0@Z 0000000180012958 f   libvcruntime:risctrnsctrl.obj
 0001:0001197c       ?GetRangeOfTrysToCheck@__FrameHandler3@@SA?AU?$pair@Viterator@TryBlockMap@__FrameHandler3@@V123@@std@@AEAVTryBlockMap@1@HPEAU_xDISPATCHER_CONTEXT@@PEBU_s_FuncInfo@@H@Z 000000018001297c f   libvcruntime:risctrnsctrl.obj
 0001:00011abc       ?GetRangeOfTrysToCheck@__FrameHandler4@@SA?AU?$pair@Viterator@TryBlockMap4@FH4@@V123@@std@@AEAVTryBlockMap4@FH4@@HPEAU_xDISPATCHER_CONTEXT@@PEAUFuncInfo4@5@H@Z 0000000180012abc f   libvcruntime:risctrnsctrl.obj
 0001:00011c24       ?ReadInt@FH4@@YAHPEAPEAE@Z 0000000180012c24 f i libvcruntime:risctrnsctrl.obj
 0001:00011c34       ?ReadUnsigned@FH4@@YAIPEAPEAE@Z 0000000180012c34 f i libvcruntime:risctrnsctrl.obj
 0001:00011c64       ?UnwindNestedFrames@__FrameHandler3@@SAXPEA_KPEAUEHExceptionRecord@@PEAU_CONTEXT@@0PEAXPEBU_s_FuncInfo@@HHPEBU_s_HandlerType@@PEAU_xDISPATCHER_CONTEXT@@E@Z 0000000180012c64 f   libvcruntime:risctrnsctrl.obj
 0001:00011d68       ?UnwindNestedFrames@__FrameHandler4@@SAXPEA_KPEAUEHExceptionRecord@@PEAU_CONTEXT@@0PEAXPEAUFuncInfo4@FH4@@HHPEAUHandlerType4@5@PEAU_xDISPATCHER_CONTEXT@@E@Z 0000000180012d68 f   libvcruntime:risctrnsctrl.obj
 0001:00011e88       ?begin@TryBlockMap4@FH4@@QEAA?AViterator@12@XZ 0000000180012e88 f i libvcruntime:risctrnsctrl.obj
 0001:00011e94       ?end@TryBlockMap4@FH4@@QEAA?AViterator@12@XZ 0000000180012e94 f i libvcruntime:risctrnsctrl.obj
 0001:00011ea0       ?imageRelToByteBuffer@FH4@@YAPEAE_KH@Z 0000000180012ea0 f i libvcruntime:risctrnsctrl.obj
 0001:00011ea8       ?incrementToSentinel@iterator@TryBlockMap4@FH4@@QEAAXXZ 0000000180012ea8 f i libvcruntime:risctrnsctrl.obj
 0001:00011eac       ?setBuffer@TryBlockMap4@FH4@@QEAAXViterator@12@@Z 0000000180012eac f i libvcruntime:risctrnsctrl.obj
 0001:0001206c       _CreateFrameInfo           000000018001306c f   libvcruntime:risctrnsctrl.obj
 0001:000120a8       _FindAndUnlinkFrame        00000001800130a8 f   libvcruntime:risctrnsctrl.obj
 0001:000120fc       _GetImageBase              00000001800130fc f   libvcruntime:risctrnsctrl.obj
 0001:00012110       _GetThrowImageBase         0000000180013110 f   libvcruntime:risctrnsctrl.obj
 0001:00012124       _SetImageBase              0000000180013124 f   libvcruntime:risctrnsctrl.obj
 0001:0001213c       _SetThrowImageBase         000000018001313c f   libvcruntime:risctrnsctrl.obj
 0001:00012154       __CxxFrameHandler          0000000180013154 f   libvcruntime:risctrnsctrl.obj
 0001:0001215c       __CxxFrameHandler2         000000018001315c f   libvcruntime:risctrnsctrl.obj
 0001:00012164       __CxxFrameHandler3         0000000180013164 f   libvcruntime:risctrnsctrl.obj
 0001:000121ec       __CxxFrameHandler4         00000001800131ec f   libvcruntime:risctrnsctrl.obj
 0001:000122ac       ??$__crt_interlocked_exchange_pointer@$$A6AXXZP6AXXZ@@YAP6AXXZPEDS6AXXZQ6AXXZ@Z 00000001800132ac f i libvcruntime:purevirt.obj
 0001:000122b4       ??$__crt_interlocked_read_pointer@$$A6AXXZ@@YAP6AXXZPEDS6AXXZ@Z 00000001800132b4 f i libvcruntime:purevirt.obj
 0001:000122bc       ?__crt_interlocked_read_64@@YA_JPED_J@Z 00000001800132bc f i libvcruntime:purevirt.obj
 0001:000122c4       _get_purecall_handler      00000001800132c4 f   libvcruntime:purevirt.obj
 0001:000122d0       _purecall                  00000001800132d0 f   libvcruntime:purevirt.obj
 0001:000122ec       _set_purecall_handler      00000001800132ec f   libvcruntime:purevirt.obj
 0001:00012310       memcmp                     0000000180013310 f   libvcruntime:memcmp.obj
 0001:000123d8       wcsrchr                    00000001800133d8 f   libvcruntime:wcsrchr.obj
 0001:0001249c       _get_unexpected            000000018001349c f   libvcruntime:unexpected.obj
 0001:000124c0       set_unexpected             00000001800134c0 f   libvcruntime:unexpected.obj
 0001:000124ec       unexpected                 00000001800134ec f   libvcruntime:unexpected.obj
 0001:0001250c       __DestructExceptionObject  000000018001350c f   libvcruntime:ehhelpers.obj
 0001:0001257c       ?_CallMemberFunction0@@YAXQEAX0@Z 000000018001357c f i libvcruntime:ehhelpers.obj
 0001:000125d8       ?raw_name@type_info@@QEBAPEBDXZ 00000001800135d8 f i libvcruntime:ehhelpers.obj
 0001:000125e0       _IsExceptionObjectToBeDestroyed 00000001800135e0 f   libvcruntime:ehhelpers.obj
 0001:00012610       _SetWinRTOutOfMemoryExceptionCallback 0000000180013610 f   libvcruntime:ehhelpers.obj
 0001:00012618       __AdjustPointer            0000000180013618 f   libvcruntime:ehhelpers.obj
 0001:0001263c       __FrameUnwindFilter        000000018001363c f   libvcruntime:ehhelpers.obj
 0001:000126a4       __GetPlatformExceptionInfo 00000001800136a4 f   libvcruntime:ehhelpers.obj
 0001:00012700       __current_exception        0000000180013700 f   libvcruntime:ehhelpers.obj
 0001:00012714       __current_exception_context 0000000180013714 f   libvcruntime:ehhelpers.obj
 0001:00012728       __processing_throw         0000000180013728 f   libvcruntime:ehhelpers.obj
 0001:0001273c       __std_terminate            000000018001373c f   libvcruntime:ehhelpers.obj
 0001:00012748       _is_exception_typeof       0000000180013748 f   libvcruntime:ehhelpers.obj
 0001:000127f0       __vcrt_initialize          00000001800137f0 f   libvcruntime:initialization.obj
 0001:00012818       __vcrt_thread_attach       0000000180013818 f   libvcruntime:initialization.obj
 0001:0001282c       __vcrt_thread_detach       000000018001382c f   libvcruntime:initialization.obj
 0001:00012840       __vcrt_uninitialize        0000000180013840 f   libvcruntime:initialization.obj
 0001:0001285c       __vcrt_uninitialize_critical 000000018001385c f   libvcruntime:initialization.obj
 0001:00012870       __C_specific_handler       0000000180013870 f   libvcruntime:riscchandler.obj
 0001:00012a8c       ??$?RD@__crt_internal_free_policy@@QEBAXQEBD@Z 0000000180013a8c f i libvcruntime:std_type_info.obj
 0001:00012a94       ??$?RX@__crt_internal_free_policy@@QEBAXQEBX@Z 0000000180013a94 f i libvcruntime:std_type_info.obj
 0001:00012a9c       ??$__crt_interlocked_compare_exchange_pointer@$$CBDPEAD$$T@@YAPEBDPEDSEBDQEAD$$T@Z 0000000180013a9c f i libvcruntime:std_type_info.obj
 0001:00012aa8       ??$__crt_interlocked_read_pointer@$$CBD@@YAPEBDPEDSEBD@Z 0000000180013aa8 f i libvcruntime:std_type_info.obj
 0001:00012ab0       ??0?$__crt_unique_heap_ptr@DU__crt_internal_free_policy@@@@QEAA@QEAD@Z 0000000180013ab0 f i libvcruntime:std_type_info.obj
 0001:00012ab8       ??0?$__crt_unique_heap_ptr@XU__crt_internal_free_policy@@@@QEAA@QEAX@Z 0000000180013ab8 f i libvcruntime:std_type_info.obj
 0001:00012ac0       ??1?$__crt_unique_heap_ptr@DU__crt_internal_free_policy@@@@QEAA@XZ 0000000180013ac0 f i libvcruntime:std_type_info.obj
 0001:00012adc       ??1?$__crt_unique_heap_ptr@XU__crt_internal_free_policy@@@@QEAA@XZ 0000000180013adc f i libvcruntime:std_type_info.obj
 0001:00012af8       ??B?$__crt_unique_heap_ptr@DU__crt_internal_free_policy@@@@QEBA_NXZ 0000000180013af8 f i libvcruntime:std_type_info.obj
 0001:00012b00       ??B?$__crt_unique_heap_ptr@XU__crt_internal_free_policy@@@@QEBA_NXZ 0000000180013b00 f i libvcruntime:std_type_info.obj
 0001:00012b28       ?detach@?$__crt_unique_heap_ptr@XU__crt_internal_free_policy@@@@QEAAPEAXXZ 0000000180013b28 f i libvcruntime:std_type_info.obj
 0001:00012b30       ?get@?$__crt_unique_heap_ptr@DU__crt_internal_free_policy@@@@QEBAPEADXZ 0000000180013b30 f i libvcruntime:std_type_info.obj
 0001:00012b34       ?get@?$__crt_unique_heap_ptr@XU__crt_internal_free_policy@@@@QEBAPEAXXZ 0000000180013b34 f i libvcruntime:std_type_info.obj
 0001:00012b38       ?is_valid@?$__crt_unique_heap_ptr@DU__crt_internal_free_policy@@@@QEBA_NXZ 0000000180013b38 f i libvcruntime:std_type_info.obj
 0001:00012b40       ?is_valid@?$__crt_unique_heap_ptr@XU__crt_internal_free_policy@@@@QEBA_NXZ 0000000180013b40 f i libvcruntime:std_type_info.obj
 0001:00012b48       ?release@?$__crt_unique_heap_ptr@DU__crt_internal_free_policy@@@@QEAAXXZ 0000000180013b48 f i libvcruntime:std_type_info.obj
 0001:00012b64       ?release@?$__crt_unique_heap_ptr@XU__crt_internal_free_policy@@@@QEAAXXZ 0000000180013b64 f i libvcruntime:std_type_info.obj
 0001:00012b80       __std_type_info_compare    0000000180013b80 f   libvcruntime:std_type_info.obj
 0001:00012ba8       __std_type_info_destroy_list 0000000180013ba8 f   libvcruntime:std_type_info.obj
 0001:00012bd4       __std_type_info_hash       0000000180013bd4 f   libvcruntime:std_type_info.obj
 0001:00012c0c       __std_type_info_name       0000000180013c0c f   libvcruntime:std_type_info.obj
 0001:00012d24       ??$?RU__vcrt_ptd@@@__crt_internal_free_policy@@QEBAXQEBU__vcrt_ptd@@@Z 0000000180013d24 f i libvcruntime:per_thread_data.obj
 0001:00012d2c       ??0?$__crt_unique_heap_ptr@U__vcrt_ptd@@U__crt_internal_free_policy@@@@QEAA@QEAU__vcrt_ptd@@@Z 0000000180013d2c f i libvcruntime:per_thread_data.obj
 0001:00012d50       ??1?$__crt_unique_heap_ptr@U__vcrt_ptd@@U__crt_internal_free_policy@@@@QEAA@XZ 0000000180013d50 f i libvcruntime:per_thread_data.obj
 0001:00012d78       ??B?$__crt_unique_heap_ptr@U__vcrt_ptd@@U__crt_internal_free_policy@@@@QEBA_NXZ 0000000180013d78 f i libvcruntime:per_thread_data.obj
 0001:00012d80       ?detach@?$__crt_unique_heap_ptr@U__vcrt_ptd@@U__crt_internal_free_policy@@@@QEAAPEAU__vcrt_ptd@@XZ 0000000180013d80 f i libvcruntime:per_thread_data.obj
 0001:00012d88       ?get@?$__crt_unique_heap_ptr@U__vcrt_ptd@@U__crt_internal_free_policy@@@@QEBAPEAU__vcrt_ptd@@XZ 0000000180013d88 f i libvcruntime:per_thread_data.obj
 0001:00012d8c       ?is_valid@?$__crt_unique_heap_ptr@U__vcrt_ptd@@U__crt_internal_free_policy@@@@QEBA_NXZ 0000000180013d8c f i libvcruntime:per_thread_data.obj
 0001:00012d94       ?release@?$__crt_unique_heap_ptr@U__vcrt_ptd@@U__crt_internal_free_policy@@@@QEAAXXZ 0000000180013d94 f i libvcruntime:per_thread_data.obj
 0001:00012ddc       __vcrt_freefls             0000000180013ddc f   libvcruntime:per_thread_data.obj
 0001:00012dfc       __vcrt_freeptd             0000000180013dfc f   libvcruntime:per_thread_data.obj
 0001:00012e4c       __vcrt_getptd              0000000180013e4c f   libvcruntime:per_thread_data.obj
 0001:00012e68       __vcrt_getptd_noexit       0000000180013e68 f   libvcruntime:per_thread_data.obj
 0001:00012f28       __vcrt_getptd_noinit       0000000180013f28 f   libvcruntime:per_thread_data.obj
 0001:00012f78       __vcrt_initialize_ptd      0000000180013f78 f   libvcruntime:per_thread_data.obj
 0001:00012fc0       __vcrt_uninitialize_ptd    0000000180013fc0 f   libvcruntime:per_thread_data.obj
 0001:00012fe4       ?GetCurrentState@__FrameHandler3@@SAHPEA_KPEAU_xDISPATCHER_CONTEXT@@PEBU_s_FuncInfo@@@Z 0000000180013fe4 f   libvcruntime:ehstate.obj
 0001:0001300c       ?GetUnwindTryBlock@__FrameHandler3@@SAHPEA_KPEAU_xDISPATCHER_CONTEXT@@PEBU_s_FuncInfo@@@Z 000000018001400c f   libvcruntime:ehstate.obj
 0001:00013038       ?SetState@__FrameHandler3@@SAXPEA_KPEBU_s_FuncInfo@@H@Z 0000000180014038 f   libvcruntime:ehstate.obj
 0001:00013044       ?SetUnwindTryBlock@__FrameHandler3@@SAXPEA_KPEAU_xDISPATCHER_CONTEXT@@PEBU_s_FuncInfo@@H@Z 0000000180014044 f   libvcruntime:ehstate.obj
 0001:00013080       ?StateFromControlPc@__FrameHandler3@@SAHPEBU_s_FuncInfo@@PEAU_xDISPATCHER_CONTEXT@@@Z 0000000180014080 f   libvcruntime:ehstate.obj
 0001:00013088       ?StateFromControlPc@__FrameHandler4@@SAHPEAUFuncInfo4@FH4@@PEAU_xDISPATCHER_CONTEXT@@@Z 0000000180014088 f   libvcruntime:ehstate.obj
 0001:00013090       ?StateFromIp@__FrameHandler3@@SAHPEBU_s_FuncInfo@@PEAU_xDISPATCHER_CONTEXT@@_K@Z 0000000180014090 f   libvcruntime:ehstate.obj
 0001:000130f8       ?StateFromIp@__FrameHandler4@@SAHPEAUFuncInfo4@FH4@@PEAU_xDISPATCHER_CONTEXT@@_K@Z 00000001800140f8 f   libvcruntime:ehstate.obj
 0001:000131e0       ?__FuncRelToRealOffset@@YA_KPEAU_xDISPATCHER_CONTEXT@@I@Z 00000001800141e0 f i libvcruntime:ehstate.obj
 0001:000131f0       ?__RVAtoRealOffset@@YA_KPEAU_xDISPATCHER_CONTEXT@@H@Z 00000001800141f0 f i libvcruntime:ehstate.obj
 0001:000147f8       ??$TypeMatchHelper@V__FrameHandler3@@@@YAHPEBU_s_HandlerType@@PEBU_s_CatchableType@@PEBU_s_ThrowInfo@@@Z 00000001800157f8 f i libvcruntime:frame.obj
 0001:00014938       ??$TypeMatchHelper@V__FrameHandler4@@@@YAHPEAUHandlerType4@FH4@@PEBU_s_CatchableType@@PEBU_s_ThrowInfo@@@Z 0000000180015938 f i libvcruntime:frame.obj
 0001:00014a7c       ??$__InternalCxxFrameHandler@V__FrameHandler3@@@@YA?AW4_EXCEPTION_DISPOSITION@@PEAUEHExceptionRecord@@PEA_KPEAU_CONTEXT@@PEAU_xDISPATCHER_CONTEXT@@PEBU_s_FuncInfo@@H1E@Z 0000000180015a7c f i libvcruntime:frame.obj
 0001:00014cb4       ??$__InternalCxxFrameHandler@V__FrameHandler4@@@@YA?AW4_EXCEPTION_DISPOSITION@@PEAUEHExceptionRecord@@PEA_KPEAU_CONTEXT@@PEAU_xDISPATCHER_CONTEXT@@PEAUFuncInfo4@FH4@@H1E@Z 0000000180015cb4 f i libvcruntime:frame.obj
 0001:00014f48       ??0HandlerMap4@FH4@@QEAA@PEBUTryBlockMapEntry4@1@_KH@Z 0000000180015f48 f i libvcruntime:frame.obj
 0001:00014fc4       ??0HandlerMap@__FrameHandler3@@QEAA@PEBU_s_TryBlockMapEntry@@_KI@Z 0000000180015fc4 f i libvcruntime:frame.obj
 0001:00014fd8       ??0HandlerType4@FH4@@QEAA@XZ 0000000180015fd8 f i libvcruntime:frame.obj
 0001:00014ff0       ??0TryBlockMap4@FH4@@QEAA@PEBUFuncInfo4@1@_K@Z 0000000180015ff0 f i libvcruntime:frame.obj
 0001:000150c8       ??0TryBlockMap@__FrameHandler3@@QEAA@PEBU_s_FuncInfo@@_K@Z 00000001800160c8 f i libvcruntime:frame.obj
 0001:000150d4       ??0UWMap4@FH4@@QEAA@PEBUFuncInfo4@1@_K@Z 00000001800160d4 f i libvcruntime:frame.obj
 0001:00015118       ??0bad_exception@std@@QEAA@AEBV01@@Z 0000000180016118 f i libvcruntime:frame.obj
 0001:00015154       ??0bad_exception@std@@QEAA@XZ 0000000180016154 f i libvcruntime:frame.obj
 0001:00015174       ??0iterator@HandlerMap4@FH4@@QEAA@AEAV12@I@Z 0000000180016174 f i libvcruntime:frame.obj
 0001:00015180       ??0iterator@HandlerMap@__FrameHandler3@@QEAA@AEAV12@I@Z 0000000180016180 f i libvcruntime:frame.obj
 0001:0001518c       ??0iterator@UWMap4@FH4@@QEAA@AEAV12@PEAE@Z 000000018001618c f i libvcruntime:frame.obj
 0001:00015198       ??1bad_exception@std@@UEAA@XZ 0000000180016198 f i libvcruntime:frame.obj
 0001:000151ac       ??4iterator@UWMap4@FH4@@QEAAAEAV012@AEBV012@@Z 00000001800161ac f i libvcruntime:frame.obj
 0001:000151cc       ??8iterator@HandlerMap4@FH4@@QEBA_NAEBV012@@Z 00000001800161cc f i libvcruntime:frame.obj
 0001:000151d8       ??8iterator@HandlerMap@__FrameHandler3@@QEBA_NAEBV012@@Z 00000001800161d8 f i libvcruntime:frame.obj
 0001:000151e4       ??8type_info@@QEBA_NAEBV0@@Z 00000001800161e4 f i libvcruntime:frame.obj
 0001:00015200       ??9iterator@HandlerMap4@FH4@@QEBA_NAEBV012@@Z 0000000180016200 f i libvcruntime:frame.obj
 0001:0001520c       ??9iterator@HandlerMap@__FrameHandler3@@QEBA_NAEBV012@@Z 000000018001620c f i libvcruntime:frame.obj
 0001:00015218       ??Diterator@HandlerMap4@FH4@@QEAA?AUHandlerType4@2@XZ 0000000180016218 f i libvcruntime:frame.obj
 0001:00015238       ??Diterator@HandlerMap@__FrameHandler3@@QEAA?BU_s_HandlerType@@XZ 0000000180016238 f i libvcruntime:frame.obj
 0001:0001525c       ??Diterator@TryBlockMap@__FrameHandler3@@QEAA?BU_s_TryBlockMapEntry@@XZ 000000018001625c f i libvcruntime:frame.obj
 0001:0001528c       ??Diterator@UWMap4@FH4@@QEAA?AUUnwindMapEntry4@2@XZ 000000018001628c f i libvcruntime:frame.obj
 0001:000152e0       ??Eiterator@HandlerMap4@FH4@@QEAAAEAV012@XZ 00000001800162e0 f i libvcruntime:frame.obj
 0001:00015300       ??Eiterator@HandlerMap@__FrameHandler3@@QEAAAEAV012@XZ 0000000180016300 f i libvcruntime:frame.obj
 0001:00015308       ??Eiterator@TryBlockMap@__FrameHandler3@@QEAAAEAV012@XZ 0000000180016308 f i libvcruntime:frame.obj
 0001:00015310       ??Eiterator@UWMap4@FH4@@QEAAAEAV012@XZ 0000000180016310 f i libvcruntime:frame.obj
 0001:00015330       ??Giterator@UWMap4@FH4@@QEBA_JAEBV012@@Z 0000000180016330 f i libvcruntime:frame.obj
 0001:0001533c       ??Miterator@TryBlockMap4@FH4@@QEBA_NAEBV012@@Z 000000018001633c f i libvcruntime:frame.obj
 0001:00015348       ??Miterator@TryBlockMap@__FrameHandler3@@QEBA_NAEBV012@@Z 0000000180016348 f i libvcruntime:frame.obj
 0001:00015354       ??Oiterator@UWMap4@FH4@@QEBA_NAEBV012@@Z 0000000180016354 f i libvcruntime:frame.obj
 0001:00015360       ??Piterator@UWMap4@FH4@@QEBA_NAEBV012@@Z 0000000180016360 f i libvcruntime:frame.obj
 0001:0001536c       ??_Gbad_exception@std@@UEAAPEAXI@Z 000000018001636c f i libvcruntime:frame.obj
 0001:0001536c       ??_Ebad_exception@std@@UEAAPEAXI@Z 000000018001636c f i libvcruntime:frame.obj
 0001:000153b0       ?BuildCatchObject@__FrameHandler3@@SAXPEAUEHExceptionRecord@@PEAXPEBU_s_HandlerType@@PEBU_s_CatchableType@@@Z 00000001800163b0 f   libvcruntime:frame.obj
 0001:000153b8       ?BuildCatchObject@__FrameHandler4@@SAXPEAUEHExceptionRecord@@PEAXPEAUHandlerType4@FH4@@PEBU_s_CatchableType@@@Z 00000001800163b8 f   libvcruntime:frame.obj
 0001:000153c0       ?BuildCatchObjectHelper@__FrameHandler3@@SAHPEAUEHExceptionRecord@@PEAXPEBU_s_HandlerType@@PEBU_s_CatchableType@@@Z 00000001800163c0 f   libvcruntime:frame.obj
 0001:000153c8       ?BuildCatchObjectHelper@__FrameHandler4@@SAHPEAUEHExceptionRecord@@PEAXPEAUHandlerType4@FH4@@PEBU_s_CatchableType@@@Z 00000001800163c8 f   libvcruntime:frame.obj
 0001:000153d0       ?CxxCallCatchBlock@__FrameHandler3@@SAPEAXPEAU_EXCEPTION_RECORD@@@Z 00000001800163d0 f   libvcruntime:frame.obj
 0001:000155bc       ?CxxCallCatchBlock@__FrameHandler4@@SAPEAXPEAU_EXCEPTION_RECORD@@@Z 00000001800165bc f   libvcruntime:frame.obj
 0001:0001580c       ?DecompHandler@HandlerMap4@FH4@@AEAAXXZ 000000018001680c f i libvcruntime:frame.obj
 0001:00015a4c       ?FrameUnwindToState@__FrameHandler3@@SAXPEA_KPEAU_xDISPATCHER_CONTEXT@@PEBU_s_FuncInfo@@H@Z 0000000180016a4c f   libvcruntime:frame.obj
 0001:00015bd8       ?FrameUnwindToState@__FrameHandler4@@SAXPEA_KPEAU_xDISPATCHER_CONTEXT@@PEAUFuncInfo4@FH4@@H@Z 0000000180016bd8 f   libvcruntime:frame.obj
 0001:00015ec0       ?GetHandlerSearchState@__FrameHandler3@@SAHPEA_KPEAU_xDISPATCHER_CONTEXT@@PEBU_s_FuncInfo@@@Z 0000000180016ec0 f i libvcruntime:frame.obj
 0001:00015f58       ?GetHandlerSearchState@__FrameHandler4@@SAHPEA_KPEAU_xDISPATCHER_CONTEXT@@PEAUFuncInfo4@FH4@@@Z 0000000180016f58 f i libvcruntime:frame.obj
 0001:00015fbc       ?GetMaxState@__FrameHandler3@@SAHPEAU_xDISPATCHER_CONTEXT@@PEBU_s_FuncInfo@@@Z 0000000180016fbc f i libvcruntime:frame.obj
 0001:00015fc0       ?GetMaxState@__FrameHandler4@@SAHPEAU_xDISPATCHER_CONTEXT@@PEAUFuncInfo4@FH4@@@Z 0000000180016fc0 f i libvcruntime:frame.obj
 0001:00016170       ?ReadEntry@UWMap4@FH4@@AEAAXPEAPEAE@Z 0000000180017170 f i libvcruntime:frame.obj
 0001:00016210       ?TypeMatch@__FrameHandler3@@SAHPEBU_s_HandlerType@@PEBU_s_CatchableType@@PEBU_s_ThrowInfo@@@Z 0000000180017210 f   libvcruntime:frame.obj
 0001:00016218       ?TypeMatch@__FrameHandler4@@SAHPEAUHandlerType4@FH4@@PEBU_s_CatchableType@@PEBU_s_ThrowInfo@@@Z 0000000180017218 f   libvcruntime:frame.obj
 0001:00016220       ?WalkBack@UWMap4@FH4@@AEAAXPEAPEAE@Z 0000000180017220 f i libvcruntime:frame.obj
 0001:00016258       ?WalkBack@iterator@UWMap4@FH4@@QEAAXXZ 0000000180017258 f i libvcruntime:frame.obj
 0001:00016298       ?WalkForward@UWMap4@FH4@@AEAAXPEAPEAE@Z 0000000180017298 f i libvcruntime:frame.obj
 0001:000162a0       ?_CallMemberFunction1@@YAXQEAX00@Z 00000001800172a0 f i libvcruntime:frame.obj
 0001:000162ac       ?_CallMemberFunction2@@YAXQEAX00H@Z 00000001800172ac f i libvcruntime:frame.obj
 0001:000162d0       ?begin@HandlerMap4@FH4@@QEAA?AViterator@12@XZ 00000001800172d0 f i libvcruntime:frame.obj
 0001:000162dc       ?begin@HandlerMap@__FrameHandler3@@QEAA?AViterator@12@XZ 00000001800172dc f i libvcruntime:frame.obj
 0001:000162e8       ?begin@UWMap4@FH4@@QEAA?AViterator@12@XZ 00000001800172e8 f i libvcruntime:frame.obj
 0001:000162f8       ?end@HandlerMap4@FH4@@QEAA?AViterator@12@XZ 00000001800172f8 f i libvcruntime:frame.obj
 0001:00016304       ?end@HandlerMap@__FrameHandler3@@QEAA?AViterator@12@XZ 0000000180017304 f i libvcruntime:frame.obj
 0001:00016310       ?getESTypes@__FrameHandler3@@SAPEBU_s_ESTypeList@@PEBU_s_FuncInfo@@@Z 0000000180017310 f i libvcruntime:frame.obj
 0001:00016338       ?getESTypes@__FrameHandler4@@SAPEBU_s_ESTypeList@@PEAUFuncInfo4@FH4@@@Z 0000000180017338 f i libvcruntime:frame.obj
 0001:0001633c       ?getLastEntry@HandlerMap4@FH4@@QEAAPEAUHandlerType4@2@XZ 000000018001733c f i libvcruntime:frame.obj
 0001:0001638c       ?getLastEntry@HandlerMap@__FrameHandler3@@QEAAPEBU_s_HandlerType@@XZ 000000018001738c f i libvcruntime:frame.obj
 0001:000163a0       ?getMagicNum@__FrameHandler3@@SAIPEBU_s_FuncInfo@@@Z 00000001800173a0 f i libvcruntime:frame.obj
 0001:000163a8       ?getMagicNum@__FrameHandler4@@SAIPEAUFuncInfo4@FH4@@@Z 00000001800173a8 f i libvcruntime:frame.obj
 0001:000163b0       ?getNumTryBlocks@TryBlockMap4@FH4@@QEAAIXZ 00000001800173b0 f i libvcruntime:frame.obj
 0001:000163b4       ?getNumTryBlocks@TryBlockMap@__FrameHandler3@@QEAAIXZ 00000001800173b4 f i libvcruntime:frame.obj
 0001:000163bc       ?getStartStop@UWMap4@FH4@@QEAAXHHAEAViterator@12@0@Z 00000001800173bc f i libvcruntime:frame.obj
 0001:0001648c       ?getStateFromIterators@UWMap4@FH4@@SAHAEBViterator@12@H0H0@Z 000000018001748c f i libvcruntime:frame.obj
 0001:00016554       ?isEHs@__FrameHandler3@@SA_NPEBU_s_FuncInfo@@@Z 0000000180017554 f i libvcruntime:frame.obj
 0001:0001655c       ?isEHs@__FrameHandler4@@SA_NPEAUFuncInfo4@FH4@@@Z 000000018001755c f i libvcruntime:frame.obj
 0001:00016564       ?isNoExcept@__FrameHandler3@@SA_NPEBU_s_FuncInfo@@@Z 0000000180017564 f i libvcruntime:frame.obj
 0001:00016570       ?isNoExcept@__FrameHandler4@@SA_NPEAUFuncInfo4@FH4@@@Z 0000000180017570 f i libvcruntime:frame.obj
 0001:00016578       ?reset@HandlerType4@FH4@@QEAAXXZ 0000000180017578 f i libvcruntime:frame.obj
 0001:0001658c       ?resetBuffer@HandlerMap4@FH4@@QEAAXXZ 000000018001758c f i libvcruntime:frame.obj
 0001:0001659c       ?setBuffer@HandlerMap4@FH4@@QEAAXI@Z 000000018001759c f i libvcruntime:frame.obj
 0001:000165d8       __BuildCatchObject         00000001800175d8 f   libvcruntime:frame.obj
 0001:000165e0       __BuildCatchObjectHelper   00000001800175e0 f   libvcruntime:frame.obj
 0001:000165e8       __TypeMatch                00000001800175e8 f   libvcruntime:frame.obj
 0001:000165f0       __vcrt_EncodePointer       00000001800175f0 f i libvcruntime:frame.obj
 0001:000165f8       __vcrt_initialize_locks    00000001800175f8 f   libvcruntime:locks.obj
 0001:0001662c       __vcrt_lock                000000018001762c f   libvcruntime:locks.obj
 0001:00016648       __vcrt_uninitialize_locks  0000000180017648 f   libvcruntime:locks.obj
 0001:00016680       __vcrt_unlock              0000000180017680 f   libvcruntime:locks.obj
 0001:000166b0       _NLG_Notify                00000001800176b0 f   libvcruntime:notify.obj
 0001:000166d0       __NLG_Dispatch2            00000001800176d0 f   libvcruntime:notify.obj
 0001:000166e0       __NLG_Return2              00000001800176e0 f   libvcruntime:notify.obj
 0001:000166ec       __except_validate_context_record 00000001800176ec f   libvcruntime:jbcxrval.obj
 0001:00016724       __except_validate_jump_buffer 0000000180017724 f   libvcruntime:jbcxrval.obj
 0001:00016764       __except_validate_jump_buffer_common 0000000180017764 f i libvcruntime:jbcxrval.obj
 0001:000167c0       ??$?0$00@DName@@QEAA@PEBDU?$StringLifeSelector@$00@@@Z 00000001800177c0 f i libvcruntime:undname.obj
 0001:00016800       ??$?0$00@pcharNode@@QEAA@PEBDHU?$StringLifeSelector@$00@@@Z 0000000180017800 f i libvcruntime:undname.obj
 0001:00016818       ??$?0$01@DName@@QEAA@PEBDU?$StringLifeSelector@$01@@@Z 0000000180017818 f i libvcruntime:undname.obj
 0001:00016858       ??$?0$01@pcharNode@@QEAA@PEBDHU?$StringLifeSelector@$01@@@Z 0000000180017858 f i libvcruntime:undname.obj
 0001:000168cc       ??$?0$0A@@DName@@QEAA@PEBDU?$StringLifeSelector@$0A@@@@Z 00000001800178cc f i libvcruntime:undname.obj
 0001:0001690c       ??$?0$0A@@pcharNode@@QEAA@PEBDHU?$StringLifeSelector@$0A@@@@Z 000000018001790c f i libvcruntime:undname.obj
 0001:00016980       ??$?0_K$0A@@?$optional@_K@std@@QEAA@$$QEA_K@Z 0000000180017980 f i libvcruntime:undname.obj
 0001:00016990       ??$?0_K@?$_Optional_construct_base@_K@std@@QEAA@Uin_place_t@1@$$QEA_K@Z 0000000180017990 f i libvcruntime:undname.obj
 0001:000169a0       ??$?0_K@?$_Optional_destruct_base@_K$00@std@@QEAA@Uin_place_t@1@$$QEA_K@Z 00000001800179a0 f i libvcruntime:undname.obj
 0001:000169b0       ??$append@VDNameNode@@@DName@@AEAAXPEBVDNameNode@@@Z 00000001800179b0 f i libvcruntime:undname.obj
 0001:00016a14       ??$append@VDNameStatusNode@@@DName@@AEAAXPEBVDNameStatusNode@@@Z 0000000180017a14 f i libvcruntime:undname.obj
 0001:00016a78       ??$append@VcharNode@@@DName@@AEAAXPEBVcharNode@@@Z 0000000180017a78 f i libvcruntime:undname.obj
 0001:00016adc       ??$append@VpDNameNode@@@DName@@AEAAXPEBVpDNameNode@@@Z 0000000180017adc f i libvcruntime:undname.obj
 0001:00016b40       ??$append@VpcharNode@@@DName@@AEAAXPEBVpcharNode@@@Z 0000000180017b40 f i libvcruntime:undname.obj
 0001:00016ba4       ??$doPchar@$00@DName@@AEAAXPEBDH@Z 0000000180017ba4 f i libvcruntime:undname.obj
 0001:00016c48       ??$doPchar@$01@DName@@AEAAXPEBDH@Z 0000000180017c48 f i libvcruntime:undname.obj
 0001:00016ce0       ??$doPchar@$0A@@DName@@AEAAXPEBDH@Z 0000000180017ce0 f i libvcruntime:undname.obj
 0001:00016d78       ??$forward@_K@std@@YA$$QEA_KAEA_K@Z 0000000180017d78 f i libvcruntime:undname.obj
 0001:00016d7c       ??$size@D$04@std@@YA_KAEAY04$$CBD@Z 0000000180017d7c f i libvcruntime:undname.obj
 0001:00016d84       ??$size@D$0EB@@std@@YA_KAEAY0EB@$$CBD@Z 0000000180017d84 f i libvcruntime:undname.obj
 0001:00016d8c       ??0?$_Optional_construct_base@_K@std@@QEAA@XZ 0000000180017d8c f i libvcruntime:undname.obj
 0001:00016d94       ??0?$_Optional_destruct_base@_K$00@std@@QEAA@XZ 0000000180017d94 f i libvcruntime:undname.obj
 0001:00016d9c       ??0?$optional@_K@std@@QEAA@XZ 0000000180017d9c f i libvcruntime:undname.obj
 0001:00016da4       ??0Block@_HeapManager@@QEAA@XZ 0000000180017da4 f i libvcruntime:undname.obj
 0001:00016dac       ??0DName@@QEAA@AEAPEBDD@Z  0000000180017dac f   libvcruntime:undname.obj
 0001:00016e5c       ??0DName@@QEAA@AEBUStringLiteral@@@Z 0000000180017e5c f   libvcruntime:undname.obj
 0001:00016e88       ??0DName@@QEAA@AEBV0@@Z    0000000180017e88 f i libvcruntime:undname.obj
 0001:00016e98       ??0DName@@QEAA@D@Z         0000000180017e98 f   libvcruntime:undname.obj
 0001:00016eb8       ??0DName@@QEAA@PEAV0@@Z    0000000180017eb8 f   libvcruntime:undname.obj
 0001:00016f3c       ??0DName@@QEAA@W4DNameStatus@@@Z 0000000180017f3c f   libvcruntime:undname.obj
 0001:00016f6c       ??0DName@@QEAA@XZ          0000000180017f6c f i libvcruntime:undname.obj
 0001:00016f78       ??0DName@@QEAA@_J@Z        0000000180017f78 f   libvcruntime:undname.obj
 0001:00017020       ??0DName@@QEAA@_K@Z        0000000180018020 f   libvcruntime:undname.obj
 0001:000170a8       ??0DNameNode@@IEAA@XZ      00000001800180a8 f i libvcruntime:undname.obj
 0001:000170b8       ??0Replicator@@QEAA@XZ     00000001800180b8 f i libvcruntime:undname.obj
 0001:000170cc       ??0UnDecorator@@QEAA@PEBDP6APEADJ@ZK@Z 00000001800180cc f i libvcruntime:undname.obj
 0001:0001711c       ??0_Nontrivial_dummy_type@std@@QEAA@XZ 000000018001811c f i libvcruntime:undname.obj
 0001:00017120       ??0charNode@@QEAA@D@Z      0000000180018120 f i libvcruntime:undname.obj
 0001:00017134       ??0pDNameNode@@QEAA@PEAVDName@@@Z 0000000180018134 f   libvcruntime:undname.obj
 0001:0001715c       ??0pairNode@@QEAA@PEBVDNameNode@@0@Z 000000018001815c f i libvcruntime:undname.obj
 0001:00017180       ??2@YAPEAX_KAEAV_HeapManager@@H@Z 0000000180018180 f   libvcruntime:undname.obj
 0001:000171ac       ??4DName@@QEAAAEAV0@AEBUStringLiteral@@@Z 00000001800181ac f   libvcruntime:undname.obj
 0001:000171d4       ??4DName@@QEAAAEAV0@AEBV0@@Z 00000001800181d4 f   libvcruntime:undname.obj
 0001:000171e4       ??4DName@@QEAAAEAV0@D@Z    00000001800181e4 f i libvcruntime:undname.obj
 0001:00017204       ??4DName@@QEAAAEAV0@PEAV0@@Z 0000000180018204 f   libvcruntime:undname.obj
 0001:0001727c       ??4DName@@QEAAAEAV0@W4DNameStatus@@@Z 000000018001827c f   libvcruntime:undname.obj
 0001:0001729c       ??AReplicator@@QEBA?AVDName@@H@Z 000000018001829c f   libvcruntime:undname.obj
 0001:000172dc       ??B?$optional@_K@std@@QEBA_NXZ 00000001800182dc f i libvcruntime:undname.obj
 0001:000172e0       ??D?$optional@_K@std@@QEGAAAEA_KXZ 00000001800182e0 f i libvcruntime:undname.obj
 0001:000172e4       ??H@YA?AVDName@@AEBUStringLiteral@@AEBV0@@Z 00000001800182e4 f i libvcruntime:undname.obj
 0001:0001731c       ??H@YA?AVDName@@DAEBV0@@Z  000000018001831c f i libvcruntime:undname.obj
 0001:00017360       ??H@YA?AVDName@@W4DNameStatus@@AEBV0@@Z 0000000180018360 f i libvcruntime:undname.obj
 0001:000173ac       ??HDName@@QEBA?AV0@AEBUStringLiteral@@@Z 00000001800183ac f   libvcruntime:undname.obj
 0001:000173d8       ??HDName@@QEBA?AV0@AEBV0@@Z 00000001800183d8 f   libvcruntime:undname.obj
 0001:00017404       ??HDName@@QEBA?AV0@D@Z     0000000180018404 f   libvcruntime:undname.obj
 0001:00017430       ??HDName@@QEBA?AV0@PEAV0@@Z 0000000180018430 f   libvcruntime:undname.obj
 0001:0001745c       ??HDName@@QEBA?AV0@W4DNameStatus@@@Z 000000018001845c f   libvcruntime:undname.obj
 0001:00017488       ??HStringLiteral@@QEBA?AU0@H@Z 0000000180018488 f i libvcruntime:undname.obj
 0001:000174a0       ??YDName@@QEAAAEAV0@AEBUStringLiteral@@@Z 00000001800184a0 f   libvcruntime:undname.obj
 0001:00017520       ??YDName@@QEAAAEAV0@AEBV0@@Z 0000000180018520 f   libvcruntime:undname.obj
 0001:000175d4       ??YDName@@QEAAAEAV0@D@Z    00000001800185d4 f   libvcruntime:undname.obj
 0001:00017640       ??YDName@@QEAAAEAV0@PEAV0@@Z 0000000180018640 f   libvcruntime:undname.obj
 0001:000176d4       ??YDName@@QEAAAEAV0@W4DNameStatus@@@Z 00000001800186d4 f   libvcruntime:undname.obj
 0001:00017740       ??YReplicator@@QEAAAEAV0@AEBVDName@@@Z 0000000180018740 f   libvcruntime:undname.obj
 0001:00017798       ??_5DName@@QEAAAEAV0@AEBV0@@Z 0000000180018798 f   libvcruntime:undname.obj
 0001:000177ac       ??__K_l@@YA?AUStringLiteral@@PEBD_K@Z 00000001800187ac f i libvcruntime:undname.obj
 0001:000177b8       ?Constructor@_HeapManager@@QEAAXP6APEAX_K@ZP6AXPEAX@Z@Z 00000001800187b8 f i libvcruntime:undname.obj
 0001:000177d0       ?Destructor@_HeapManager@@QEAAXXZ 00000001800187d0 f i libvcruntime:undname.obj
 0001:00017824       ?UScore@UnDecorator@@SA?AUStringLiteral@@W4Tokens@@@Z 0000000180018824 f   libvcruntime:undname.obj
 0001:00017870       ?composeDeclaration@UnDecorator@@CA?AVDName@@AEBV2@@Z 0000000180018870 f i libvcruntime:undname.obj
 0001:00018718       ?doAccessSpecifiers@UnDecorator@@SAHXZ 0000000180019718 f i libvcruntime:undname.obj
 0001:00018728       ?doAllocationLanguage@UnDecorator@@SAHXZ 0000000180019728 f i libvcruntime:undname.obj
 0001:00018738       ?doAllocationModel@UnDecorator@@SAHXZ 0000000180019738 f i libvcruntime:undname.obj
 0001:00018748       ?doEcsu@UnDecorator@@SAHXZ 0000000180019748 f i libvcruntime:undname.obj
 0001:00018758       ?doEllipsis@UnDecorator@@SAHXZ 0000000180019758 f i libvcruntime:undname.obj
 0001:00018768       ?doFunctionReturns@UnDecorator@@SAHXZ 0000000180019768 f i libvcruntime:undname.obj
 0001:00018778       ?doMSKeywords@UnDecorator@@SAHXZ 0000000180019778 f i libvcruntime:undname.obj
 0001:00018788       ?doMemberTypes@UnDecorator@@SAHXZ 0000000180019788 f i libvcruntime:undname.obj
 0001:00018798       ?doNameOnly@UnDecorator@@SAHXZ 0000000180019798 f i libvcruntime:undname.obj
 0001:000187a4       ?doNoIdentCharCheck@UnDecorator@@SAHXZ 00000001800197a4 f i libvcruntime:undname.obj
 0001:000187b0       ?doPchar@DName@@AEAAXD@Z   00000001800197b0 f   libvcruntime:undname.obj
 0001:00018800       ?doPtr64@UnDecorator@@SAHXZ 0000000180019800 f i libvcruntime:undname.obj
 0001:00018810       ?doRestrictionSpec@UnDecorator@@SAHXZ 0000000180019810 f i libvcruntime:undname.obj
 0001:00018820       ?doThisTypes@UnDecorator@@SAHXZ 0000000180019820 f i libvcruntime:undname.obj
 0001:00018834       ?doThrowTypes@UnDecorator@@SAHXZ 0000000180019834 f i libvcruntime:undname.obj
 0001:00018844       ?doTypeOnly@UnDecorator@@SAHXZ 0000000180019844 f i libvcruntime:undname.obj
 0001:00018850       ?doUnderScore@UnDecorator@@SAHXZ 0000000180019850 f i libvcruntime:undname.obj
 0001:0001885c       ?getAddressOf@UnDecorator@@CA?AVDName@@XZ 000000018001985c f   libvcruntime:undname.obj
 0001:000188ec       ?getArgumentList@UnDecorator@@CA?AVDName@@XZ 00000001800198ec f   libvcruntime:undname.obj
 0001:00018a80       ?getArgumentTypes@UnDecorator@@CA?AVDName@@XZ 0000000180019a80 f   libvcruntime:undname.obj
 0001:00018bdc       ?getArrayAccess@UnDecorator@@CA?AVDName@@XZ 0000000180019bdc f   libvcruntime:undname.obj
 0001:00018c78       ?getArrayObject@UnDecorator@@CA?AVDName@@XZ 0000000180019c78 f   libvcruntime:undname.obj
 0001:00018d40       ?getArrayType@UnDecorator@@CA?AVDName@@AEBV2@@Z 0000000180019d40 f i libvcruntime:undname.obj
 0001:00018f88       ?getBasedType@UnDecorator@@CA?AVDName@@XZ 0000000180019f88 f   libvcruntime:undname.obj
 0001:00019080       ?getBasicDataType@UnDecorator@@CA?AVDName@@AEBV2@@Z 000000018001a080 f   libvcruntime:undname.obj
 0001:00019630       ?getCHPEName@UnDecorator@@QEAAPEADPEADH@Z 000000018001a630 f i libvcruntime:undname.obj
 0001:00019750       ?getCallIndex@UnDecorator@@CA?AVDName@@XZ 000000018001a750 f i libvcruntime:undname.obj
 0001:0001976c       ?getCallingConvention@UnDecorator@@CA?AVDName@@XZ 000000018001a76c f   libvcruntime:undname.obj
 0001:000198ac       ?getDataIndirectType@UnDecorator@@CA?AVDName@@AEBV2@W4IndirectionKind@@0H@Z 000000018001a8ac f   libvcruntime:undname.obj
 0001:0001a144       ?getDataIndirectType@UnDecorator@@CA?AVDName@@XZ 000000018001b144 f i libvcruntime:undname.obj
 0001:0001a180       ?getDataType@UnDecorator@@CA?AVDName@@PEAV2@@Z 000000018001b180 f   libvcruntime:undname.obj
 0001:0001a294       ?getDecoratedName@UnDecorator@@CA?AVDName@@XZ 000000018001b294 f   libvcruntime:undname.obj
 0001:0001a578       ?getDimension@UnDecorator@@CA?AVDName@@_N@Z 000000018001b578 f   libvcruntime:undname.obj
 0001:0001a6c4       ?getDispatchTarget@UnDecorator@@CA?AVDName@@XZ 000000018001b6c4 f   libvcruntime:undname.obj
 0001:0001a710       ?getDisplacement@UnDecorator@@CA?AVDName@@XZ 000000018001b710 f i libvcruntime:undname.obj
 0001:0001a72c       ?getECSUDataType@UnDecorator@@CA?AVDName@@XZ 000000018001b72c f   libvcruntime:undname.obj
 0001:0001a90c       ?getECSUName@UnDecorator@@CA?AVDName@@XZ 000000018001b90c f i libvcruntime:undname.obj
 0001:0001a924       ?getEnumType@UnDecorator@@CA?AVDName@@XZ 000000018001b924 f i libvcruntime:undname.obj
 0001:0001aa54       ?getExtendedDataIndirectType@UnDecorator@@CA?AVDName@@AEAW4IndirectionKind@@AEA_NH@Z 000000018001ba54 f   libvcruntime:undname.obj
 0001:0001ac5c       ?getExternalDataType@UnDecorator@@CA?AVDName@@AEBV2@@Z 000000018001bc5c f i libvcruntime:undname.obj
 0001:0001ad1c       ?getFloatingPoint@UnDecorator@@CA?AVDName@@H@Z 000000018001bd1c f   libvcruntime:undname.obj
 0001:0001ae44       ?getFunctionIndirectType@UnDecorator@@CA?AVDName@@AEBV2@@Z 000000018001be44 f   libvcruntime:undname.obj
 0001:0001b37c       ?getGuardNumber@UnDecorator@@CA?AVDName@@XZ 000000018001c37c f i libvcruntime:undname.obj
 0001:0001b398       ?getLastChar@DName@@QEBADXZ 000000018001c398 f i libvcruntime:undname.obj
 0001:0001b3b4       ?getLastChar@DNameStatusNode@@UEBADXZ 000000018001c3b4 f i libvcruntime:undname.obj
 0001:0001b3c0       ?getLastChar@charNode@@UEBADXZ 000000018001c3c0 f i libvcruntime:undname.obj
 0001:0001b3c4       ?getLastChar@pDNameNode@@UEBADXZ 000000018001c3c4 f i libvcruntime:undname.obj
 0001:0001b3f0       ?getLastChar@pairNode@@UEBADXZ 000000018001c3f0 f i libvcruntime:undname.obj
 0001:0001b428       ?getLastChar@pcharNode@@UEBADXZ 000000018001c428 f i libvcruntime:undname.obj
 0001:0001b43c       ?getLexicalFrame@UnDecorator@@CA?AVDName@@XZ 000000018001c43c f i libvcruntime:undname.obj
 0001:0001b4a0       ?getMemberAccess@UnDecorator@@CA?AVDName@@XZ 000000018001c4a0 f   libvcruntime:undname.obj
 0001:0001b534       ?getMemoryWithBuffer@_HeapManager@@QEAAPEAX_K@Z 000000018001c534 f   libvcruntime:undname.obj
 0001:0001b5c4       ?getMemoryWithoutBuffer@_HeapManager@@QEAAPEAX_K@Z 000000018001c5c4 f   libvcruntime:undname.obj
 0001:0001b5d8       ?getNoexcept@UnDecorator@@CA?AVDName@@XZ 000000018001c5d8 f   libvcruntime:undname.obj
 0001:0001b63c       ?getNumberOfDimensions@UnDecorator@@CAHXZ 000000018001c63c f   libvcruntime:undname.obj
 0001:0001b6b0       ?getOperatorName@UnDecorator@@CA?AVDName@@_NPEA_N@Z 000000018001c6b0 f i libvcruntime:undname.obj
 0001:0001c0a4       ?getPointerToMember@UnDecorator@@CA?AVDName@@XZ 000000018001d0a4 f   libvcruntime:undname.obj
 0001:0001c19c       ?getPointerType@UnDecorator@@CA?AVDName@@AEBV2@0@Z 000000018001d19c f i libvcruntime:undname.obj
 0001:0001c1bc       ?getPointerTypeArray@UnDecorator@@CA?AVDName@@AEBV2@0@Z 000000018001d1bc f i libvcruntime:undname.obj
 0001:0001c1d8       ?getPrimaryDataType@UnDecorator@@CA?AVDName@@AEBV2@@Z 000000018001d1d8 f   libvcruntime:undname.obj
 0001:0001c48c       ?getPtrRefDataType@UnDecorator@@CA?AVDName@@AEBV2@H@Z 000000018001d48c f   libvcruntime:undname.obj
 0001:0001c658       ?getPtrRefType@UnDecorator@@CA?AVDName@@AEBV2@0W4IndirectionKind@@@Z 000000018001d658 f   libvcruntime:undname.obj
 0001:0001c830       ?getReferenceType@UnDecorator@@CA?AVDName@@AEBV2@0W4IndirectionKind@@@Z 000000018001d830 f i libvcruntime:undname.obj
 0001:0001c848       ?getRestrictionSpec@UnDecorator@@CA?AVDName@@XZ 000000018001d848 f   libvcruntime:undname.obj
 0001:0001ca14       ?getReturnType@UnDecorator@@CA?AVDName@@PEAV2@@Z 000000018001da14 f   libvcruntime:undname.obj
 0001:0001ca48       ?getScope@UnDecorator@@CA?AVDName@@XZ 000000018001da48 f   libvcruntime:undname.obj
 0001:0001cefc       ?getScopedName@UnDecorator@@CA?AVDName@@XZ 000000018001defc f   libvcruntime:undname.obj
 0001:0001d038       ?getSignedDimension@UnDecorator@@CA?AVDName@@XZ 000000018001e038 f   libvcruntime:undname.obj
 0001:0001d0c0       ?getStorageConvention@UnDecorator@@CA?AVDName@@XZ 000000018001e0c0 f i libvcruntime:undname.obj
 0001:0001d0fc       ?getString@DName@@QEBAPEADPEAD0@Z 000000018001e0fc f i libvcruntime:undname.obj
 0001:0001d118       ?getString@DName@@QEBAPEADPEADH@Z 000000018001e118 f i libvcruntime:undname.obj
 0001:0001d1ac       ?getString@DNameStatusNode@@UEBAPEADPEAD0@Z 000000018001e1ac f i libvcruntime:undname.obj
 0001:0001d1f4       ?getString@charNode@@UEBAPEADPEAD0@Z 000000018001e1f4 f i libvcruntime:undname.obj
 0001:0001d208       ?getString@pDNameNode@@UEBAPEADPEAD0@Z 000000018001e208 f i libvcruntime:undname.obj
 0001:0001d238       ?getString@pairNode@@UEBAPEADPEAD0@Z 000000018001e238 f i libvcruntime:undname.obj
 0001:0001d284       ?getString@pcharNode@@UEBAPEADPEAD0@Z 000000018001e284 f i libvcruntime:undname.obj
 0001:0001d2bc       ?getStringEncoding@UnDecorator@@CA?AVDName@@W4PrefixKind@@H@Z 000000018001e2bc f   libvcruntime:undname.obj
 0001:0001d3a0       ?getStringHelper@@YAPEADPEADPEBD1H@Z 000000018001e3a0 f i libvcruntime:undname.obj
 0001:0001d3d0       ?getStringObject@UnDecorator@@CA?AVDName@@XZ 000000018001e3d0 f   libvcruntime:undname.obj
 0001:0001d438       ?getSymbolName@UnDecorator@@CA?AVDName@@XZ 000000018001e438 f i libvcruntime:undname.obj
 0001:0001d484       ?getTemplateArgumentList@UnDecorator@@CA?AVDName@@XZ 000000018001e484 f   libvcruntime:undname.obj
 0001:0001d6f8       ?getTemplateName@UnDecorator@@CA?AVDName@@_N@Z 000000018001e6f8 f   libvcruntime:undname.obj
 0001:0001d98c       ?getTemplateNonTypeArgument@UnDecorator@@CA?AVDName@@XZ 000000018001e98c f   libvcruntime:undname.obj
 0001:0001dec0       ?getTemplateTypeArgument@UnDecorator@@CA?AVDName@@XZ 000000018001eec0 f   libvcruntime:undname.obj
 0001:0001e028       ?getThisType@UnDecorator@@CA?AVDName@@XZ 000000018001f028 f i libvcruntime:undname.obj
 0001:0001e068       ?getThrowTypes@UnDecorator@@CA?AVDName@@XZ 000000018001f068 f   libvcruntime:undname.obj
 0001:0001e08c       ?getTypeEncoding@UnDecorator@@CAHXZ 000000018001f08c f i libvcruntime:undname.obj
 0001:0001e41c       ?getUndecoratedName@UnDecorator@@QEAAPEADPEADH@Z 000000018001f41c f i libvcruntime:undname.obj
 0001:0001e570       ?getUnionObject@UnDecorator@@CA?AVDName@@XZ 000000018001f570 f   libvcruntime:undname.obj
 0001:0001e648       ?getVCallThunkType@UnDecorator@@CA?AVDName@@XZ 000000018001f648 f i libvcruntime:undname.obj
 0001:0001e6c0       ?getValue@UnDecorator@@CA?AV?$optional@_K@std@@XZ 000000018001f6c0 f   libvcruntime:undname.obj
 0001:0001e734       ?getValueObject@UnDecorator@@CA?AVDName@@XZ 000000018001f734 f   libvcruntime:undname.obj
 0001:0001e88c       ?getVbTableType@UnDecorator@@CA?AVDName@@AEBV2@@Z 000000018001f88c f i libvcruntime:undname.obj
 0001:0001e8a4       ?getVdispMapType@UnDecorator@@CA?AVDName@@AEBV2@@Z 000000018001f8a4 f i libvcruntime:undname.obj
 0001:0001e920       ?getVfTableType@UnDecorator@@CA?AVDName@@AEBV2@@Z 000000018001f920 f i libvcruntime:undname.obj
 0001:0001eb28       ?getZName@UnDecorator@@CA?AVDName@@_N0@Z 000000018001fb28 f   libvcruntime:undname.obj
 0001:0001ee10       ?haveTemplateParameters@UnDecorator@@SAHXZ 000000018001fe10 f i libvcruntime:undname.obj
 0001:0001ee1c       ?isArray@DName@@QEBAHXZ    000000018001fe1c f i libvcruntime:undname.obj
 0001:0001ee28       ?isComArray@DName@@QEBAHXZ 000000018001fe28 f i libvcruntime:undname.obj
 0001:0001ee34       ?isEmpty@DName@@QEBAHXZ    000000018001fe34 f i libvcruntime:undname.obj
 0001:0001ee40       ?isFull@Replicator@@QEBAHXZ 000000018001fe40 f i libvcruntime:undname.obj
 0001:0001ee4c       ?isNoTE@DName@@QEBAHXZ     000000018001fe4c f i libvcruntime:undname.obj
 0001:0001ee58       ?isPinPtr@DName@@QEBAHXZ   000000018001fe58 f i libvcruntime:undname.obj
 0001:0001ee64       ?isPtrRef@DName@@QEBAHXZ   000000018001fe64 f i libvcruntime:undname.obj
 0001:0001ee70       ?isUDC@DName@@QEBAHXZ      000000018001fe70 f i libvcruntime:undname.obj
 0001:0001ee88       ?isUDTThunk@DName@@QEBAHXZ 000000018001fe88 f i libvcruntime:undname.obj
 0001:0001eea0       ?isVCallThunk@DName@@QEBAHXZ 000000018001fea0 f i libvcruntime:undname.obj
 0001:0001eeac       ?isValid@DName@@QEBAHXZ    000000018001feac f i libvcruntime:undname.obj
 0001:0001eeb8       ?length@DName@@QEBAHXZ     000000018001feb8 f i libvcruntime:undname.obj
 0001:0001eed0       ?length@DNameStatusNode@@UEBAHXZ 000000018001fed0 f i libvcruntime:undname.obj
 0001:0001eed4       ?length@charNode@@UEBAHXZ  000000018001fed4 f i libvcruntime:undname.obj
 0001:0001eedc       ?length@pDNameNode@@UEBAHXZ 000000018001fedc f i libvcruntime:undname.obj
 0001:0001ef04       ?length@pairNode@@UEBAHXZ  000000018001ff04 f i libvcruntime:undname.obj
 0001:0001ef4c       ?length@pcharNode@@UEBAHXZ 000000018001ff4c f i libvcruntime:undname.obj
 0001:0001ef50       ?make@DNameStatusNode@@SAPEBV1@W4DNameStatus@@@Z 000000018001ff50 f i libvcruntime:undname.obj
 0001:0001ef70       ?parseDecoratedName@UnDecorator@@CA?AVDName@@XZ 000000018001ff70 f   libvcruntime:undname.obj
 0001:0001f084       ?raw_length@DNameStatusNode@@UEBAHXZ 0000000180020084 f i libvcruntime:undname.obj
 0001:0001f088       ?raw_length@charNode@@UEBAHXZ 0000000180020088 f i libvcruntime:undname.obj
 0001:0001f090       ?raw_length@pDNameNode@@UEBAHXZ 0000000180020090 f i libvcruntime:undname.obj
 0001:0001f094       ?raw_length@pairNode@@UEBAHXZ 0000000180020094 f i libvcruntime:undname.obj
 0001:0001f098       ?raw_length@pcharNode@@UEBAHXZ 0000000180020098 f i libvcruntime:undname.obj
 0001:0001f09c       ?setIsArray@DName@@QEAAXXZ 000000018002009c f i libvcruntime:undname.obj
 0001:0001f0a4       ?setIsComArray@DName@@QEAAXXZ 00000001800200a4 f i libvcruntime:undname.obj
 0001:0001f0ac       ?setIsNoTE@DName@@QEAAXXZ  00000001800200ac f i libvcruntime:undname.obj
 0001:0001f0b4       ?setIsPinPtr@DName@@QEAAXXZ 00000001800200b4 f i libvcruntime:undname.obj
 0001:0001f0bc       ?setIsUDC@DName@@QEAAXXZ   00000001800200bc f i libvcruntime:undname.obj
 0001:0001f0c8       ?setIsVCallThunk@DName@@QEAAXXZ 00000001800200c8 f i libvcruntime:undname.obj
 0001:0001f0d0       ?setPtrRef@DName@@QEAAAEAV1@XZ 00000001800200d0 f i libvcruntime:undname.obj
 0001:0001f0dc       ?status@DName@@QEBA?AW4DNameStatus@@XZ 00000001800200dc f i libvcruntime:undname.obj
 0001:0001f140       __unDName                  0000000180020140 f   libvcruntime:undname.obj
 0001:0001f168       __unDNameEx                0000000180020168 f   libvcruntime:undname.obj
 0001:0001f29c       _vsprintf_s_l              000000018002029c f i libvcruntime:undname.obj
 0001:0001f300       sprintf_s                  0000000180020300 f i libvcruntime:undname.obj
 0001:0001f354       unDNameGenerateCHPE        0000000180020354 f   libvcruntime:undname.obj
 0001:0001f45c       ??$__crt_interlocked_exchange_pointer@UHINSTANCE__@@PEAU1@@@YAPEAUHINSTANCE__@@PEDSEAU0@QEAU0@@Z 000000018002045c f i libvcruntime:winapi_downlevel.obj
 0001:0001f464       ??$__crt_interlocked_exchange_pointer@UHINSTANCE__@@PEAX@@YAPEAUHINSTANCE__@@PEDSEAU0@QEAX@Z 0000000180020464 f i libvcruntime:winapi_downlevel.obj
 0001:0001f46c       ??$__crt_interlocked_exchange_pointer@XPEAX@@YAPEAXPEDSEAXQEAX@Z 000000018002046c f i libvcruntime:winapi_downlevel.obj
 0001:0001f474       ??$__crt_interlocked_read_pointer@UHINSTANCE__@@@@YAPEAUHINSTANCE__@@PEDSEAU0@@Z 0000000180020474 f i libvcruntime:winapi_downlevel.obj
 0001:0001f47c       ??$__crt_interlocked_read_pointer@X@@YAPEAXPEDSEAX@Z 000000018002047c f i libvcruntime:winapi_downlevel.obj
 0001:0001f9bc       __vcrt_FlsAlloc            00000001800209bc f   libvcruntime:winapi_downlevel.obj
 0001:0001fa04       __vcrt_FlsFree             0000000180020a04 f   libvcruntime:winapi_downlevel.obj
 0001:0001fa4c       __vcrt_FlsGetValue         0000000180020a4c f   libvcruntime:winapi_downlevel.obj
 0001:0001fa94       __vcrt_FlsSetValue         0000000180020a94 f   libvcruntime:winapi_downlevel.obj
 0001:0001fae8       __vcrt_InitializeCriticalSectionEx 0000000180020ae8 f   libvcruntime:winapi_downlevel.obj
 0001:0001fb60       _CallSettingFrame          0000000180020b60 f   libvcruntime:handlers.obj
 0001:0001fbb0       _CallSettingFrame_LookupContinuationIndex 0000000180020bb0 f   libvcruntime:handlers.obj
 0001:0001fbe0       _CallSettingFrame_NotifyContinuationAddr 0000000180020be0 f   libvcruntime:handlers.obj
 0001:0001fc10       _CallSettingFrameEncoded   0000000180020c10 f   libvcruntime:handlers.obj
 0001:0001fc58       ??$__crt_fast_decode_pointer@P6AXPEB_W00I_K@Z@@YAP6AXPEB_W00I_K@ZQ6AX000I1@Z@Z 0000000180020c58 f i libucrt:invalid_parameter.obj
 0001:0001fc70       ??$__crt_fast_encode_pointer@P6AXPEB_W00I_K@Z@@YAP6AXPEB_W00I_K@ZQ6AX000I1@Z@Z 0000000180020c70 f i libucrt:invalid_parameter.obj
 0001:0001fc90       ??$initialize_from_array@$$BY00Q6AXPEB_W00I_K@Z@?$dual_state_global@P6AXPEB_W00I_K@Z@__crt_state_management@@QEAAXAEAY00Q6AXPEB_W00I_K@Z@Z 0000000180020c90 f i libucrt:invalid_parameter.obj
 0001:0001fc98       ??0?$cached@H@__crt_cached_ptd_host@@QEAA@XZ 0000000180020c98 f i libucrt:invalid_parameter.obj
 0001:0001fca0       ??0?$cached@K@__crt_cached_ptd_host@@QEAA@XZ 0000000180020ca0 f i libucrt:invalid_parameter.obj
 0001:0001fca8       ??0__crt_cached_ptd_host@@QEAA@QEAU__crt_locale_pointers@@@Z 0000000180020ca8 f i libucrt:invalid_parameter.obj
 0001:0001fce0       ??0__crt_scoped_get_last_error_reset@@QEAA@XZ 0000000180020ce0 f i libucrt:invalid_parameter.obj
 0001:0001fcfc       ??1__crt_cached_ptd_host@@QEAA@XZ 0000000180020cfc f i libucrt:invalid_parameter.obj
 0001:0001fd4c       ??1__crt_scoped_get_last_error_reset@@QEAA@XZ 0000000180020d4c f i libucrt:invalid_parameter.obj
 0001:0001fd58       ?__crt_rotate_pointer_value@@YA_K_KH@Z 0000000180020d58 f i libucrt:invalid_parameter.obj
 0001:0001fdd4       ?check_synchronize_global_state_index@__crt_cached_ptd_host@@AEAA_KAEBV__crt_scoped_get_last_error_reset@@@Z 0000000180020dd4 f i libucrt:invalid_parameter.obj
 0001:0001fdec       ?check_synchronize_global_state_index@__crt_cached_ptd_host@@AEAA_KXZ 0000000180020dec f i libucrt:invalid_parameter.obj
 0001:0001fe20       ?check_synchronize_per_thread_data@__crt_cached_ptd_host@@AEAAPEAU__acrt_ptd@@XZ 0000000180020e20 f i libucrt:invalid_parameter.obj
 0001:0001fe88       ?dangerous_get_state_array@?$dual_state_global@P6AXPEB_W00I_K@Z@__crt_state_management@@QEAAPEAP6AXPEB_W00I_K@ZXZ 0000000180020e88 f i libucrt:invalid_parameter.obj
 0001:0001fe8c       ?force_synchronize_global_state_index@__crt_cached_ptd_host@@AEAA_KAEBV__crt_scoped_get_last_error_reset@@@Z 0000000180020e8c f i libucrt:invalid_parameter.obj
 0001:0001fe98       ?force_synchronize_per_thread_data@__crt_cached_ptd_host@@AEAAPEAU__acrt_ptd@@XZ 0000000180020e98 f i libucrt:invalid_parameter.obj
 0001:0001feec       ?get_current_global_state_index@__crt_cached_ptd_host@@QEAA_KXZ 0000000180020eec f i libucrt:invalid_parameter.obj
 0001:0001ff2c       ?get_current_state_index@__crt_state_management@@YA_KAEBV__crt_scoped_get_last_error_reset@@@Z 0000000180020f2c f i libucrt:invalid_parameter.obj
 0001:0001ff30       ?get_current_state_index@__crt_state_management@@YA_KXZ 0000000180020f30 f i libucrt:invalid_parameter.obj
 0001:0001ff34       ?get_raw_ptd@__crt_cached_ptd_host@@QEAAPEAU__acrt_ptd@@XZ 0000000180020f34 f i libucrt:invalid_parameter.obj
 0001:0001ff9c       ?get_raw_ptd_noexit@__crt_cached_ptd_host@@QEAAPEAU__acrt_ptd@@XZ 0000000180020f9c f i libucrt:invalid_parameter.obj
 0001:00020008       ?try_synchronize_per_thread_data@__crt_cached_ptd_host@@AEAAPEAU__acrt_ptd@@XZ 0000000180021008 f i libucrt:invalid_parameter.obj
 0001:0002006c       ?unsafe_value@?$cached@H@__crt_cached_ptd_host@@QEAAHXZ 000000018002106c f i libucrt:invalid_parameter.obj
 0001:00020070       ?unsafe_value@?$cached@K@__crt_cached_ptd_host@@QEAAKXZ 0000000180021070 f i libucrt:invalid_parameter.obj
 0001:00020074       ?valid@?$cached@H@__crt_cached_ptd_host@@QEBA_NXZ 0000000180021074 f i libucrt:invalid_parameter.obj
 0001:00020078       ?valid@?$cached@K@__crt_cached_ptd_host@@QEBA_NXZ 0000000180021078 f i libucrt:invalid_parameter.obj
 0001:0002007c       ?value@?$dual_state_global@P6AXPEB_W00I_K@Z@__crt_state_management@@QEAAAEAP6AXPEB_W00I_K@ZAEAV__crt_cached_ptd_host@@@Z 000000018002107c f i libucrt:invalid_parameter.obj
 0001:000200c8       ?value@?$dual_state_global@P6AXPEB_W00I_K@Z@__crt_state_management@@QEAAAEAP6AXPEB_W00I_K@ZXZ 00000001800210c8 f i libucrt:invalid_parameter.obj
 0001:000200cc       __acrt_call_reportfault    00000001800210cc f   libucrt:invalid_parameter.obj
 0001:00020228       __acrt_enable_global_locale_sync 0000000180021228 f i libucrt:invalid_parameter.obj
 0001:00020234       __acrt_initialize_invalid_parameter_handler 0000000180021234 f   libucrt:invalid_parameter.obj
 0001:0002023c       __acrt_locale_changed      000000018002123c f i libucrt:invalid_parameter.obj
 0001:00020248       _get_invalid_parameter_handler 0000000180021248 f   libucrt:invalid_parameter.obj
 0001:00020264       _get_thread_local_invalid_parameter_handler 0000000180021264 f   libucrt:invalid_parameter.obj
 0001:00020280       _invalid_parameter         0000000180021280 f   libucrt:invalid_parameter.obj
 0001:0002031c       _invalid_parameter_internal 000000018002131c f   libucrt:invalid_parameter.obj
 0001:000203e8       _invalid_parameter_noinfo  00000001800213e8 f   libucrt:invalid_parameter.obj
 0001:00020408       _invalid_parameter_noinfo_noreturn 0000000180021408 f   libucrt:invalid_parameter.obj
 0001:00020438       _invoke_watson             0000000180021438 f   libucrt:invalid_parameter.obj
 0001:00020480       _set_invalid_parameter_handler 0000000180021480 f   libucrt:invalid_parameter.obj
 0001:000204b4       _set_thread_local_invalid_parameter_handler 00000001800214b4 f   libucrt:invalid_parameter.obj
 0001:000204dc       ?get_doserrno@__crt_cached_ptd_host@@QEAA@XZ 00000001800214dc f i libucrt:errno.obj
 0001:000204e4       ?get_errno@__crt_cached_ptd_host@@QEAA@XZ 00000001800214e4 f i libucrt:errno.obj
 0001:000204ec       ?set@?$cached@H@__crt_cached_ptd_host@@QEAAHH@Z 00000001800214ec f i libucrt:errno.obj
 0001:000204f8       ?set@?$cached@K@__crt_cached_ptd_host@@QEAAKK@Z 00000001800214f8 f i libucrt:errno.obj
 0001:00020504       __acrt_errno_from_os_error 0000000180021504 f   libucrt:errno.obj
 0001:0002054c       __acrt_errno_map_os_error  000000018002154c f   libucrt:errno.obj
 0001:00020594       __acrt_errno_map_os_error_ptd 0000000180021594 f   libucrt:errno.obj
 0001:000205b8       __doserrno                 00000001800215b8 f   libucrt:errno.obj
 0001:000205d8       _errno                     00000001800215d8 f   libucrt:errno.obj
 0001:000205f8       _get_doserrno              00000001800215f8 f   libucrt:errno.obj
 0001:00020634       _get_errno                 0000000180021634 f   libucrt:errno.obj
 0001:00020670       _set_doserrno              0000000180021670 f   libucrt:errno.obj
 0001:000206ac       _set_errno                 00000001800216ac f   libucrt:errno.obj
 0001:00020754       wcscpy_s                   0000000180021754 f   libucrt:wcscpy_s.obj
 0001:000208b0       wcsncpy_s                  00000001800218b0 f   libucrt:wcsncpy_s.obj
 0001:00021260       ??1?$__crt_simd_cleanup_guard@$00@@QEAA@XZ 0000000180022260 f i libucrt:strnlen.obj
 0001:00021264       ??1?$__crt_simd_cleanup_guard@$0A@@@QEAA@XZ 0000000180022264 f i libucrt:strnlen.obj
 0001:00021268       ?compare_equals@?$__crt_simd_traits@$00E@@SA?AT__m256i@@T2@0@Z 0000000180022268 f i libucrt:strnlen.obj
 0001:00021274       ?compare_equals@?$__crt_simd_traits@$00G@@SA?AT__m256i@@T2@0@Z 0000000180022274 f i libucrt:strnlen.obj
 0001:00021280       ?compare_equals@?$__crt_simd_traits@$0A@E@@SA?AT__m128i@@T2@0@Z 0000000180022280 f i libucrt:strnlen.obj
 0001:0002128c       ?compare_equals@?$__crt_simd_traits@$0A@G@@SA?AT__m128i@@T2@0@Z 000000018002228c f i libucrt:strnlen.obj
 0001:00021298       ?compute_byte_mask@?$__crt_simd_pack_traits@$00@@SAHT__m256i@@@Z 0000000180022298 f i libucrt:strnlen.obj
 0001:000212a4       ?compute_byte_mask@?$__crt_simd_pack_traits@$0A@@@SAHT__m128i@@@Z 00000001800222a4 f i libucrt:strnlen.obj
 0001:000212b0       ?get_zero_pack@?$__crt_simd_pack_traits@$00@@SA?AT__m256i@@XZ 00000001800222b0 f i libucrt:strnlen.obj
 0001:000212b8       ?get_zero_pack@?$__crt_simd_pack_traits@$0A@@@SA?AT__m128i@@XZ 00000001800222b8 f i libucrt:strnlen.obj
 0001:000212bc       strnlen                    00000001800222bc f   libucrt:strnlen.obj
 0001:0002140c       wcslen                     000000018002240c f   libucrt:strnlen.obj
 0001:00021538       wcsnlen                    0000000180022538 f   libucrt:strnlen.obj
 0001:00021710       wcsncmp                    0000000180022710 f   libucrt:wcsncmp.obj
 0001:0002173c       ??$?0AEBV?$stream_output_adapter@D@__crt_stdio_output@@AEB_KAEBQEBDAEAV__crt_cached_ptd_host@@AEBQEAD@?$format_validation_base@DV?$stream_output_adapter@D@__crt_stdio_output@@@__crt_stdio_output@@IEAA@AEBV?$stream_output_adapter@D@1@AEB_KAEBQEBDAEAV__crt_cached_ptd_host@@AEBQEAD@Z 000000018002273c f i libucrt:output.obj
 0001:000217ac       ??$?0AEBV?$stream_output_adapter@D@__crt_stdio_output@@AEB_KAEBQEBDAEAV__crt_cached_ptd_host@@AEBQEAD@?$positional_parameter_base@DV?$stream_output_adapter@D@__crt_stdio_output@@@__crt_stdio_output@@IEAA@AEBV?$stream_output_adapter@D@1@AEB_KAEBQEBDAEAV__crt_cached_ptd_host@@AEBQEAD@Z 00000001800227ac f i libucrt:output.obj
 0001:0002183c       ??$?0AEBV?$stream_output_adapter@D@__crt_stdio_output@@AEB_KAEBQEBDAEAV__crt_cached_ptd_host@@AEBQEAD@?$standard_base@DV?$stream_output_adapter@D@__crt_stdio_output@@@__crt_stdio_output@@IEAA@AEBV?$stream_output_adapter@D@1@AEB_KAEBQEBDAEAV__crt_cached_ptd_host@@AEBQEAD@Z 000000018002283c f i libucrt:output.obj
 0001:000218ac       ??$?0AEBV?$stream_output_adapter@_W@__crt_stdio_output@@AEB_KAEBQEB_WAEAV__crt_cached_ptd_host@@AEBQEAD@?$format_validation_base@_WV?$stream_output_adapter@_W@__crt_stdio_output@@@__crt_stdio_output@@IEAA@AEBV?$stream_output_adapter@_W@1@AEB_KAEBQEB_WAEAV__crt_cached_ptd_host@@AEBQEAD@Z 00000001800228ac f i libucrt:output.obj
 0001:00021920       ??$?0AEBV?$stream_output_adapter@_W@__crt_stdio_output@@AEB_KAEBQEB_WAEAV__crt_cached_ptd_host@@AEBQEAD@?$positional_parameter_base@_WV?$stream_output_adapter@_W@__crt_stdio_output@@@__crt_stdio_output@@IEAA@AEBV?$stream_output_adapter@_W@1@AEB_KAEBQEB_WAEAV__crt_cached_ptd_host@@AEBQEAD@Z 0000000180022920 f i libucrt:output.obj
 0001:000219b4       ??$?0AEBV?$stream_output_adapter@_W@__crt_stdio_output@@AEB_KAEBQEB_WAEAV__crt_cached_ptd_host@@AEBQEAD@?$standard_base@_WV?$stream_output_adapter@_W@__crt_stdio_output@@@__crt_stdio_output@@IEAA@AEBV?$stream_output_adapter@_W@1@AEB_KAEBQEB_WAEAV__crt_cached_ptd_host@@AEBQEAD@Z 00000001800229b4 f i libucrt:output.obj
 0001:00021a28       ??$?0AEBV?$string_output_adapter@D@__crt_stdio_output@@AEB_KAEBQEBDAEAV__crt_cached_ptd_host@@AEBQEAD@?$format_validation_base@DV?$string_output_adapter@D@__crt_stdio_output@@@__crt_stdio_output@@IEAA@AEBV?$string_output_adapter@D@1@AEB_KAEBQEBDAEAV__crt_cached_ptd_host@@AEBQEAD@Z 0000000180022a28 f i libucrt:output.obj
 0001:00021a98       ??$?0AEBV?$string_output_adapter@D@__crt_stdio_output@@AEB_KAEBQEBDAEAV__crt_cached_ptd_host@@AEBQEAD@?$positional_parameter_base@DV?$string_output_adapter@D@__crt_stdio_output@@@__crt_stdio_output@@IEAA@AEBV?$string_output_adapter@D@1@AEB_KAEBQEBDAEAV__crt_cached_ptd_host@@AEBQEAD@Z 0000000180022a98 f i libucrt:output.obj
 0001:00021b28       ??$?0AEBV?$string_output_adapter@D@__crt_stdio_output@@AEB_KAEBQEBDAEAV__crt_cached_ptd_host@@AEBQEAD@?$standard_base@DV?$string_output_adapter@D@__crt_stdio_output@@@__crt_stdio_output@@IEAA@AEBV?$string_output_adapter@D@1@AEB_KAEBQEBDAEAV__crt_cached_ptd_host@@AEBQEAD@Z 0000000180022b28 f i libucrt:output.obj
 0001:00021b98       ??$?0AEBV?$string_output_adapter@_W@__crt_stdio_output@@AEB_KAEBQEB_WAEAV__crt_cached_ptd_host@@AEBQEAD@?$format_validation_base@_WV?$string_output_adapter@_W@__crt_stdio_output@@@__crt_stdio_output@@IEAA@AEBV?$string_output_adapter@_W@1@AEB_KAEBQEB_WAEAV__crt_cached_ptd_host@@AEBQEAD@Z 0000000180022b98 f i libucrt:output.obj
 0001:00021c0c       ??$?0AEBV?$string_output_adapter@_W@__crt_stdio_output@@AEB_KAEBQEB_WAEAV__crt_cached_ptd_host@@AEBQEAD@?$positional_parameter_base@_WV?$string_output_adapter@_W@__crt_stdio_output@@@__crt_stdio_output@@IEAA@AEBV?$string_output_adapter@_W@1@AEB_KAEBQEB_WAEAV__crt_cached_ptd_host@@AEBQEAD@Z 0000000180022c0c f i libucrt:output.obj
 0001:00021ca0       ??$?0AEBV?$string_output_adapter@_W@__crt_stdio_output@@AEB_KAEBQEB_WAEAV__crt_cached_ptd_host@@AEBQEAD@?$standard_base@_WV?$string_output_adapter@_W@__crt_stdio_output@@@__crt_stdio_output@@IEAA@AEBV?$string_output_adapter@_W@1@AEB_KAEBQEB_WAEAV__crt_cached_ptd_host@@AEBQEAD@Z 0000000180022ca0 f i libucrt:output.obj
 0001:00021f84       ??$__crt_interlocked_read@J@@YAJPEDJ@Z 0000000180022f84 f i libucrt:output.obj
 0001:00021f88       ??$_tcstol_internal@DPEAPEAD$0A@@@YAJAEAV__crt_cached_ptd_host@@QEBDQEAPEADH@Z 0000000180022f88 f i libucrt:output.obj
 0001:00021fb8       ??$_tcstol_internal@_WPEAPEA_W$0A@@@YAJAEAV__crt_cached_ptd_host@@QEB_WQEAPEA_WH@Z 0000000180022fb8 f i libucrt:output.obj
 0001:000230f8       ??$count@D@formatting_buffer@__crt_stdio_output@@QEBA_KXZ 00000001800240f8 f i libucrt:output.obj
 0001:00023114       ??$count@_W@formatting_buffer@__crt_stdio_output@@QEBA_KXZ 0000000180024114 f i libucrt:output.obj
 0001:00023130       ??$data@D@formatting_buffer@__crt_stdio_output@@QEAAPEADXZ 0000000180024130 f i libucrt:output.obj
 0001:00023140       ??$data@_W@formatting_buffer@__crt_stdio_output@@QEAAPEA_WXZ 0000000180024140 f i libucrt:output.obj
 0001:00023150       ??$ensure_buffer_is_big_enough@D@formatting_buffer@__crt_stdio_output@@QEAA_N_KAEAV__crt_cached_ptd_host@@@Z 0000000180024150 f i libucrt:output.obj
 0001:000231f8       ??$ensure_buffer_is_big_enough@_W@formatting_buffer@__crt_stdio_output@@QEAA_N_KAEAV__crt_cached_ptd_host@@@Z 00000001800241f8 f i libucrt:output.obj
 0001:000232a4       ??$extract_argument_from_va_list@C_J@?$positional_parameter_base@DV?$stream_output_adapter@D@__crt_stdio_output@@@__crt_stdio_output@@IEAA_NAEA_J@Z 00000001800242a4 f i libucrt:output.obj
 0001:000233b0       ??$extract_argument_from_va_list@C_J@?$positional_parameter_base@DV?$string_output_adapter@D@__crt_stdio_output@@@__crt_stdio_output@@IEAA_NAEA_J@Z 00000001800243b0 f i libucrt:output.obj
 0001:000234bc       ??$extract_argument_from_va_list@C_J@?$positional_parameter_base@_WV?$stream_output_adapter@_W@__crt_stdio_output@@@__crt_stdio_output@@IEAA_NAEA_J@Z 00000001800244bc f i libucrt:output.obj
 0001:000235c8       ??$extract_argument_from_va_list@C_J@?$positional_parameter_base@_WV?$string_output_adapter@_W@__crt_stdio_output@@@__crt_stdio_output@@IEAA_NAEA_J@Z 00000001800245c8 f i libucrt:output.obj
 0001:000236d4       ??$extract_argument_from_va_list@C_J@?$standard_base@DV?$stream_output_adapter@D@__crt_stdio_output@@@__crt_stdio_output@@IEAA_NAEA_J@Z 00000001800246d4 f i libucrt:output.obj
 0001:000236ec       ??$extract_argument_from_va_list@C_J@?$standard_base@DV?$string_output_adapter@D@__crt_stdio_output@@@__crt_stdio_output@@IEAA_NAEA_J@Z 00000001800246ec f i libucrt:output.obj
 0001:00023704       ??$extract_argument_from_va_list@C_J@?$standard_base@_WV?$stream_output_adapter@_W@__crt_stdio_output@@@__crt_stdio_output@@IEAA_NAEA_J@Z 0000000180024704 f i libucrt:output.obj
 0001:0002371c       ??$extract_argument_from_va_list@C_J@?$standard_base@_WV?$string_output_adapter@_W@__crt_stdio_output@@@__crt_stdio_output@@IEAA_NAEA_J@Z 000000018002471c f i libucrt:output.obj
 0001:00023734       ??$extract_argument_from_va_list@E_J@?$positional_parameter_base@DV?$stream_output_adapter@D@__crt_stdio_output@@@__crt_stdio_output@@IEAA_NAEA_J@Z 0000000180024734 f i libucrt:output.obj
 0001:0002383c       ??$extract_argument_from_va_list@E_J@?$positional_parameter_base@DV?$string_output_adapter@D@__crt_stdio_output@@@__crt_stdio_output@@IEAA_NAEA_J@Z 000000018002483c f i libucrt:output.obj
 0001:00023944       ??$extract_argument_from_va_list@E_J@?$positional_parameter_base@_WV?$stream_output_adapter@_W@__crt_stdio_output@@@__crt_stdio_output@@IEAA_NAEA_J@Z 0000000180024944 f i libucrt:output.obj
 0001:00023a50       ??$extract_argument_from_va_list@E_J@?$positional_parameter_base@_WV?$string_output_adapter@_W@__crt_stdio_output@@@__crt_stdio_output@@IEAA_NAEA_J@Z 0000000180024a50 f i libucrt:output.obj
 0001:00023b5c       ??$extract_argument_from_va_list@E_J@?$standard_base@DV?$stream_output_adapter@D@__crt_stdio_output@@@__crt_stdio_output@@IEAA_NAEA_J@Z 0000000180024b5c f i libucrt:output.obj
 0001:00023b74       ??$extract_argument_from_va_list@E_J@?$standard_base@DV?$string_output_adapter@D@__crt_stdio_output@@@__crt_stdio_output@@IEAA_NAEA_J@Z 0000000180024b74 f i libucrt:output.obj
 0001:00023b8c       ??$extract_argument_from_va_list@E_J@?$standard_base@_WV?$stream_output_adapter@_W@__crt_stdio_output@@@__crt_stdio_output@@IEAA_NAEA_J@Z 0000000180024b8c f i libucrt:output.obj
 0001:00023ba4       ??$extract_argument_from_va_list@E_J@?$standard_base@_WV?$string_output_adapter@_W@__crt_stdio_output@@@__crt_stdio_output@@IEAA_NAEA_J@Z 0000000180024ba4 f i libucrt:output.obj
 0001:00023bbc       ??$extract_argument_from_va_list@F_J@?$positional_parameter_base@DV?$stream_output_adapter@D@__crt_stdio_output@@@__crt_stdio_output@@IEAA_NAEA_J@Z 0000000180024bbc f i libucrt:output.obj
 0001:00023cc8       ??$extract_argument_from_va_list@F_J@?$positional_parameter_base@DV?$string_output_adapter@D@__crt_stdio_output@@@__crt_stdio_output@@IEAA_NAEA_J@Z 0000000180024cc8 f i libucrt:output.obj
 0001:00023dd4       ??$extract_argument_from_va_list@F_J@?$positional_parameter_base@_WV?$stream_output_adapter@_W@__crt_stdio_output@@@__crt_stdio_output@@IEAA_NAEA_J@Z 0000000180024dd4 f i libucrt:output.obj
 0001:00023ee0       ??$extract_argument_from_va_list@F_J@?$positional_parameter_base@_WV?$string_output_adapter@_W@__crt_stdio_output@@@__crt_stdio_output@@IEAA_NAEA_J@Z 0000000180024ee0 f i libucrt:output.obj
 0001:00023fec       ??$extract_argument_from_va_list@F_J@?$standard_base@DV?$stream_output_adapter@D@__crt_stdio_output@@@__crt_stdio_output@@IEAA_NAEA_J@Z 0000000180024fec f i libucrt:output.obj
 0001:00024004       ??$extract_argument_from_va_list@F_J@?$standard_base@DV?$string_output_adapter@D@__crt_stdio_output@@@__crt_stdio_output@@IEAA_NAEA_J@Z 0000000180025004 f i libucrt:output.obj
 0001:0002401c       ??$extract_argument_from_va_list@F_J@?$standard_base@_WV?$stream_output_adapter@_W@__crt_stdio_output@@@__crt_stdio_output@@IEAA_NAEA_J@Z 000000018002501c f i libucrt:output.obj
 0001:00024034       ??$extract_argument_from_va_list@F_J@?$standard_base@_WV?$string_output_adapter@_W@__crt_stdio_output@@@__crt_stdio_output@@IEAA_NAEA_J@Z 0000000180025034 f i libucrt:output.obj
 0001:0002404c       ??$extract_argument_from_va_list@GD@?$positional_parameter_base@DV?$stream_output_adapter@D@__crt_stdio_output@@@__crt_stdio_output@@IEAA_NAEAD@Z 000000018002504c f i libucrt:output.obj
 0001:00024150       ??$extract_argument_from_va_list@GD@?$positional_parameter_base@DV?$string_output_adapter@D@__crt_stdio_output@@@__crt_stdio_output@@IEAA_NAEAD@Z 0000000180025150 f i libucrt:output.obj
 0001:00024254       ??$extract_argument_from_va_list@GD@?$standard_base@DV?$stream_output_adapter@D@__crt_stdio_output@@@__crt_stdio_output@@IEAA_NAEAD@Z 0000000180025254 f i libucrt:output.obj
 0001:00024268       ??$extract_argument_from_va_list@GD@?$standard_base@DV?$string_output_adapter@D@__crt_stdio_output@@@__crt_stdio_output@@IEAA_NAEAD@Z 0000000180025268 f i libucrt:output.obj
 0001:0002427c       ??$extract_argument_from_va_list@G_J@?$positional_parameter_base@DV?$stream_output_adapter@D@__crt_stdio_output@@@__crt_stdio_output@@IEAA_NAEA_J@Z 000000018002527c f i libucrt:output.obj
 0001:00024384       ??$extract_argument_from_va_list@G_J@?$positional_parameter_base@DV?$string_output_adapter@D@__crt_stdio_output@@@__crt_stdio_output@@IEAA_NAEA_J@Z 0000000180025384 f i libucrt:output.obj
 0001:0002448c       ??$extract_argument_from_va_list@G_J@?$positional_parameter_base@_WV?$stream_output_adapter@_W@__crt_stdio_output@@@__crt_stdio_output@@IEAA_NAEA_J@Z 000000018002548c f i libucrt:output.obj
 0001:00024598       ??$extract_argument_from_va_list@G_J@?$positional_parameter_base@_WV?$string_output_adapter@_W@__crt_stdio_output@@@__crt_stdio_output@@IEAA_NAEA_J@Z 0000000180025598 f i libucrt:output.obj
 0001:000246a4       ??$extract_argument_from_va_list@G_J@?$standard_base@DV?$stream_output_adapter@D@__crt_stdio_output@@@__crt_stdio_output@@IEAA_NAEA_J@Z 00000001800256a4 f i libucrt:output.obj
 0001:000246bc       ??$extract_argument_from_va_list@G_J@?$standard_base@DV?$string_output_adapter@D@__crt_stdio_output@@@__crt_stdio_output@@IEAA_NAEA_J@Z 00000001800256bc f i libucrt:output.obj
 0001:000246d4       ??$extract_argument_from_va_list@G_J@?$standard_base@_WV?$stream_output_adapter@_W@__crt_stdio_output@@@__crt_stdio_output@@IEAA_NAEA_J@Z 00000001800256d4 f i libucrt:output.obj
 0001:000246ec       ??$extract_argument_from_va_list@G_J@?$standard_base@_WV?$string_output_adapter@_W@__crt_stdio_output@@@__crt_stdio_output@@IEAA_NAEA_J@Z 00000001800256ec f i libucrt:output.obj
 0001:00024704       ??$extract_argument_from_va_list@H_J@?$positional_parameter_base@DV?$stream_output_adapter@D@__crt_stdio_output@@@__crt_stdio_output@@IEAA_NAEA_J@Z 0000000180025704 f i libucrt:output.obj
 0001:0002480c       ??$extract_argument_from_va_list@H_J@?$positional_parameter_base@DV?$string_output_adapter@D@__crt_stdio_output@@@__crt_stdio_output@@IEAA_NAEA_J@Z 000000018002580c f i libucrt:output.obj
 0001:00024914       ??$extract_argument_from_va_list@H_J@?$positional_parameter_base@_WV?$stream_output_adapter@_W@__crt_stdio_output@@@__crt_stdio_output@@IEAA_NAEA_J@Z 0000000180025914 f i libucrt:output.obj
 0001:00024a20       ??$extract_argument_from_va_list@H_J@?$positional_parameter_base@_WV?$string_output_adapter@_W@__crt_stdio_output@@@__crt_stdio_output@@IEAA_NAEA_J@Z 0000000180025a20 f i libucrt:output.obj
 0001:00024b2c       ??$extract_argument_from_va_list@H_J@?$standard_base@DV?$stream_output_adapter@D@__crt_stdio_output@@@__crt_stdio_output@@IEAA_NAEA_J@Z 0000000180025b2c f i libucrt:output.obj
 0001:00024b44       ??$extract_argument_from_va_list@H_J@?$standard_base@DV?$string_output_adapter@D@__crt_stdio_output@@@__crt_stdio_output@@IEAA_NAEA_J@Z 0000000180025b44 f i libucrt:output.obj
 0001:00024b5c       ??$extract_argument_from_va_list@H_J@?$standard_base@_WV?$stream_output_adapter@_W@__crt_stdio_output@@@__crt_stdio_output@@IEAA_NAEA_J@Z 0000000180025b5c f i libucrt:output.obj
 0001:00024b74       ??$extract_argument_from_va_list@H_J@?$standard_base@_WV?$string_output_adapter@_W@__crt_stdio_output@@@__crt_stdio_output@@IEAA_NAEA_J@Z 0000000180025b74 f i libucrt:output.obj
 0001:00024b8c       ??$extract_argument_from_va_list@I_J@?$positional_parameter_base@DV?$stream_output_adapter@D@__crt_stdio_output@@@__crt_stdio_output@@IEAA_NAEA_J@Z 0000000180025b8c f i libucrt:output.obj
 0001:00024c94       ??$extract_argument_from_va_list@I_J@?$positional_parameter_base@DV?$string_output_adapter@D@__crt_stdio_output@@@__crt_stdio_output@@IEAA_NAEA_J@Z 0000000180025c94 f i libucrt:output.obj
 0001:00024d9c       ??$extract_argument_from_va_list@I_J@?$positional_parameter_base@_WV?$stream_output_adapter@_W@__crt_stdio_output@@@__crt_stdio_output@@IEAA_NAEA_J@Z 0000000180025d9c f i libucrt:output.obj
 0001:00024ea4       ??$extract_argument_from_va_list@I_J@?$positional_parameter_base@_WV?$string_output_adapter@_W@__crt_stdio_output@@@__crt_stdio_output@@IEAA_NAEA_J@Z 0000000180025ea4 f i libucrt:output.obj
 0001:00024fac       ??$extract_argument_from_va_list@I_J@?$standard_base@DV?$stream_output_adapter@D@__crt_stdio_output@@@__crt_stdio_output@@IEAA_NAEA_J@Z 0000000180025fac f i libucrt:output.obj
 0001:00024fc4       ??$extract_argument_from_va_list@I_J@?$standard_base@DV?$string_output_adapter@D@__crt_stdio_output@@@__crt_stdio_output@@IEAA_NAEA_J@Z 0000000180025fc4 f i libucrt:output.obj
 0001:00024fdc       ??$extract_argument_from_va_list@I_J@?$standard_base@_WV?$stream_output_adapter@_W@__crt_stdio_output@@@__crt_stdio_output@@IEAA_NAEA_J@Z 0000000180025fdc f i libucrt:output.obj
 0001:00024ff4       ??$extract_argument_from_va_list@I_J@?$standard_base@_WV?$string_output_adapter@_W@__crt_stdio_output@@@__crt_stdio_output@@IEAA_NAEA_J@Z 0000000180025ff4 f i libucrt:output.obj
 0001:0002500c       ??$extract_argument_from_va_list@PEADPEAD@?$positional_parameter_base@DV?$stream_output_adapter@D@__crt_stdio_output@@@__crt_stdio_output@@IEAA_NAEAPEAD@Z 000000018002600c f i libucrt:output.obj
 0001:00025114       ??$extract_argument_from_va_list@PEADPEAD@?$positional_parameter_base@DV?$string_output_adapter@D@__crt_stdio_output@@@__crt_stdio_output@@IEAA_NAEAPEAD@Z 0000000180026114 f i libucrt:output.obj
 0001:0002521c       ??$extract_argument_from_va_list@PEADPEAD@?$positional_parameter_base@_WV?$stream_output_adapter@_W@__crt_stdio_output@@@__crt_stdio_output@@IEAA_NAEAPEAD@Z 000000018002621c f i libucrt:output.obj
 0001:00025328       ??$extract_argument_from_va_list@PEADPEAD@?$positional_parameter_base@_WV?$string_output_adapter@_W@__crt_stdio_output@@@__crt_stdio_output@@IEAA_NAEAPEAD@Z 0000000180026328 f i libucrt:output.obj
 0001:00025434       ??$extract_argument_from_va_list@PEADPEAD@?$standard_base@DV?$stream_output_adapter@D@__crt_stdio_output@@@__crt_stdio_output@@IEAA_NAEAPEAD@Z 0000000180026434 f i libucrt:output.obj
 0001:0002544c       ??$extract_argument_from_va_list@PEADPEAD@?$standard_base@DV?$string_output_adapter@D@__crt_stdio_output@@@__crt_stdio_output@@IEAA_NAEAPEAD@Z 000000018002644c f i libucrt:output.obj
 0001:00025464       ??$extract_argument_from_va_list@PEADPEAD@?$standard_base@_WV?$stream_output_adapter@_W@__crt_stdio_output@@@__crt_stdio_output@@IEAA_NAEAPEAD@Z 0000000180026464 f i libucrt:output.obj
 0001:0002547c       ??$extract_argument_from_va_list@PEADPEAD@?$standard_base@_WV?$string_output_adapter@_W@__crt_stdio_output@@@__crt_stdio_output@@IEAA_NAEAPEAD@Z 000000018002647c f i libucrt:output.obj
 0001:00025494       ??$extract_argument_from_va_list@PEAUansi_string@?1??type_case_Z@?$output_processor@DV?$stream_output_adapter@D@__crt_stdio_output@@V?$format_validation_base@DV?$stream_output_adapter@D@__crt_stdio_output@@@2@@__crt_stdio_output@@AEAA_NXZ@PEAU1?1??234@AEAA_NXZ@@?$standard_base@DV?$stream_output_adapter@D@__crt_stdio_output@@@__crt_stdio_output@@IEAA_NAEAPEAUansi_string@?1??type_case_Z@?$output_processor@DV?$stream_output_adapter@D@__crt_stdio_output@@V?$format_validation_base@DV?$stream_output_adapter@D@__crt_stdio_output@@@2@@1@AEAA_NXZ@@Z 0000000180026494 f i libucrt:output.obj
 0001:000254ac       ??$extract_argument_from_va_list@PEAUansi_string@?1??type_case_Z@?$output_processor@DV?$stream_output_adapter@D@__crt_stdio_output@@V?$positional_parameter_base@DV?$stream_output_adapter@D@__crt_stdio_output@@@2@@__crt_stdio_output@@AEAA_NXZ@PEAU1?1??234@AEAA_NXZ@@?$positional_parameter_base@DV?$stream_output_adapter@D@__crt_stdio_output@@@__crt_stdio_output@@IEAA_NAEAPEAUansi_string@?1??type_case_Z@?$output_processor@DV?$stream_output_adapter@D@__crt_stdio_output@@V?$positional_parameter_base@DV?$stream_output_adapter@D@__crt_stdio_output@@@2@@1@AEAA_NXZ@@Z 00000001800264ac f i libucrt:output.obj
 0001:000255b4       ??$extract_argument_from_va_list@PEAUansi_string@?1??type_case_Z@?$output_processor@DV?$stream_output_adapter@D@__crt_stdio_output@@V?$positional_parameter_base@DV?$stream_output_adapter@D@__crt_stdio_output@@@2@@__crt_stdio_output@@AEAA_NXZ@PEAU1?1??234@AEAA_NXZ@@?$standard_base@DV?$stream_output_adapter@D@__crt_stdio_output@@@__crt_stdio_output@@IEAA_NAEAPEAUansi_string@?1??type_case_Z@?$output_processor@DV?$stream_output_adapter@D@__crt_stdio_output@@V?$positional_parameter_base@DV?$stream_output_adapter@D@__crt_stdio_output@@@2@@1@AEAA_NXZ@@Z 00000001800265b4 f i libucrt:output.obj
 0001:000255cc       ??$extract_argument_from_va_list@PEAUansi_string@?1??type_case_Z@?$output_processor@DV?$stream_output_adapter@D@__crt_stdio_output@@V?$standard_base@DV?$stream_output_adapter@D@__crt_stdio_output@@@2@@__crt_stdio_output@@AEAA_NXZ@PEAU1?1??234@AEAA_NXZ@@?$standard_base@DV?$stream_output_adapter@D@__crt_stdio_output@@@__crt_stdio_output@@IEAA_NAEAPEAUansi_string@?1??type_case_Z@?$output_processor@DV?$stream_output_adapter@D@__crt_stdio_output@@V?$standard_base@DV?$stream_output_adapter@D@__crt_stdio_output@@@2@@1@AEAA_NXZ@@Z 00000001800265cc f i libucrt:output.obj
 0001:000255e4       ??$extract_argument_from_va_list@PEAUansi_string@?1??type_case_Z@?$output_processor@DV?$string_output_adapter@D@__crt_stdio_output@@V?$format_validation_base@DV?$string_output_adapter@D@__crt_stdio_output@@@2@@__crt_stdio_output@@AEAA_NXZ@PEAU1?1??234@AEAA_NXZ@@?$standard_base@DV?$string_output_adapter@D@__crt_stdio_output@@@__crt_stdio_output@@IEAA_NAEAPEAUansi_string@?1??type_case_Z@?$output_processor@DV?$string_output_adapter@D@__crt_stdio_output@@V?$format_validation_base@DV?$string_output_adapter@D@__crt_stdio_output@@@2@@1@AEAA_NXZ@@Z 00000001800265e4 f i libucrt:output.obj
 0001:000255fc       ??$extract_argument_from_va_list@PEAUansi_string@?1??type_case_Z@?$output_processor@DV?$string_output_adapter@D@__crt_stdio_output@@V?$positional_parameter_base@DV?$string_output_adapter@D@__crt_stdio_output@@@2@@__crt_stdio_output@@AEAA_NXZ@PEAU1?1??234@AEAA_NXZ@@?$positional_parameter_base@DV?$string_output_adapter@D@__crt_stdio_output@@@__crt_stdio_output@@IEAA_NAEAPEAUansi_string@?1??type_case_Z@?$output_processor@DV?$string_output_adapter@D@__crt_stdio_output@@V?$positional_parameter_base@DV?$string_output_adapter@D@__crt_stdio_output@@@2@@1@AEAA_NXZ@@Z 00000001800265fc f i libucrt:output.obj
 0001:00025704       ??$extract_argument_from_va_list@PEAUansi_string@?1??type_case_Z@?$output_processor@DV?$string_output_adapter@D@__crt_stdio_output@@V?$positional_parameter_base@DV?$string_output_adapter@D@__crt_stdio_output@@@2@@__crt_stdio_output@@AEAA_NXZ@PEAU1?1??234@AEAA_NXZ@@?$standard_base@DV?$string_output_adapter@D@__crt_stdio_output@@@__crt_stdio_output@@IEAA_NAEAPEAUansi_string@?1??type_case_Z@?$output_processor@DV?$string_output_adapter@D@__crt_stdio_output@@V?$positional_parameter_base@DV?$string_output_adapter@D@__crt_stdio_output@@@2@@1@AEAA_NXZ@@Z 0000000180026704 f i libucrt:output.obj
 0001:0002571c       ??$extract_argument_from_va_list@PEAUansi_string@?1??type_case_Z@?$output_processor@DV?$string_output_adapter@D@__crt_stdio_output@@V?$standard_base@DV?$string_output_adapter@D@__crt_stdio_output@@@2@@__crt_stdio_output@@AEAA_NXZ@PEAU1?1??234@AEAA_NXZ@@?$standard_base@DV?$string_output_adapter@D@__crt_stdio_output@@@__crt_stdio_output@@IEAA_NAEAPEAUansi_string@?1??type_case_Z@?$output_processor@DV?$string_output_adapter@D@__crt_stdio_output@@V?$standard_base@DV?$string_output_adapter@D@__crt_stdio_output@@@2@@1@AEAA_NXZ@@Z 000000018002671c f i libucrt:output.obj
 0001:00025734       ??$extract_argument_from_va_list@PEAUansi_string@?1??type_case_Z@?$output_processor@_WV?$stream_output_adapter@_W@__crt_stdio_output@@V?$format_validation_base@_WV?$stream_output_adapter@_W@__crt_stdio_output@@@2@@__crt_stdio_output@@AEAA_NXZ@PEAU1?1??234@AEAA_NXZ@@?$standard_base@_WV?$stream_output_adapter@_W@__crt_stdio_output@@@__crt_stdio_output@@IEAA_NAEAPEAUansi_string@?1??type_case_Z@?$output_processor@_WV?$stream_output_adapter@_W@__crt_stdio_output@@V?$format_validation_base@_WV?$stream_output_adapter@_W@__crt_stdio_output@@@2@@1@AEAA_NXZ@@Z 0000000180026734 f i libucrt:output.obj
 0001:0002574c       ??$extract_argument_from_va_list@PEAUansi_string@?1??type_case_Z@?$output_processor@_WV?$stream_output_adapter@_W@__crt_stdio_output@@V?$positional_parameter_base@_WV?$stream_output_adapter@_W@__crt_stdio_output@@@2@@__crt_stdio_output@@AEAA_NXZ@PEAU1?1??234@AEAA_NXZ@@?$positional_parameter_base@_WV?$stream_output_adapter@_W@__crt_stdio_output@@@__crt_stdio_output@@IEAA_NAEAPEAUansi_string@?1??type_case_Z@?$output_processor@_WV?$stream_output_adapter@_W@__crt_stdio_output@@V?$positional_parameter_base@_WV?$stream_output_adapter@_W@__crt_stdio_output@@@2@@1@AEAA_NXZ@@Z 000000018002674c f i libucrt:output.obj
 0001:00025858       ??$extract_argument_from_va_list@PEAUansi_string@?1??type_case_Z@?$output_processor@_WV?$stream_output_adapter@_W@__crt_stdio_output@@V?$positional_parameter_base@_WV?$stream_output_adapter@_W@__crt_stdio_output@@@2@@__crt_stdio_output@@AEAA_NXZ@PEAU1?1??234@AEAA_NXZ@@?$standard_base@_WV?$stream_output_adapter@_W@__crt_stdio_output@@@__crt_stdio_output@@IEAA_NAEAPEAUansi_string@?1??type_case_Z@?$output_processor@_WV?$stream_output_adapter@_W@__crt_stdio_output@@V?$positional_parameter_base@_WV?$stream_output_adapter@_W@__crt_stdio_output@@@2@@1@AEAA_NXZ@@Z 0000000180026858 f i libucrt:output.obj
 0001:00025870       ??$extract_argument_from_va_list@PEAUansi_string@?1??type_case_Z@?$output_processor@_WV?$stream_output_adapter@_W@__crt_stdio_output@@V?$standard_base@_WV?$stream_output_adapter@_W@__crt_stdio_output@@@2@@__crt_stdio_output@@AEAA_NXZ@PEAU1?1??234@AEAA_NXZ@@?$standard_base@_WV?$stream_output_adapter@_W@__crt_stdio_output@@@__crt_stdio_output@@IEAA_NAEAPEAUansi_string@?1??type_case_Z@?$output_processor@_WV?$stream_output_adapter@_W@__crt_stdio_output@@V?$standard_base@_WV?$stream_output_adapter@_W@__crt_stdio_output@@@2@@1@AEAA_NXZ@@Z 0000000180026870 f i libucrt:output.obj
 0001:00025888       ??$extract_argument_from_va_list@PEAUansi_string@?1??type_case_Z@?$output_processor@_WV?$string_output_adapter@_W@__crt_stdio_output@@V?$format_validation_base@_WV?$string_output_adapter@_W@__crt_stdio_output@@@2@@__crt_stdio_output@@AEAA_NXZ@PEAU1?1??234@AEAA_NXZ@@?$standard_base@_WV?$string_output_adapter@_W@__crt_stdio_output@@@__crt_stdio_output@@IEAA_NAEAPEAUansi_string@?1??type_case_Z@?$output_processor@_WV?$string_output_adapter@_W@__crt_stdio_output@@V?$format_validation_base@_WV?$string_output_adapter@_W@__crt_stdio_output@@@2@@1@AEAA_NXZ@@Z 0000000180026888 f i libucrt:output.obj
 0001:000258a0       ??$extract_argument_from_va_list@PEAUansi_string@?1??type_case_Z@?$output_processor@_WV?$string_output_adapter@_W@__crt_stdio_output@@V?$positional_parameter_base@_WV?$string_output_adapter@_W@__crt_stdio_output@@@2@@__crt_stdio_output@@AEAA_NXZ@PEAU1?1??234@AEAA_NXZ@@?$positional_parameter_base@_WV?$string_output_adapter@_W@__crt_stdio_output@@@__crt_stdio_output@@IEAA_NAEAPEAUansi_string@?1??type_case_Z@?$output_processor@_WV?$string_output_adapter@_W@__crt_stdio_output@@V?$positional_parameter_base@_WV?$string_output_adapter@_W@__crt_stdio_output@@@2@@1@AEAA_NXZ@@Z 00000001800268a0 f i libucrt:output.obj
 0001:000259ac       ??$extract_argument_from_va_list@PEAUansi_string@?1??type_case_Z@?$output_processor@_WV?$string_output_adapter@_W@__crt_stdio_output@@V?$positional_parameter_base@_WV?$string_output_adapter@_W@__crt_stdio_output@@@2@@__crt_stdio_output@@AEAA_NXZ@PEAU1?1??234@AEAA_NXZ@@?$standard_base@_WV?$string_output_adapter@_W@__crt_stdio_output@@@__crt_stdio_output@@IEAA_NAEAPEAUansi_string@?1??type_case_Z@?$output_processor@_WV?$string_output_adapter@_W@__crt_stdio_output@@V?$positional_parameter_base@_WV?$string_output_adapter@_W@__crt_stdio_output@@@2@@1@AEAA_NXZ@@Z 00000001800269ac f i libucrt:output.obj
 0001:000259c4       ??$extract_argument_from_va_list@PEAUansi_string@?1??type_case_Z@?$output_processor@_WV?$string_output_adapter@_W@__crt_stdio_output@@V?$standard_base@_WV?$string_output_adapter@_W@__crt_stdio_output@@@2@@__crt_stdio_output@@AEAA_NXZ@PEAU1?1??234@AEAA_NXZ@@?$standard_base@_WV?$string_output_adapter@_W@__crt_stdio_output@@@__crt_stdio_output@@IEAA_NAEAPEAUansi_string@?1??type_case_Z@?$output_processor@_WV?$string_output_adapter@_W@__crt_stdio_output@@V?$standard_base@_WV?$string_output_adapter@_W@__crt_stdio_output@@@2@@1@AEAA_NXZ@@Z 00000001800269c4 f i libucrt:output.obj
 0001:000259dc       ??$extract_argument_from_va_list@PEAXPEAX@?$positional_parameter_base@DV?$stream_output_adapter@D@__crt_stdio_output@@@__crt_stdio_output@@IEAA_NAEAPEAX@Z 00000001800269dc f i libucrt:output.obj
 0001:00025ae4       ??$extract_argument_from_va_list@PEAXPEAX@?$positional_parameter_base@DV?$string_output_adapter@D@__crt_stdio_output@@@__crt_stdio_output@@IEAA_NAEAPEAX@Z 0000000180026ae4 f i libucrt:output.obj
 0001:00025bec       ??$extract_argument_from_va_list@PEAXPEAX@?$positional_parameter_base@_WV?$stream_output_adapter@_W@__crt_stdio_output@@@__crt_stdio_output@@IEAA_NAEAPEAX@Z 0000000180026bec f i libucrt:output.obj
 0001:00025cf8       ??$extract_argument_from_va_list@PEAXPEAX@?$positional_parameter_base@_WV?$string_output_adapter@_W@__crt_stdio_output@@@__crt_stdio_output@@IEAA_NAEAPEAX@Z 0000000180026cf8 f i libucrt:output.obj
 0001:00025e04       ??$extract_argument_from_va_list@PEAXPEAX@?$standard_base@DV?$stream_output_adapter@D@__crt_stdio_output@@@__crt_stdio_output@@IEAA_NAEAPEAX@Z 0000000180026e04 f i libucrt:output.obj
 0001:00025e1c       ??$extract_argument_from_va_list@PEAXPEAX@?$standard_base@DV?$string_output_adapter@D@__crt_stdio_output@@@__crt_stdio_output@@IEAA_NAEAPEAX@Z 0000000180026e1c f i libucrt:output.obj
 0001:00025e34       ??$extract_argument_from_va_list@PEAXPEAX@?$standard_base@_WV?$stream_output_adapter@_W@__crt_stdio_output@@@__crt_stdio_output@@IEAA_NAEAPEAX@Z 0000000180026e34 f i libucrt:output.obj
 0001:00025e4c       ??$extract_argument_from_va_list@PEAXPEAX@?$standard_base@_WV?$string_output_adapter@_W@__crt_stdio_output@@@__crt_stdio_output@@IEAA_NAEAPEAX@Z 0000000180026e4c f i libucrt:output.obj
 0001:00025e64       ??$extract_argument_from_va_list@U_CRT_DOUBLE@@U1@@?$positional_parameter_base@DV?$stream_output_adapter@D@__crt_stdio_output@@@__crt_stdio_output@@IEAA_NAEAU_CRT_DOUBLE@@@Z 0000000180026e64 f i libucrt:output.obj
 0001:00025f6c       ??$extract_argument_from_va_list@U_CRT_DOUBLE@@U1@@?$positional_parameter_base@DV?$string_output_adapter@D@__crt_stdio_output@@@__crt_stdio_output@@IEAA_NAEAU_CRT_DOUBLE@@@Z 0000000180026f6c f i libucrt:output.obj
 0001:00026074       ??$extract_argument_from_va_list@U_CRT_DOUBLE@@U1@@?$positional_parameter_base@_WV?$stream_output_adapter@_W@__crt_stdio_output@@@__crt_stdio_output@@IEAA_NAEAU_CRT_DOUBLE@@@Z 0000000180027074 f i libucrt:output.obj
 0001:00026180       ??$extract_argument_from_va_list@U_CRT_DOUBLE@@U1@@?$positional_parameter_base@_WV?$string_output_adapter@_W@__crt_stdio_output@@@__crt_stdio_output@@IEAA_NAEAU_CRT_DOUBLE@@@Z 0000000180027180 f i libucrt:output.obj
 0001:0002628c       ??$extract_argument_from_va_list@U_CRT_DOUBLE@@U1@@?$standard_base@DV?$stream_output_adapter@D@__crt_stdio_output@@@__crt_stdio_output@@IEAA_NAEAU_CRT_DOUBLE@@@Z 000000018002728c f i libucrt:output.obj
 0001:000262a4       ??$extract_argument_from_va_list@U_CRT_DOUBLE@@U1@@?$standard_base@DV?$string_output_adapter@D@__crt_stdio_output@@@__crt_stdio_output@@IEAA_NAEAU_CRT_DOUBLE@@@Z 00000001800272a4 f i libucrt:output.obj
 0001:000262bc       ??$extract_argument_from_va_list@U_CRT_DOUBLE@@U1@@?$standard_base@_WV?$stream_output_adapter@_W@__crt_stdio_output@@@__crt_stdio_output@@IEAA_NAEAU_CRT_DOUBLE@@@Z 00000001800272bc f i libucrt:output.obj
 0001:000262d4       ??$extract_argument_from_va_list@U_CRT_DOUBLE@@U1@@?$standard_base@_WV?$string_output_adapter@_W@__crt_stdio_output@@@__crt_stdio_output@@IEAA_NAEAU_CRT_DOUBLE@@@Z 00000001800272d4 f i libucrt:output.obj
 0001:000262ec       ??$extract_argument_from_va_list@_J_J@?$positional_parameter_base@DV?$stream_output_adapter@D@__crt_stdio_output@@@__crt_stdio_output@@IEAA_NAEA_J@Z 00000001800272ec f i libucrt:output.obj
 0001:000263f4       ??$extract_argument_from_va_list@_J_J@?$positional_parameter_base@DV?$string_output_adapter@D@__crt_stdio_output@@@__crt_stdio_output@@IEAA_NAEA_J@Z 00000001800273f4 f i libucrt:output.obj
 0001:000264fc       ??$extract_argument_from_va_list@_J_J@?$positional_parameter_base@_WV?$stream_output_adapter@_W@__crt_stdio_output@@@__crt_stdio_output@@IEAA_NAEA_J@Z 00000001800274fc f i libucrt:output.obj
 0001:00026608       ??$extract_argument_from_va_list@_J_J@?$positional_parameter_base@_WV?$string_output_adapter@_W@__crt_stdio_output@@@__crt_stdio_output@@IEAA_NAEA_J@Z 0000000180027608 f i libucrt:output.obj
 0001:00026714       ??$extract_argument_from_va_list@_J_J@?$standard_base@DV?$stream_output_adapter@D@__crt_stdio_output@@@__crt_stdio_output@@IEAA_NAEA_J@Z 0000000180027714 f i libucrt:output.obj
 0001:0002672c       ??$extract_argument_from_va_list@_J_J@?$standard_base@DV?$string_output_adapter@D@__crt_stdio_output@@@__crt_stdio_output@@IEAA_NAEA_J@Z 000000018002772c f i libucrt:output.obj
 0001:00026744       ??$extract_argument_from_va_list@_J_J@?$standard_base@_WV?$stream_output_adapter@_W@__crt_stdio_output@@@__crt_stdio_output@@IEAA_NAEA_J@Z 0000000180027744 f i libucrt:output.obj
 0001:0002675c       ??$extract_argument_from_va_list@_J_J@?$standard_base@_WV?$string_output_adapter@_W@__crt_stdio_output@@@__crt_stdio_output@@IEAA_NAEA_J@Z 000000018002775c f i libucrt:output.obj
 0001:00026774       ??$extract_argument_from_va_list@_K_J@?$positional_parameter_base@DV?$stream_output_adapter@D@__crt_stdio_output@@@__crt_stdio_output@@IEAA_NAEA_J@Z 0000000180027774 f i libucrt:output.obj
 0001:0002687c       ??$extract_argument_from_va_list@_K_J@?$positional_parameter_base@DV?$string_output_adapter@D@__crt_stdio_output@@@__crt_stdio_output@@IEAA_NAEA_J@Z 000000018002787c f i libucrt:output.obj
 0001:00026984       ??$extract_argument_from_va_list@_K_J@?$positional_parameter_base@_WV?$stream_output_adapter@_W@__crt_stdio_output@@@__crt_stdio_output@@IEAA_NAEA_J@Z 0000000180027984 f i libucrt:output.obj
 0001:00026a90       ??$extract_argument_from_va_list@_K_J@?$positional_parameter_base@_WV?$string_output_adapter@_W@__crt_stdio_output@@@__crt_stdio_output@@IEAA_NAEA_J@Z 0000000180027a90 f i libucrt:output.obj
 0001:00026b9c       ??$extract_argument_from_va_list@_K_J@?$standard_base@DV?$stream_output_adapter@D@__crt_stdio_output@@@__crt_stdio_output@@IEAA_NAEA_J@Z 0000000180027b9c f i libucrt:output.obj
 0001:00026bb4       ??$extract_argument_from_va_list@_K_J@?$standard_base@DV?$string_output_adapter@D@__crt_stdio_output@@@__crt_stdio_output@@IEAA_NAEA_J@Z 0000000180027bb4 f i libucrt:output.obj
 0001:00026bcc       ??$extract_argument_from_va_list@_K_J@?$standard_base@_WV?$stream_output_adapter@_W@__crt_stdio_output@@@__crt_stdio_output@@IEAA_NAEA_J@Z 0000000180027bcc f i libucrt:output.obj
 0001:00026be4       ??$extract_argument_from_va_list@_K_J@?$standard_base@_WV?$string_output_adapter@_W@__crt_stdio_output@@@__crt_stdio_output@@IEAA_NAEA_J@Z 0000000180027be4 f i libucrt:output.obj
 0001:00026bfc       ??$extract_argument_from_va_list@_W_W@?$positional_parameter_base@DV?$stream_output_adapter@D@__crt_stdio_output@@@__crt_stdio_output@@IEAA_NAEA_W@Z 0000000180027bfc f i libucrt:output.obj
 0001:00026d04       ??$extract_argument_from_va_list@_W_W@?$positional_parameter_base@DV?$string_output_adapter@D@__crt_stdio_output@@@__crt_stdio_output@@IEAA_NAEA_W@Z 0000000180027d04 f i libucrt:output.obj
 0001:00026e0c       ??$extract_argument_from_va_list@_W_W@?$positional_parameter_base@_WV?$stream_output_adapter@_W@__crt_stdio_output@@@__crt_stdio_output@@IEAA_NAEA_W@Z 0000000180027e0c f i libucrt:output.obj
 0001:00026f18       ??$extract_argument_from_va_list@_W_W@?$positional_parameter_base@_WV?$string_output_adapter@_W@__crt_stdio_output@@@__crt_stdio_output@@IEAA_NAEA_W@Z 0000000180027f18 f i libucrt:output.obj
 0001:00027024       ??$extract_argument_from_va_list@_W_W@?$standard_base@DV?$stream_output_adapter@D@__crt_stdio_output@@@__crt_stdio_output@@IEAA_NAEA_W@Z 0000000180028024 f i libucrt:output.obj
 0001:0002703c       ??$extract_argument_from_va_list@_W_W@?$standard_base@DV?$string_output_adapter@D@__crt_stdio_output@@@__crt_stdio_output@@IEAA_NAEA_W@Z 000000018002803c f i libucrt:output.obj
 0001:00027054       ??$extract_argument_from_va_list@_W_W@?$standard_base@_WV?$stream_output_adapter@_W@__crt_stdio_output@@@__crt_stdio_output@@IEAA_NAEA_W@Z 0000000180028054 f i libucrt:output.obj
 0001:0002706c       ??$extract_argument_from_va_list@_W_W@?$standard_base@_WV?$string_output_adapter@_W@__crt_stdio_output@@@__crt_stdio_output@@IEAA_NAEA_W@Z 000000018002806c f i libucrt:output.obj
 0001:00027084       ??$get_parameter_type@D@?$positional_parameter_base@DV?$stream_output_adapter@D@__crt_stdio_output@@@__crt_stdio_output@@CA?AW4parameter_type@01@PEAD@Z 0000000180028084 f i libucrt:output.obj
 0001:0002708c       ??$get_parameter_type@D@?$positional_parameter_base@DV?$string_output_adapter@D@__crt_stdio_output@@@__crt_stdio_output@@CA?AW4parameter_type@01@PEAD@Z 000000018002808c f i libucrt:output.obj
 0001:00027094       ??$get_parameter_type@D@?$positional_parameter_base@_WV?$stream_output_adapter@_W@__crt_stdio_output@@@__crt_stdio_output@@CA?AW4parameter_type@01@PEAD@Z 0000000180028094 f i libucrt:output.obj
 0001:0002709c       ??$get_parameter_type@D@?$positional_parameter_base@_WV?$string_output_adapter@_W@__crt_stdio_output@@@__crt_stdio_output@@CA?AW4parameter_type@01@PEAD@Z 000000018002809c f i libucrt:output.obj
 0001:000270a4       ??$get_parameter_type@Uansi_string@?1??type_case_Z@?$output_processor@DV?$stream_output_adapter@D@__crt_stdio_output@@V?$positional_parameter_base@DV?$stream_output_adapter@D@__crt_stdio_output@@@2@@__crt_stdio_output@@AEAA_NXZ@@?$positional_parameter_base@DV?$stream_output_adapter@D@__crt_stdio_output@@@__crt_stdio_output@@CA?AW4parameter_type@01@PEAUansi_string@?1??type_case_Z@?$output_processor@DV?$stream_output_adapter@D@__crt_stdio_output@@V?$positional_parameter_base@DV?$stream_output_adapter@D@__crt_stdio_output@@@2@@1@AEAA_NXZ@@Z 00000001800280a4 f i libucrt:output.obj
 0001:000270ac       ??$get_parameter_type@Uansi_string@?1??type_case_Z@?$output_processor@DV?$string_output_adapter@D@__crt_stdio_output@@V?$positional_parameter_base@DV?$string_output_adapter@D@__crt_stdio_output@@@2@@__crt_stdio_output@@AEAA_NXZ@@?$positional_parameter_base@DV?$string_output_adapter@D@__crt_stdio_output@@@__crt_stdio_output@@CA?AW4parameter_type@01@PEAUansi_string@?1??type_case_Z@?$output_processor@DV?$string_output_adapter@D@__crt_stdio_output@@V?$positional_parameter_base@DV?$string_output_adapter@D@__crt_stdio_output@@@2@@1@AEAA_NXZ@@Z 00000001800280ac f i libucrt:output.obj
 0001:000270b4       ??$get_parameter_type@Uansi_string@?1??type_case_Z@?$output_processor@_WV?$stream_output_adapter@_W@__crt_stdio_output@@V?$positional_parameter_base@_WV?$stream_output_adapter@_W@__crt_stdio_output@@@2@@__crt_stdio_output@@AEAA_NXZ@@?$positional_parameter_base@_WV?$stream_output_adapter@_W@__crt_stdio_output@@@__crt_stdio_output@@CA?AW4parameter_type@01@PEAUansi_string@?1??type_case_Z@?$output_processor@_WV?$stream_output_adapter@_W@__crt_stdio_output@@V?$positional_parameter_base@_WV?$stream_output_adapter@_W@__crt_stdio_output@@@2@@1@AEAA_NXZ@@Z 00000001800280b4 f i libucrt:output.obj
 0001:000270bc       ??$get_parameter_type@Uansi_string@?1??type_case_Z@?$output_processor@_WV?$string_output_adapter@_W@__crt_stdio_output@@V?$positional_parameter_base@_WV?$string_output_adapter@_W@__crt_stdio_output@@@2@@__crt_stdio_output@@AEAA_NXZ@@?$positional_parameter_base@_WV?$string_output_adapter@_W@__crt_stdio_output@@@__crt_stdio_output@@CA?AW4parameter_type@01@PEAUansi_string@?1??type_case_Z@?$output_processor@_WV?$string_output_adapter@_W@__crt_stdio_output@@V?$positional_parameter_base@_WV?$string_output_adapter@_W@__crt_stdio_output@@@2@@1@AEAA_NXZ@@Z 00000001800280bc f i libucrt:output.obj
 0001:000270c4       ??$get_parameter_type@X@?$positional_parameter_base@DV?$stream_output_adapter@D@__crt_stdio_output@@@__crt_stdio_output@@CA?AW4parameter_type@01@PEAX@Z 00000001800280c4 f i libucrt:output.obj
 0001:000270cc       ??$get_parameter_type@X@?$positional_parameter_base@DV?$string_output_adapter@D@__crt_stdio_output@@@__crt_stdio_output@@CA?AW4parameter_type@01@PEAX@Z 00000001800280cc f i libucrt:output.obj
 0001:000270d4       ??$get_parameter_type@X@?$positional_parameter_base@_WV?$stream_output_adapter@_W@__crt_stdio_output@@@__crt_stdio_output@@CA?AW4parameter_type@01@PEAX@Z 00000001800280d4 f i libucrt:output.obj
 0001:000270dc       ??$get_parameter_type@X@?$positional_parameter_base@_WV?$string_output_adapter@_W@__crt_stdio_output@@@__crt_stdio_output@@CA?AW4parameter_type@01@PEAX@Z 00000001800280dc f i libucrt:output.obj
 0001:000270e4       ??$is_character_specifier@D@?$positional_parameter_base@DV?$stream_output_adapter@D@__crt_stdio_output@@@__crt_stdio_output@@CA_ND@Z 00000001800280e4 f i libucrt:output.obj
 0001:000270f0       ??$is_character_specifier@D@?$positional_parameter_base@DV?$string_output_adapter@D@__crt_stdio_output@@@__crt_stdio_output@@CA_ND@Z 00000001800280f0 f i libucrt:output.obj
 0001:000270fc       ??$is_character_specifier@_W@?$positional_parameter_base@_WV?$stream_output_adapter@_W@__crt_stdio_output@@@__crt_stdio_output@@CA_N_W@Z 00000001800280fc f i libucrt:output.obj
 0001:0002710c       ??$is_character_specifier@_W@?$positional_parameter_base@_WV?$string_output_adapter@_W@__crt_stdio_output@@@__crt_stdio_output@@CA_N_W@Z 000000018002810c f i libucrt:output.obj
 0001:0002711c       ??$is_integral_specifier@D@?$positional_parameter_base@DV?$stream_output_adapter@D@__crt_stdio_output@@@__crt_stdio_output@@CA_ND@Z 000000018002811c f i libucrt:output.obj
 0001:00027140       ??$is_integral_specifier@D@?$positional_parameter_base@DV?$string_output_adapter@D@__crt_stdio_output@@@__crt_stdio_output@@CA_ND@Z 0000000180028140 f i libucrt:output.obj
 0001:00027164       ??$is_integral_specifier@_W@?$positional_parameter_base@_WV?$stream_output_adapter@_W@__crt_stdio_output@@@__crt_stdio_output@@CA_N_W@Z 0000000180028164 f i libucrt:output.obj
 0001:0002718c       ??$is_integral_specifier@_W@?$positional_parameter_base@_WV?$string_output_adapter@_W@__crt_stdio_output@@@__crt_stdio_output@@CA_N_W@Z 000000018002818c f i libucrt:output.obj
 0001:000271b4       ??$is_overflow_condition@K@__crt_strtox@@YA_NIK@Z 00000001800281b4 f i libucrt:output.obj
 0001:000271dc       ??$is_pointer_specifier@D@?$positional_parameter_base@DV?$stream_output_adapter@D@__crt_stdio_output@@@__crt_stdio_output@@CA_ND@Z 00000001800281dc f i libucrt:output.obj
 0001:000271e4       ??$is_pointer_specifier@D@?$positional_parameter_base@DV?$string_output_adapter@D@__crt_stdio_output@@@__crt_stdio_output@@CA_ND@Z 00000001800281e4 f i libucrt:output.obj
 0001:000271ec       ??$is_pointer_specifier@_W@?$positional_parameter_base@_WV?$stream_output_adapter@_W@__crt_stdio_output@@@__crt_stdio_output@@CA_N_W@Z 00000001800281ec f i libucrt:output.obj
 0001:000271f4       ??$is_pointer_specifier@_W@?$positional_parameter_base@_WV?$string_output_adapter@_W@__crt_stdio_output@@@__crt_stdio_output@@CA_N_W@Z 00000001800281f4 f i libucrt:output.obj
 0001:000271fc       ??$is_string_specifier@D@?$positional_parameter_base@DV?$stream_output_adapter@D@__crt_stdio_output@@@__crt_stdio_output@@CA_ND@Z 00000001800281fc f i libucrt:output.obj
 0001:00027208       ??$is_string_specifier@D@?$positional_parameter_base@DV?$string_output_adapter@D@__crt_stdio_output@@@__crt_stdio_output@@CA_ND@Z 0000000180028208 f i libucrt:output.obj
 0001:00027214       ??$is_string_specifier@_W@?$positional_parameter_base@_WV?$stream_output_adapter@_W@__crt_stdio_output@@@__crt_stdio_output@@CA_N_W@Z 0000000180028214 f i libucrt:output.obj
 0001:00027224       ??$is_string_specifier@_W@?$positional_parameter_base@_WV?$string_output_adapter@_W@__crt_stdio_output@@@__crt_stdio_output@@CA_N_W@Z 0000000180028224 f i libucrt:output.obj
 0001:00027234       ??$is_wide_character_specifier@D@__crt_stdio_output@@YA_N_KDW4length_modifier@0@@Z 0000000180028234 f i libucrt:output.obj
 0001:0002725c       ??$is_wide_character_specifier@_W@__crt_stdio_output@@YA_N_K_WW4length_modifier@0@@Z 000000018002825c f i libucrt:output.obj
 0001:0002729c       ??$make_c_string_character_source@DPEAPEAD@__crt_strtox@@YA?AV?$c_string_character_source@D@0@QEBDQEAPEAD@Z 000000018002829c f i libucrt:output.obj
 0001:000272b0       ??$make_c_string_character_source@_WPEAPEA_W@__crt_strtox@@YA?AV?$c_string_character_source@_W@0@QEB_WQEAPEA_W@Z 00000001800282b0 f i libucrt:output.obj
 0001:000272c4       ??$parse_integer@KV?$c_string_character_source@D@__crt_strtox@@$0A@@__crt_strtox@@YAKAEAV__crt_cached_ptd_host@@V?$c_string_character_source@D@0@H_N@Z 00000001800282c4 f i libucrt:output.obj
 0001:00027578       ??$parse_integer@KV?$c_string_character_source@_W@__crt_strtox@@$0A@@__crt_strtox@@YAKAEAV__crt_cached_ptd_host@@V?$c_string_character_source@_W@0@H_N@Z 0000000180028578 f i libucrt:output.obj
 0001:00027cf0       ??$peek_va_arg@C@__crt_stdio_output@@YACPEAD@Z 0000000180028cf0 f i libucrt:output.obj
 0001:00027cf4       ??$peek_va_arg@E@__crt_stdio_output@@YAEPEAD@Z 0000000180028cf4 f i libucrt:output.obj
 0001:00027cf8       ??$peek_va_arg@F@__crt_stdio_output@@YAFPEAD@Z 0000000180028cf8 f i libucrt:output.obj
 0001:00027cfc       ??$peek_va_arg@G@__crt_stdio_output@@YAGPEAD@Z 0000000180028cfc f i libucrt:output.obj
 0001:00027d00       ??$peek_va_arg@H@__crt_stdio_output@@YAHPEAD@Z 0000000180028d00 f i libucrt:output.obj
 0001:00027d04       ??$peek_va_arg@I@__crt_stdio_output@@YAIPEAD@Z 0000000180028d04 f i libucrt:output.obj
 0001:00027d08       ??$peek_va_arg@PEAD@__crt_stdio_output@@YAPEADPEAD@Z 0000000180028d08 f i libucrt:output.obj
 0001:00027d0c       ??$peek_va_arg@PEAUansi_string@?1??type_case_Z@?$output_processor@DV?$stream_output_adapter@D@__crt_stdio_output@@V?$positional_parameter_base@DV?$stream_output_adapter@D@__crt_stdio_output@@@2@@__crt_stdio_output@@AEAA_NXZ@@__crt_stdio_output@@YAPEAUansi_string@?1??type_case_Z@?$output_processor@DV?$stream_output_adapter@D@__crt_stdio_output@@V?$positional_parameter_base@DV?$stream_output_adapter@D@__crt_stdio_output@@@2@@0@AEAA_NXZ@PEAD@Z 0000000180028d0c f i libucrt:output.obj
 0001:00027d10       ??$peek_va_arg@PEAUansi_string@?1??type_case_Z@?$output_processor@DV?$string_output_adapter@D@__crt_stdio_output@@V?$positional_parameter_base@DV?$string_output_adapter@D@__crt_stdio_output@@@2@@__crt_stdio_output@@AEAA_NXZ@@__crt_stdio_output@@YAPEAUansi_string@?1??type_case_Z@?$output_processor@DV?$string_output_adapter@D@__crt_stdio_output@@V?$positional_parameter_base@DV?$string_output_adapter@D@__crt_stdio_output@@@2@@0@AEAA_NXZ@PEAD@Z 0000000180028d10 f i libucrt:output.obj
 0001:00027d14       ??$peek_va_arg@PEAUansi_string@?1??type_case_Z@?$output_processor@_WV?$stream_output_adapter@_W@__crt_stdio_output@@V?$positional_parameter_base@_WV?$stream_output_adapter@_W@__crt_stdio_output@@@2@@__crt_stdio_output@@AEAA_NXZ@@__crt_stdio_output@@YAPEAUansi_string@?1??type_case_Z@?$output_processor@_WV?$stream_output_adapter@_W@__crt_stdio_output@@V?$positional_parameter_base@_WV?$stream_output_adapter@_W@__crt_stdio_output@@@2@@0@AEAA_NXZ@PEAD@Z 0000000180028d14 f i libucrt:output.obj
 0001:00027d18       ??$peek_va_arg@PEAUansi_string@?1??type_case_Z@?$output_processor@_WV?$string_output_adapter@_W@__crt_stdio_output@@V?$positional_parameter_base@_WV?$string_output_adapter@_W@__crt_stdio_output@@@2@@__crt_stdio_output@@AEAA_NXZ@@__crt_stdio_output@@YAPEAUansi_string@?1??type_case_Z@?$output_processor@_WV?$string_output_adapter@_W@__crt_stdio_output@@V?$positional_parameter_base@_WV?$string_output_adapter@_W@__crt_stdio_output@@@2@@0@AEAA_NXZ@PEAD@Z 0000000180028d18 f i libucrt:output.obj
 0001:00027d1c       ??$peek_va_arg@PEAX@__crt_stdio_output@@YAPEAXPEAD@Z 0000000180028d1c f i libucrt:output.obj
 0001:00027d20       ??$peek_va_arg@U_CRT_DOUBLE@@@__crt_stdio_output@@YA?AU_CRT_DOUBLE@@PEAD@Z 0000000180028d20 f i libucrt:output.obj
 0001:00027d24       ??$peek_va_arg@_J@__crt_stdio_output@@YA_JPEAD@Z 0000000180028d24 f i libucrt:output.obj
 0001:00027d28       ??$peek_va_arg@_K@__crt_stdio_output@@YA_KPEAD@Z 0000000180028d28 f i libucrt:output.obj
 0001:00027d2c       ??$peek_va_arg@_W@__crt_stdio_output@@YA_WPEAD@Z 0000000180028d2c f i libucrt:output.obj
 0001:00027d30       ??$puttc_nolock_internal@AEBDPEAU_iobuf@@AEAV__crt_cached_ptd_host@@@?$__crt_char_traits@D@@SAHAEBD$$QEAPEAU_iobuf@@AEAV__crt_cached_ptd_host@@@Z 0000000180028d30 f i libucrt:output.obj
 0001:00027d3c       ??$puttc_nolock_internal@AEB_WPEAU_iobuf@@AEAV__crt_cached_ptd_host@@@?$__crt_char_traits@_W@@SAGAEB_W$$QEAPEAU_iobuf@@AEAV__crt_cached_ptd_host@@@Z 0000000180028d3c f i libucrt:output.obj
 0001:00027d48       ??$read_va_arg@C@__crt_stdio_output@@YACAEAPEAD@Z 0000000180028d48 f i libucrt:output.obj
 0001:00027d58       ??$read_va_arg@E@__crt_stdio_output@@YAEAEAPEAD@Z 0000000180028d58 f i libucrt:output.obj
 0001:00027d68       ??$read_va_arg@F@__crt_stdio_output@@YAFAEAPEAD@Z 0000000180028d68 f i libucrt:output.obj
 0001:00027d78       ??$read_va_arg@G@__crt_stdio_output@@YAGAEAPEAD@Z 0000000180028d78 f i libucrt:output.obj
 0001:00027d88       ??$read_va_arg@H@__crt_stdio_output@@YAHAEAPEAD@Z 0000000180028d88 f i libucrt:output.obj
 0001:00027d98       ??$read_va_arg@I@__crt_stdio_output@@YAIAEAPEAD@Z 0000000180028d98 f i libucrt:output.obj
 0001:00027da8       ??$read_va_arg@PEAD@__crt_stdio_output@@YAPEADAEAPEAD@Z 0000000180028da8 f i libucrt:output.obj
 0001:00027db8       ??$read_va_arg@PEAUansi_string@?1??type_case_Z@?$output_processor@DV?$stream_output_adapter@D@__crt_stdio_output@@V?$format_validation_base@DV?$stream_output_adapter@D@__crt_stdio_output@@@2@@__crt_stdio_output@@AEAA_NXZ@@__crt_stdio_output@@YAPEAUansi_string@?1??type_case_Z@?$output_processor@DV?$stream_output_adapter@D@__crt_stdio_output@@V?$format_validation_base@DV?$stream_output_adapter@D@__crt_stdio_output@@@2@@0@AEAA_NXZ@AEAPEAD@Z 0000000180028db8 f i libucrt:output.obj
 0001:00027dc8       ??$read_va_arg@PEAUansi_string@?1??type_case_Z@?$output_processor@DV?$stream_output_adapter@D@__crt_stdio_output@@V?$positional_parameter_base@DV?$stream_output_adapter@D@__crt_stdio_output@@@2@@__crt_stdio_output@@AEAA_NXZ@@__crt_stdio_output@@YAPEAUansi_string@?1??type_case_Z@?$output_processor@DV?$stream_output_adapter@D@__crt_stdio_output@@V?$positional_parameter_base@DV?$stream_output_adapter@D@__crt_stdio_output@@@2@@0@AEAA_NXZ@AEAPEAD@Z 0000000180028dc8 f i libucrt:output.obj
 0001:00027dd8       ??$read_va_arg@PEAUansi_string@?1??type_case_Z@?$output_processor@DV?$stream_output_adapter@D@__crt_stdio_output@@V?$standard_base@DV?$stream_output_adapter@D@__crt_stdio_output@@@2@@__crt_stdio_output@@AEAA_NXZ@@__crt_stdio_output@@YAPEAUansi_string@?1??type_case_Z@?$output_processor@DV?$stream_output_adapter@D@__crt_stdio_output@@V?$standard_base@DV?$stream_output_adapter@D@__crt_stdio_output@@@2@@0@AEAA_NXZ@AEAPEAD@Z 0000000180028dd8 f i libucrt:output.obj
 0001:00027de8       ??$read_va_arg@PEAUansi_string@?1??type_case_Z@?$output_processor@DV?$string_output_adapter@D@__crt_stdio_output@@V?$format_validation_base@DV?$string_output_adapter@D@__crt_stdio_output@@@2@@__crt_stdio_output@@AEAA_NXZ@@__crt_stdio_output@@YAPEAUansi_string@?1??type_case_Z@?$output_processor@DV?$string_output_adapter@D@__crt_stdio_output@@V?$format_validation_base@DV?$string_output_adapter@D@__crt_stdio_output@@@2@@0@AEAA_NXZ@AEAPEAD@Z 0000000180028de8 f i libucrt:output.obj
 0001:00027df8       ??$read_va_arg@PEAUansi_string@?1??type_case_Z@?$output_processor@DV?$string_output_adapter@D@__crt_stdio_output@@V?$positional_parameter_base@DV?$string_output_adapter@D@__crt_stdio_output@@@2@@__crt_stdio_output@@AEAA_NXZ@@__crt_stdio_output@@YAPEAUansi_string@?1??type_case_Z@?$output_processor@DV?$string_output_adapter@D@__crt_stdio_output@@V?$positional_parameter_base@DV?$string_output_adapter@D@__crt_stdio_output@@@2@@0@AEAA_NXZ@AEAPEAD@Z 0000000180028df8 f i libucrt:output.obj
 0001:00027e08       ??$read_va_arg@PEAUansi_string@?1??type_case_Z@?$output_processor@DV?$string_output_adapter@D@__crt_stdio_output@@V?$standard_base@DV?$string_output_adapter@D@__crt_stdio_output@@@2@@__crt_stdio_output@@AEAA_NXZ@@__crt_stdio_output@@YAPEAUansi_string@?1??type_case_Z@?$output_processor@DV?$string_output_adapter@D@__crt_stdio_output@@V?$standard_base@DV?$string_output_adapter@D@__crt_stdio_output@@@2@@0@AEAA_NXZ@AEAPEAD@Z 0000000180028e08 f i libucrt:output.obj
 0001:00027e18       ??$read_va_arg@PEAUansi_string@?1??type_case_Z@?$output_processor@_WV?$stream_output_adapter@_W@__crt_stdio_output@@V?$format_validation_base@_WV?$stream_output_adapter@_W@__crt_stdio_output@@@2@@__crt_stdio_output@@AEAA_NXZ@@__crt_stdio_output@@YAPEAUansi_string@?1??type_case_Z@?$output_processor@_WV?$stream_output_adapter@_W@__crt_stdio_output@@V?$format_validation_base@_WV?$stream_output_adapter@_W@__crt_stdio_output@@@2@@0@AEAA_NXZ@AEAPEAD@Z 0000000180028e18 f i libucrt:output.obj
 0001:00027e28       ??$read_va_arg@PEAUansi_string@?1??type_case_Z@?$output_processor@_WV?$stream_output_adapter@_W@__crt_stdio_output@@V?$positional_parameter_base@_WV?$stream_output_adapter@_W@__crt_stdio_output@@@2@@__crt_stdio_output@@AEAA_NXZ@@__crt_stdio_output@@YAPEAUansi_string@?1??type_case_Z@?$output_processor@_WV?$stream_output_adapter@_W@__crt_stdio_output@@V?$positional_parameter_base@_WV?$stream_output_adapter@_W@__crt_stdio_output@@@2@@0@AEAA_NXZ@AEAPEAD@Z 0000000180028e28 f i libucrt:output.obj
 0001:00027e38       ??$read_va_arg@PEAUansi_string@?1??type_case_Z@?$output_processor@_WV?$stream_output_adapter@_W@__crt_stdio_output@@V?$standard_base@_WV?$stream_output_adapter@_W@__crt_stdio_output@@@2@@__crt_stdio_output@@AEAA_NXZ@@__crt_stdio_output@@YAPEAUansi_string@?1??type_case_Z@?$output_processor@_WV?$stream_output_adapter@_W@__crt_stdio_output@@V?$standard_base@_WV?$stream_output_adapter@_W@__crt_stdio_output@@@2@@0@AEAA_NXZ@AEAPEAD@Z 0000000180028e38 f i libucrt:output.obj
 0001:00027e48       ??$read_va_arg@PEAUansi_string@?1??type_case_Z@?$output_processor@_WV?$string_output_adapter@_W@__crt_stdio_output@@V?$format_validation_base@_WV?$string_output_adapter@_W@__crt_stdio_output@@@2@@__crt_stdio_output@@AEAA_NXZ@@__crt_stdio_output@@YAPEAUansi_string@?1??type_case_Z@?$output_processor@_WV?$string_output_adapter@_W@__crt_stdio_output@@V?$format_validation_base@_WV?$string_output_adapter@_W@__crt_stdio_output@@@2@@0@AEAA_NXZ@AEAPEAD@Z 0000000180028e48 f i libucrt:output.obj
 0001:00027e58       ??$read_va_arg@PEAUansi_string@?1??type_case_Z@?$output_processor@_WV?$string_output_adapter@_W@__crt_stdio_output@@V?$positional_parameter_base@_WV?$string_output_adapter@_W@__crt_stdio_output@@@2@@__crt_stdio_output@@AEAA_NXZ@@__crt_stdio_output@@YAPEAUansi_string@?1??type_case_Z@?$output_processor@_WV?$string_output_adapter@_W@__crt_stdio_output@@V?$positional_parameter_base@_WV?$string_output_adapter@_W@__crt_stdio_output@@@2@@0@AEAA_NXZ@AEAPEAD@Z 0000000180028e58 f i libucrt:output.obj
 0001:00027e68       ??$read_va_arg@PEAUansi_string@?1??type_case_Z@?$output_processor@_WV?$string_output_adapter@_W@__crt_stdio_output@@V?$standard_base@_WV?$string_output_adapter@_W@__crt_stdio_output@@@2@@__crt_stdio_output@@AEAA_NXZ@@__crt_stdio_output@@YAPEAUansi_string@?1??type_case_Z@?$output_processor@_WV?$string_output_adapter@_W@__crt_stdio_output@@V?$standard_base@_WV?$string_output_adapter@_W@__crt_stdio_output@@@2@@0@AEAA_NXZ@AEAPEAD@Z 0000000180028e68 f i libucrt:output.obj
 0001:00027e78       ??$read_va_arg@PEAX@__crt_stdio_output@@YAPEAXAEAPEAD@Z 0000000180028e78 f i libucrt:output.obj
 0001:00027e88       ??$read_va_arg@U_CRT_DOUBLE@@@__crt_stdio_output@@YA?AU_CRT_DOUBLE@@AEAPEAD@Z 0000000180028e88 f i libucrt:output.obj
 0001:00027e98       ??$read_va_arg@_J@__crt_stdio_output@@YA_JAEAPEAD@Z 0000000180028e98 f i libucrt:output.obj
 0001:00027ea8       ??$read_va_arg@_K@__crt_stdio_output@@YA_KAEAPEAD@Z 0000000180028ea8 f i libucrt:output.obj
 0001:00027eb8       ??$read_va_arg@_W@__crt_stdio_output@@YA_WAEAPEAD@Z 0000000180028eb8 f i libucrt:output.obj
 0001:00027ec8       ??$scratch_count@D@formatting_buffer@__crt_stdio_output@@QEBA_KXZ 0000000180028ec8 f i libucrt:output.obj
 0001:00027ee4       ??$scratch_data@D@formatting_buffer@__crt_stdio_output@@QEAAPEADXZ 0000000180028ee4 f i libucrt:output.obj
 0001:00027f08       ??$type_case_integer@$07@?$output_processor@DV?$stream_output_adapter@D@__crt_stdio_output@@V?$format_validation_base@DV?$stream_output_adapter@D@__crt_stdio_output@@@2@@__crt_stdio_output@@AEAA_N_N@Z 0000000180028f08 f i libucrt:output.obj
 0001:0002810c       ??$type_case_integer@$07@?$output_processor@DV?$stream_output_adapter@D@__crt_stdio_output@@V?$positional_parameter_base@DV?$stream_output_adapter@D@__crt_stdio_output@@@2@@__crt_stdio_output@@AEAA_N_N@Z 000000018002910c f i libucrt:output.obj
 0001:00028338       ??$type_case_integer@$07@?$output_processor@DV?$stream_output_adapter@D@__crt_stdio_output@@V?$standard_base@DV?$stream_output_adapter@D@__crt_stdio_output@@@2@@__crt_stdio_output@@AEAA_N_N@Z 0000000180029338 f i libucrt:output.obj
 0001:0002853c       ??$type_case_integer@$07@?$output_processor@DV?$string_output_adapter@D@__crt_stdio_output@@V?$format_validation_base@DV?$string_output_adapter@D@__crt_stdio_output@@@2@@__crt_stdio_output@@AEAA_N_N@Z 000000018002953c f i libucrt:output.obj
 0001:00028740       ??$type_case_integer@$07@?$output_processor@DV?$string_output_adapter@D@__crt_stdio_output@@V?$positional_parameter_base@DV?$string_output_adapter@D@__crt_stdio_output@@@2@@__crt_stdio_output@@AEAA_N_N@Z 0000000180029740 f i libucrt:output.obj
 0001:0002896c       ??$type_case_integer@$07@?$output_processor@DV?$string_output_adapter@D@__crt_stdio_output@@V?$standard_base@DV?$string_output_adapter@D@__crt_stdio_output@@@2@@__crt_stdio_output@@AEAA_N_N@Z 000000018002996c f i libucrt:output.obj
 0001:00028b70       ??$type_case_integer@$07@?$output_processor@_WV?$stream_output_adapter@_W@__crt_stdio_output@@V?$format_validation_base@_WV?$stream_output_adapter@_W@__crt_stdio_output@@@2@@__crt_stdio_output@@AEAA_N_N@Z 0000000180029b70 f i libucrt:output.obj
 0001:00028d7c       ??$type_case_integer@$07@?$output_processor@_WV?$stream_output_adapter@_W@__crt_stdio_output@@V?$positional_parameter_base@_WV?$stream_output_adapter@_W@__crt_stdio_output@@@2@@__crt_stdio_output@@AEAA_N_N@Z 0000000180029d7c f i libucrt:output.obj
 0001:00028fb0       ??$type_case_integer@$07@?$output_processor@_WV?$stream_output_adapter@_W@__crt_stdio_output@@V?$standard_base@_WV?$stream_output_adapter@_W@__crt_stdio_output@@@2@@__crt_stdio_output@@AEAA_N_N@Z 0000000180029fb0 f i libucrt:output.obj
 0001:000291bc       ??$type_case_integer@$07@?$output_processor@_WV?$string_output_adapter@_W@__crt_stdio_output@@V?$format_validation_base@_WV?$string_output_adapter@_W@__crt_stdio_output@@@2@@__crt_stdio_output@@AEAA_N_N@Z 000000018002a1bc f i libucrt:output.obj
 0001:000293c8       ??$type_case_integer@$07@?$output_processor@_WV?$string_output_adapter@_W@__crt_stdio_output@@V?$positional_parameter_base@_WV?$string_output_adapter@_W@__crt_stdio_output@@@2@@__crt_stdio_output@@AEAA_N_N@Z 000000018002a3c8 f i libucrt:output.obj
 0001:000295fc       ??$type_case_integer@$07@?$output_processor@_WV?$string_output_adapter@_W@__crt_stdio_output@@V?$standard_base@_WV?$string_output_adapter@_W@__crt_stdio_output@@@2@@__crt_stdio_output@@AEAA_N_N@Z 000000018002a5fc f i libucrt:output.obj
 0001:00029808       ??$type_case_integer@$09@?$output_processor@DV?$stream_output_adapter@D@__crt_stdio_output@@V?$format_validation_base@DV?$stream_output_adapter@D@__crt_stdio_output@@@2@@__crt_stdio_output@@AEAA_N_N@Z 000000018002a808 f i libucrt:output.obj
 0001:00029a0c       ??$type_case_integer@$09@?$output_processor@DV?$stream_output_adapter@D@__crt_stdio_output@@V?$positional_parameter_base@DV?$stream_output_adapter@D@__crt_stdio_output@@@2@@__crt_stdio_output@@AEAA_N_N@Z 000000018002aa0c f i libucrt:output.obj
 0001:00029c38       ??$type_case_integer@$09@?$output_processor@DV?$stream_output_adapter@D@__crt_stdio_output@@V?$standard_base@DV?$stream_output_adapter@D@__crt_stdio_output@@@2@@__crt_stdio_output@@AEAA_N_N@Z 000000018002ac38 f i libucrt:output.obj
 0001:00029e3c       ??$type_case_integer@$09@?$output_processor@DV?$string_output_adapter@D@__crt_stdio_output@@V?$format_validation_base@DV?$string_output_adapter@D@__crt_stdio_output@@@2@@__crt_stdio_output@@AEAA_N_N@Z 000000018002ae3c f i libucrt:output.obj
 0001:0002a040       ??$type_case_integer@$09@?$output_processor@DV?$string_output_adapter@D@__crt_stdio_output@@V?$positional_parameter_base@DV?$string_output_adapter@D@__crt_stdio_output@@@2@@__crt_stdio_output@@AEAA_N_N@Z 000000018002b040 f i libucrt:output.obj
 0001:0002a26c       ??$type_case_integer@$09@?$output_processor@DV?$string_output_adapter@D@__crt_stdio_output@@V?$standard_base@DV?$string_output_adapter@D@__crt_stdio_output@@@2@@__crt_stdio_output@@AEAA_N_N@Z 000000018002b26c f i libucrt:output.obj
 0001:0002a470       ??$type_case_integer@$09@?$output_processor@_WV?$stream_output_adapter@_W@__crt_stdio_output@@V?$format_validation_base@_WV?$stream_output_adapter@_W@__crt_stdio_output@@@2@@__crt_stdio_output@@AEAA_N_N@Z 000000018002b470 f i libucrt:output.obj
 0001:0002a67c       ??$type_case_integer@$09@?$output_processor@_WV?$stream_output_adapter@_W@__crt_stdio_output@@V?$positional_parameter_base@_WV?$stream_output_adapter@_W@__crt_stdio_output@@@2@@__crt_stdio_output@@AEAA_N_N@Z 000000018002b67c f i libucrt:output.obj
 0001:0002a8b0       ??$type_case_integer@$09@?$output_processor@_WV?$stream_output_adapter@_W@__crt_stdio_output@@V?$standard_base@_WV?$stream_output_adapter@_W@__crt_stdio_output@@@2@@__crt_stdio_output@@AEAA_N_N@Z 000000018002b8b0 f i libucrt:output.obj
 0001:0002aabc       ??$type_case_integer@$09@?$output_processor@_WV?$string_output_adapter@_W@__crt_stdio_output@@V?$format_validation_base@_WV?$string_output_adapter@_W@__crt_stdio_output@@@2@@__crt_stdio_output@@AEAA_N_N@Z 000000018002babc f i libucrt:output.obj
 0001:0002acc8       ??$type_case_integer@$09@?$output_processor@_WV?$string_output_adapter@_W@__crt_stdio_output@@V?$positional_parameter_base@_WV?$string_output_adapter@_W@__crt_stdio_output@@@2@@__crt_stdio_output@@AEAA_N_N@Z 000000018002bcc8 f i libucrt:output.obj
 0001:0002aefc       ??$type_case_integer@$09@?$output_processor@_WV?$string_output_adapter@_W@__crt_stdio_output@@V?$standard_base@_WV?$string_output_adapter@_W@__crt_stdio_output@@@2@@__crt_stdio_output@@AEAA_N_N@Z 000000018002befc f i libucrt:output.obj
 0001:0002b108       ??$type_case_integer@$0BA@@?$output_processor@DV?$stream_output_adapter@D@__crt_stdio_output@@V?$format_validation_base@DV?$stream_output_adapter@D@__crt_stdio_output@@@2@@__crt_stdio_output@@AEAA_N_N@Z 000000018002c108 f i libucrt:output.obj
 0001:0002b30c       ??$type_case_integer@$0BA@@?$output_processor@DV?$stream_output_adapter@D@__crt_stdio_output@@V?$positional_parameter_base@DV?$stream_output_adapter@D@__crt_stdio_output@@@2@@__crt_stdio_output@@AEAA_N_N@Z 000000018002c30c f i libucrt:output.obj
 0001:0002b538       ??$type_case_integer@$0BA@@?$output_processor@DV?$stream_output_adapter@D@__crt_stdio_output@@V?$standard_base@DV?$stream_output_adapter@D@__crt_stdio_output@@@2@@__crt_stdio_output@@AEAA_N_N@Z 000000018002c538 f i libucrt:output.obj
 0001:0002b73c       ??$type_case_integer@$0BA@@?$output_processor@DV?$string_output_adapter@D@__crt_stdio_output@@V?$format_validation_base@DV?$string_output_adapter@D@__crt_stdio_output@@@2@@__crt_stdio_output@@AEAA_N_N@Z 000000018002c73c f i libucrt:output.obj
 0001:0002b940       ??$type_case_integer@$0BA@@?$output_processor@DV?$string_output_adapter@D@__crt_stdio_output@@V?$positional_parameter_base@DV?$string_output_adapter@D@__crt_stdio_output@@@2@@__crt_stdio_output@@AEAA_N_N@Z 000000018002c940 f i libucrt:output.obj
 0001:0002bb6c       ??$type_case_integer@$0BA@@?$output_processor@DV?$string_output_adapter@D@__crt_stdio_output@@V?$standard_base@DV?$string_output_adapter@D@__crt_stdio_output@@@2@@__crt_stdio_output@@AEAA_N_N@Z 000000018002cb6c f i libucrt:output.obj
 0001:0002bd70       ??$type_case_integer@$0BA@@?$output_processor@_WV?$stream_output_adapter@_W@__crt_stdio_output@@V?$format_validation_base@_WV?$stream_output_adapter@_W@__crt_stdio_output@@@2@@__crt_stdio_output@@AEAA_N_N@Z 000000018002cd70 f i libucrt:output.obj
 0001:0002bf7c       ??$type_case_integer@$0BA@@?$output_processor@_WV?$stream_output_adapter@_W@__crt_stdio_output@@V?$positional_parameter_base@_WV?$stream_output_adapter@_W@__crt_stdio_output@@@2@@__crt_stdio_output@@AEAA_N_N@Z 000000018002cf7c f i libucrt:output.obj
 0001:0002c1b0       ??$type_case_integer@$0BA@@?$output_processor@_WV?$stream_output_adapter@_W@__crt_stdio_output@@V?$standard_base@_WV?$stream_output_adapter@_W@__crt_stdio_output@@@2@@__crt_stdio_output@@AEAA_N_N@Z 000000018002d1b0 f i libucrt:output.obj
 0001:0002c3bc       ??$type_case_integer@$0BA@@?$output_processor@_WV?$string_output_adapter@_W@__crt_stdio_output@@V?$format_validation_base@_WV?$string_output_adapter@_W@__crt_stdio_output@@@2@@__crt_stdio_output@@AEAA_N_N@Z 000000018002d3bc f i libucrt:output.obj
 0001:0002c5c8       ??$type_case_integer@$0BA@@?$output_processor@_WV?$string_output_adapter@_W@__crt_stdio_output@@V?$positional_parameter_base@_WV?$string_output_adapter@_W@__crt_stdio_output@@@2@@__crt_stdio_output@@AEAA_N_N@Z 000000018002d5c8 f i libucrt:output.obj
 0001:0002c7fc       ??$type_case_integer@$0BA@@?$output_processor@_WV?$string_output_adapter@_W@__crt_stdio_output@@V?$standard_base@_WV?$string_output_adapter@_W@__crt_stdio_output@@@2@@__crt_stdio_output@@AEAA_N_N@Z 000000018002d7fc f i libucrt:output.obj
 0001:0002ca08       ??$type_case_integer_parse_into_buffer@I$07@?$output_processor@DV?$stream_output_adapter@D@__crt_stdio_output@@V?$format_validation_base@DV?$stream_output_adapter@D@__crt_stdio_output@@@2@@__crt_stdio_output@@AEAAXI_N@Z 000000018002da08 f i libucrt:output.obj
 0001:0002ca78       ??$type_case_integer_parse_into_buffer@I$07@?$output_processor@DV?$stream_output_adapter@D@__crt_stdio_output@@V?$positional_parameter_base@DV?$stream_output_adapter@D@__crt_stdio_output@@@2@@__crt_stdio_output@@AEAAXI_N@Z 000000018002da78 f i libucrt:output.obj
 0001:0002cae8       ??$type_case_integer_parse_into_buffer@I$07@?$output_processor@DV?$stream_output_adapter@D@__crt_stdio_output@@V?$standard_base@DV?$stream_output_adapter@D@__crt_stdio_output@@@2@@__crt_stdio_output@@AEAAXI_N@Z 000000018002dae8 f i libucrt:output.obj
 0001:0002cb58       ??$type_case_integer_parse_into_buffer@I$07@?$output_processor@DV?$string_output_adapter@D@__crt_stdio_output@@V?$format_validation_base@DV?$string_output_adapter@D@__crt_stdio_output@@@2@@__crt_stdio_output@@AEAAXI_N@Z 000000018002db58 f i libucrt:output.obj
 0001:0002cbc8       ??$type_case_integer_parse_into_buffer@I$07@?$output_processor@DV?$string_output_adapter@D@__crt_stdio_output@@V?$positional_parameter_base@DV?$string_output_adapter@D@__crt_stdio_output@@@2@@__crt_stdio_output@@AEAAXI_N@Z 000000018002dbc8 f i libucrt:output.obj
 0001:0002cc38       ??$type_case_integer_parse_into_buffer@I$07@?$output_processor@DV?$string_output_adapter@D@__crt_stdio_output@@V?$standard_base@DV?$string_output_adapter@D@__crt_stdio_output@@@2@@__crt_stdio_output@@AEAAXI_N@Z 000000018002dc38 f i libucrt:output.obj
 0001:0002cca8       ??$type_case_integer_parse_into_buffer@I$07@?$output_processor@_WV?$stream_output_adapter@_W@__crt_stdio_output@@V?$format_validation_base@_WV?$stream_output_adapter@_W@__crt_stdio_output@@@2@@__crt_stdio_output@@AEAAXI_N@Z 000000018002dca8 f i libucrt:output.obj
 0001:0002cd2c       ??$type_case_integer_parse_into_buffer@I$07@?$output_processor@_WV?$stream_output_adapter@_W@__crt_stdio_output@@V?$positional_parameter_base@_WV?$stream_output_adapter@_W@__crt_stdio_output@@@2@@__crt_stdio_output@@AEAAXI_N@Z 000000018002dd2c f i libucrt:output.obj
 0001:0002cdb0       ??$type_case_integer_parse_into_buffer@I$07@?$output_processor@_WV?$stream_output_adapter@_W@__crt_stdio_output@@V?$standard_base@_WV?$stream_output_adapter@_W@__crt_stdio_output@@@2@@__crt_stdio_output@@AEAAXI_N@Z 000000018002ddb0 f i libucrt:output.obj
 0001:0002ce34       ??$type_case_integer_parse_into_buffer@I$07@?$output_processor@_WV?$string_output_adapter@_W@__crt_stdio_output@@V?$format_validation_base@_WV?$string_output_adapter@_W@__crt_stdio_output@@@2@@__crt_stdio_output@@AEAAXI_N@Z 000000018002de34 f i libucrt:output.obj
 0001:0002ceb8       ??$type_case_integer_parse_into_buffer@I$07@?$output_processor@_WV?$string_output_adapter@_W@__crt_stdio_output@@V?$positional_parameter_base@_WV?$string_output_adapter@_W@__crt_stdio_output@@@2@@__crt_stdio_output@@AEAAXI_N@Z 000000018002deb8 f i libucrt:output.obj
 0001:0002cf3c       ??$type_case_integer_parse_into_buffer@I$07@?$output_processor@_WV?$string_output_adapter@_W@__crt_stdio_output@@V?$standard_base@_WV?$string_output_adapter@_W@__crt_stdio_output@@@2@@__crt_stdio_output@@AEAAXI_N@Z 000000018002df3c f i libucrt:output.obj
 0001:0002cfc0       ??$type_case_integer_parse_into_buffer@I$09@?$output_processor@DV?$stream_output_adapter@D@__crt_stdio_output@@V?$format_validation_base@DV?$stream_output_adapter@D@__crt_stdio_output@@@2@@__crt_stdio_output@@AEAAXI_N@Z 000000018002dfc0 f i libucrt:output.obj
 0001:0002d06c       ??$type_case_integer_parse_into_buffer@I$09@?$output_processor@DV?$stream_output_adapter@D@__crt_stdio_output@@V?$positional_parameter_base@DV?$stream_output_adapter@D@__crt_stdio_output@@@2@@__crt_stdio_output@@AEAAXI_N@Z 000000018002e06c f i libucrt:output.obj
 0001:0002d118       ??$type_case_integer_parse_into_buffer@I$09@?$output_processor@DV?$stream_output_adapter@D@__crt_stdio_output@@V?$standard_base@DV?$stream_output_adapter@D@__crt_stdio_output@@@2@@__crt_stdio_output@@AEAAXI_N@Z 000000018002e118 f i libucrt:output.obj
 0001:0002d1c4       ??$type_case_integer_parse_into_buffer@I$09@?$output_processor@DV?$string_output_adapter@D@__crt_stdio_output@@V?$format_validation_base@DV?$string_output_adapter@D@__crt_stdio_output@@@2@@__crt_stdio_output@@AEAAXI_N@Z 000000018002e1c4 f i libucrt:output.obj
 0001:0002d270       ??$type_case_integer_parse_into_buffer@I$09@?$output_processor@DV?$string_output_adapter@D@__crt_stdio_output@@V?$positional_parameter_base@DV?$string_output_adapter@D@__crt_stdio_output@@@2@@__crt_stdio_output@@AEAAXI_N@Z 000000018002e270 f i libucrt:output.obj
 0001:0002d31c       ??$type_case_integer_parse_into_buffer@I$09@?$output_processor@DV?$string_output_adapter@D@__crt_stdio_output@@V?$standard_base@DV?$string_output_adapter@D@__crt_stdio_output@@@2@@__crt_stdio_output@@AEAAXI_N@Z 000000018002e31c f i libucrt:output.obj
 0001:0002d3c8       ??$type_case_integer_parse_into_buffer@I$09@?$output_processor@_WV?$stream_output_adapter@_W@__crt_stdio_output@@V?$format_validation_base@_WV?$stream_output_adapter@_W@__crt_stdio_output@@@2@@__crt_stdio_output@@AEAAXI_N@Z 000000018002e3c8 f i libucrt:output.obj
 0001:0002d488       ??$type_case_integer_parse_into_buffer@I$09@?$output_processor@_WV?$stream_output_adapter@_W@__crt_stdio_output@@V?$positional_parameter_base@_WV?$stream_output_adapter@_W@__crt_stdio_output@@@2@@__crt_stdio_output@@AEAAXI_N@Z 000000018002e488 f i libucrt:output.obj
 0001:0002d548       ??$type_case_integer_parse_into_buffer@I$09@?$output_processor@_WV?$stream_output_adapter@_W@__crt_stdio_output@@V?$standard_base@_WV?$stream_output_adapter@_W@__crt_stdio_output@@@2@@__crt_stdio_output@@AEAAXI_N@Z 000000018002e548 f i libucrt:output.obj
 0001:0002d608       ??$type_case_integer_parse_into_buffer@I$09@?$output_processor@_WV?$string_output_adapter@_W@__crt_stdio_output@@V?$format_validation_base@_WV?$string_output_adapter@_W@__crt_stdio_output@@@2@@__crt_stdio_output@@AEAAXI_N@Z 000000018002e608 f i libucrt:output.obj
 0001:0002d6c8       ??$type_case_integer_parse_into_buffer@I$09@?$output_processor@_WV?$string_output_adapter@_W@__crt_stdio_output@@V?$positional_parameter_base@_WV?$string_output_adapter@_W@__crt_stdio_output@@@2@@__crt_stdio_output@@AEAAXI_N@Z 000000018002e6c8 f i libucrt:output.obj
 0001:0002d788       ??$type_case_integer_parse_into_buffer@I$09@?$output_processor@_WV?$string_output_adapter@_W@__crt_stdio_output@@V?$standard_base@_WV?$string_output_adapter@_W@__crt_stdio_output@@@2@@__crt_stdio_output@@AEAAXI_N@Z 000000018002e788 f i libucrt:output.obj
 0001:0002d848       ??$type_case_integer_parse_into_buffer@I$0BA@@?$output_processor@DV?$stream_output_adapter@D@__crt_stdio_output@@V?$format_validation_base@DV?$stream_output_adapter@D@__crt_stdio_output@@@2@@__crt_stdio_output@@AEAAXI_N@Z 000000018002e848 f i libucrt:output.obj
 0001:0002d8cc       ??$type_case_integer_parse_into_buffer@I$0BA@@?$output_processor@DV?$stream_output_adapter@D@__crt_stdio_output@@V?$positional_parameter_base@DV?$stream_output_adapter@D@__crt_stdio_output@@@2@@__crt_stdio_output@@AEAAXI_N@Z 000000018002e8cc f i libucrt:output.obj
 0001:0002d950       ??$type_case_integer_parse_into_buffer@I$0BA@@?$output_processor@DV?$stream_output_adapter@D@__crt_stdio_output@@V?$standard_base@DV?$stream_output_adapter@D@__crt_stdio_output@@@2@@__crt_stdio_output@@AEAAXI_N@Z 000000018002e950 f i libucrt:output.obj
 0001:0002d9d4       ??$type_case_integer_parse_into_buffer@I$0BA@@?$output_processor@DV?$string_output_adapter@D@__crt_stdio_output@@V?$format_validation_base@DV?$string_output_adapter@D@__crt_stdio_output@@@2@@__crt_stdio_output@@AEAAXI_N@Z 000000018002e9d4 f i libucrt:output.obj
 0001:0002da58       ??$type_case_integer_parse_into_buffer@I$0BA@@?$output_processor@DV?$string_output_adapter@D@__crt_stdio_output@@V?$positional_parameter_base@DV?$string_output_adapter@D@__crt_stdio_output@@@2@@__crt_stdio_output@@AEAAXI_N@Z 000000018002ea58 f i libucrt:output.obj
 0001:0002dadc       ??$type_case_integer_parse_into_buffer@I$0BA@@?$output_processor@DV?$string_output_adapter@D@__crt_stdio_output@@V?$standard_base@DV?$string_output_adapter@D@__crt_stdio_output@@@2@@__crt_stdio_output@@AEAAXI_N@Z 000000018002eadc f i libucrt:output.obj
 0001:0002db60       ??$type_case_integer_parse_into_buffer@I$0BA@@?$output_processor@_WV?$stream_output_adapter@_W@__crt_stdio_output@@V?$format_validation_base@_WV?$stream_output_adapter@_W@__crt_stdio_output@@@2@@__crt_stdio_output@@AEAAXI_N@Z 000000018002eb60 f i libucrt:output.obj
 0001:0002dc00       ??$type_case_integer_parse_into_buffer@I$0BA@@?$output_processor@_WV?$stream_output_adapter@_W@__crt_stdio_output@@V?$positional_parameter_base@_WV?$stream_output_adapter@_W@__crt_stdio_output@@@2@@__crt_stdio_output@@AEAAXI_N@Z 000000018002ec00 f i libucrt:output.obj
 0001:0002dca0       ??$type_case_integer_parse_into_buffer@I$0BA@@?$output_processor@_WV?$stream_output_adapter@_W@__crt_stdio_output@@V?$standard_base@_WV?$stream_output_adapter@_W@__crt_stdio_output@@@2@@__crt_stdio_output@@AEAAXI_N@Z 000000018002eca0 f i libucrt:output.obj
 0001:0002dd40       ??$type_case_integer_parse_into_buffer@I$0BA@@?$output_processor@_WV?$string_output_adapter@_W@__crt_stdio_output@@V?$format_validation_base@_WV?$string_output_adapter@_W@__crt_stdio_output@@@2@@__crt_stdio_output@@AEAAXI_N@Z 000000018002ed40 f i libucrt:output.obj
 0001:0002dde0       ??$type_case_integer_parse_into_buffer@I$0BA@@?$output_processor@_WV?$string_output_adapter@_W@__crt_stdio_output@@V?$positional_parameter_base@_WV?$string_output_adapter@_W@__crt_stdio_output@@@2@@__crt_stdio_output@@AEAAXI_N@Z 000000018002ede0 f i libucrt:output.obj
 0001:0002de80       ??$type_case_integer_parse_into_buffer@I$0BA@@?$output_processor@_WV?$string_output_adapter@_W@__crt_stdio_output@@V?$standard_base@_WV?$string_output_adapter@_W@__crt_stdio_output@@@2@@__crt_stdio_output@@AEAAXI_N@Z 000000018002ee80 f i libucrt:output.obj
 0001:0002df20       ??$type_case_integer_parse_into_buffer@_K$07@?$output_processor@DV?$stream_output_adapter@D@__crt_stdio_output@@V?$format_validation_base@DV?$stream_output_adapter@D@__crt_stdio_output@@@2@@__crt_stdio_output@@AEAAX_K_N@Z 000000018002ef20 f i libucrt:output.obj
 0001:0002df90       ??$type_case_integer_parse_into_buffer@_K$07@?$output_processor@DV?$stream_output_adapter@D@__crt_stdio_output@@V?$positional_parameter_base@DV?$stream_output_adapter@D@__crt_stdio_output@@@2@@__crt_stdio_output@@AEAAX_K_N@Z 000000018002ef90 f i libucrt:output.obj
 0001:0002e000       ??$type_case_integer_parse_into_buffer@_K$07@?$output_processor@DV?$stream_output_adapter@D@__crt_stdio_output@@V?$standard_base@DV?$stream_output_adapter@D@__crt_stdio_output@@@2@@__crt_stdio_output@@AEAAX_K_N@Z 000000018002f000 f i libucrt:output.obj
 0001:0002e070       ??$type_case_integer_parse_into_buffer@_K$07@?$output_processor@DV?$string_output_adapter@D@__crt_stdio_output@@V?$format_validation_base@DV?$string_output_adapter@D@__crt_stdio_output@@@2@@__crt_stdio_output@@AEAAX_K_N@Z 000000018002f070 f i libucrt:output.obj
 0001:0002e0e0       ??$type_case_integer_parse_into_buffer@_K$07@?$output_processor@DV?$string_output_adapter@D@__crt_stdio_output@@V?$positional_parameter_base@DV?$string_output_adapter@D@__crt_stdio_output@@@2@@__crt_stdio_output@@AEAAX_K_N@Z 000000018002f0e0 f i libucrt:output.obj
 0001:0002e150       ??$type_case_integer_parse_into_buffer@_K$07@?$output_processor@DV?$string_output_adapter@D@__crt_stdio_output@@V?$standard_base@DV?$string_output_adapter@D@__crt_stdio_output@@@2@@__crt_stdio_output@@AEAAX_K_N@Z 000000018002f150 f i libucrt:output.obj
 0001:0002e1c0       ??$type_case_integer_parse_into_buffer@_K$07@?$output_processor@_WV?$stream_output_adapter@_W@__crt_stdio_output@@V?$format_validation_base@_WV?$stream_output_adapter@_W@__crt_stdio_output@@@2@@__crt_stdio_output@@AEAAX_K_N@Z 000000018002f1c0 f i libucrt:output.obj
 0001:0002e248       ??$type_case_integer_parse_into_buffer@_K$07@?$output_processor@_WV?$stream_output_adapter@_W@__crt_stdio_output@@V?$positional_parameter_base@_WV?$stream_output_adapter@_W@__crt_stdio_output@@@2@@__crt_stdio_output@@AEAAX_K_N@Z 000000018002f248 f i libucrt:output.obj
 0001:0002e2d0       ??$type_case_integer_parse_into_buffer@_K$07@?$output_processor@_WV?$stream_output_adapter@_W@__crt_stdio_output@@V?$standard_base@_WV?$stream_output_adapter@_W@__crt_stdio_output@@@2@@__crt_stdio_output@@AEAAX_K_N@Z 000000018002f2d0 f i libucrt:output.obj
 0001:0002e358       ??$type_case_integer_parse_into_buffer@_K$07@?$output_processor@_WV?$string_output_adapter@_W@__crt_stdio_output@@V?$format_validation_base@_WV?$string_output_adapter@_W@__crt_stdio_output@@@2@@__crt_stdio_output@@AEAAX_K_N@Z 000000018002f358 f i libucrt:output.obj
 0001:0002e3e0       ??$type_case_integer_parse_into_buffer@_K$07@?$output_processor@_WV?$string_output_adapter@_W@__crt_stdio_output@@V?$positional_parameter_base@_WV?$string_output_adapter@_W@__crt_stdio_output@@@2@@__crt_stdio_output@@AEAAX_K_N@Z 000000018002f3e0 f i libucrt:output.obj
 0001:0002e468       ??$type_case_integer_parse_into_buffer@_K$07@?$output_processor@_WV?$string_output_adapter@_W@__crt_stdio_output@@V?$standard_base@_WV?$string_output_adapter@_W@__crt_stdio_output@@@2@@__crt_stdio_output@@AEAAX_K_N@Z 000000018002f468 f i libucrt:output.obj
 0001:0002e4f0       ??$type_case_integer_parse_into_buffer@_K$09@?$output_processor@DV?$stream_output_adapter@D@__crt_stdio_output@@V?$format_validation_base@DV?$stream_output_adapter@D@__crt_stdio_output@@@2@@__crt_stdio_output@@AEAAX_K_N@Z 000000018002f4f0 f i libucrt:output.obj
 0001:0002e5a0       ??$type_case_integer_parse_into_buffer@_K$09@?$output_processor@DV?$stream_output_adapter@D@__crt_stdio_output@@V?$positional_parameter_base@DV?$stream_output_adapter@D@__crt_stdio_output@@@2@@__crt_stdio_output@@AEAAX_K_N@Z 000000018002f5a0 f i libucrt:output.obj
 0001:0002e650       ??$type_case_integer_parse_into_buffer@_K$09@?$output_processor@DV?$stream_output_adapter@D@__crt_stdio_output@@V?$standard_base@DV?$stream_output_adapter@D@__crt_stdio_output@@@2@@__crt_stdio_output@@AEAAX_K_N@Z 000000018002f650 f i libucrt:output.obj
 0001:0002e700       ??$type_case_integer_parse_into_buffer@_K$09@?$output_processor@DV?$string_output_adapter@D@__crt_stdio_output@@V?$format_validation_base@DV?$string_output_adapter@D@__crt_stdio_output@@@2@@__crt_stdio_output@@AEAAX_K_N@Z 000000018002f700 f i libucrt:output.obj
 0001:0002e7b0       ??$type_case_integer_parse_into_buffer@_K$09@?$output_processor@DV?$string_output_adapter@D@__crt_stdio_output@@V?$positional_parameter_base@DV?$string_output_adapter@D@__crt_stdio_output@@@2@@__crt_stdio_output@@AEAAX_K_N@Z 000000018002f7b0 f i libucrt:output.obj
 0001:0002e860       ??$type_case_integer_parse_into_buffer@_K$09@?$output_processor@DV?$string_output_adapter@D@__crt_stdio_output@@V?$standard_base@DV?$string_output_adapter@D@__crt_stdio_output@@@2@@__crt_stdio_output@@AEAAX_K_N@Z 000000018002f860 f i libucrt:output.obj
 0001:0002e910       ??$type_case_integer_parse_into_buffer@_K$09@?$output_processor@_WV?$stream_output_adapter@_W@__crt_stdio_output@@V?$format_validation_base@_WV?$stream_output_adapter@_W@__crt_stdio_output@@@2@@__crt_stdio_output@@AEAAX_K_N@Z 000000018002f910 f i libucrt:output.obj
 0001:0002e9d4       ??$type_case_integer_parse_into_buffer@_K$09@?$output_processor@_WV?$stream_output_adapter@_W@__crt_stdio_output@@V?$positional_parameter_base@_WV?$stream_output_adapter@_W@__crt_stdio_output@@@2@@__crt_stdio_output@@AEAAX_K_N@Z 000000018002f9d4 f i libucrt:output.obj
 0001:0002ea98       ??$type_case_integer_parse_into_buffer@_K$09@?$output_processor@_WV?$stream_output_adapter@_W@__crt_stdio_output@@V?$standard_base@_WV?$stream_output_adapter@_W@__crt_stdio_output@@@2@@__crt_stdio_output@@AEAAX_K_N@Z 000000018002fa98 f i libucrt:output.obj
 0001:0002eb5c       ??$type_case_integer_parse_into_buffer@_K$09@?$output_processor@_WV?$string_output_adapter@_W@__crt_stdio_output@@V?$format_validation_base@_WV?$string_output_adapter@_W@__crt_stdio_output@@@2@@__crt_stdio_output@@AEAAX_K_N@Z 000000018002fb5c f i libucrt:output.obj
 0001:0002ec20       ??$type_case_integer_parse_into_buffer@_K$09@?$output_processor@_WV?$string_output_adapter@_W@__crt_stdio_output@@V?$positional_parameter_base@_WV?$string_output_adapter@_W@__crt_stdio_output@@@2@@__crt_stdio_output@@AEAAX_K_N@Z 000000018002fc20 f i libucrt:output.obj
 0001:0002ece4       ??$type_case_integer_parse_into_buffer@_K$09@?$output_processor@_WV?$string_output_adapter@_W@__crt_stdio_output@@V?$standard_base@_WV?$string_output_adapter@_W@__crt_stdio_output@@@2@@__crt_stdio_output@@AEAAX_K_N@Z 000000018002fce4 f i libucrt:output.obj
 0001:0002eda8       ??$type_case_integer_parse_into_buffer@_K$0BA@@?$output_processor@DV?$stream_output_adapter@D@__crt_stdio_output@@V?$format_validation_base@DV?$stream_output_adapter@D@__crt_stdio_output@@@2@@__crt_stdio_output@@AEAAX_K_N@Z 000000018002fda8 f i libucrt:output.obj
 0001:0002ee2c       ??$type_case_integer_parse_into_buffer@_K$0BA@@?$output_processor@DV?$stream_output_adapter@D@__crt_stdio_output@@V?$positional_parameter_base@DV?$stream_output_adapter@D@__crt_stdio_output@@@2@@__crt_stdio_output@@AEAAX_K_N@Z 000000018002fe2c f i libucrt:output.obj
 0001:0002eeb0       ??$type_case_integer_parse_into_buffer@_K$0BA@@?$output_processor@DV?$stream_output_adapter@D@__crt_stdio_output@@V?$standard_base@DV?$stream_output_adapter@D@__crt_stdio_output@@@2@@__crt_stdio_output@@AEAAX_K_N@Z 000000018002feb0 f i libucrt:output.obj
 0001:0002ef34       ??$type_case_integer_parse_into_buffer@_K$0BA@@?$output_processor@DV?$string_output_adapter@D@__crt_stdio_output@@V?$format_validation_base@DV?$string_output_adapter@D@__crt_stdio_output@@@2@@__crt_stdio_output@@AEAAX_K_N@Z 000000018002ff34 f i libucrt:output.obj
 0001:0002efb8       ??$type_case_integer_parse_into_buffer@_K$0BA@@?$output_processor@DV?$string_output_adapter@D@__crt_stdio_output@@V?$positional_parameter_base@DV?$string_output_adapter@D@__crt_stdio_output@@@2@@__crt_stdio_output@@AEAAX_K_N@Z 000000018002ffb8 f i libucrt:output.obj
 0001:0002f03c       ??$type_case_integer_parse_into_buffer@_K$0BA@@?$output_processor@DV?$string_output_adapter@D@__crt_stdio_output@@V?$standard_base@DV?$string_output_adapter@D@__crt_stdio_output@@@2@@__crt_stdio_output@@AEAAX_K_N@Z 000000018003003c f i libucrt:output.obj
 0001:0002f0c0       ??$type_case_integer_parse_into_buffer@_K$0BA@@?$output_processor@_WV?$stream_output_adapter@_W@__crt_stdio_output@@V?$format_validation_base@_WV?$stream_output_adapter@_W@__crt_stdio_output@@@2@@__crt_stdio_output@@AEAAX_K_N@Z 00000001800300c0 f i libucrt:output.obj
 0001:0002f160       ??$type_case_integer_parse_into_buffer@_K$0BA@@?$output_processor@_WV?$stream_output_adapter@_W@__crt_stdio_output@@V?$positional_parameter_base@_WV?$stream_output_adapter@_W@__crt_stdio_output@@@2@@__crt_stdio_output@@AEAAX_K_N@Z 0000000180030160 f i libucrt:output.obj
 0001:0002f200       ??$type_case_integer_parse_into_buffer@_K$0BA@@?$output_processor@_WV?$stream_output_adapter@_W@__crt_stdio_output@@V?$standard_base@_WV?$stream_output_adapter@_W@__crt_stdio_output@@@2@@__crt_stdio_output@@AEAAX_K_N@Z 0000000180030200 f i libucrt:output.obj
 0001:0002f2a0       ??$type_case_integer_parse_into_buffer@_K$0BA@@?$output_processor@_WV?$string_output_adapter@_W@__crt_stdio_output@@V?$format_validation_base@_WV?$string_output_adapter@_W@__crt_stdio_output@@@2@@__crt_stdio_output@@AEAAX_K_N@Z 00000001800302a0 f i libucrt:output.obj
 0001:0002f340       ??$type_case_integer_parse_into_buffer@_K$0BA@@?$output_processor@_WV?$string_output_adapter@_W@__crt_stdio_output@@V?$positional_parameter_base@_WV?$string_output_adapter@_W@__crt_stdio_output@@@2@@__crt_stdio_output@@AEAAX_K_N@Z 0000000180030340 f i libucrt:output.obj
 0001:0002f3e0       ??$type_case_integer_parse_into_buffer@_K$0BA@@?$output_processor@_WV?$string_output_adapter@_W@__crt_stdio_output@@V?$standard_base@_WV?$string_output_adapter@_W@__crt_stdio_output@@@2@@__crt_stdio_output@@AEAAX_K_N@Z 00000001800303e0 f i libucrt:output.obj
 0001:0002f480       ??$write_multiple_characters@V?$stream_output_adapter@D@__crt_stdio_output@@D@__crt_stdio_output@@YAXAEBV?$stream_output_adapter@D@0@DHQEAHAEAV__crt_cached_ptd_host@@@Z 0000000180030480 f i libucrt:output.obj
 0001:0002f514       ??$write_multiple_characters@V?$stream_output_adapter@_W@__crt_stdio_output@@D@__crt_stdio_output@@YAXAEBV?$stream_output_adapter@_W@0@DHQEAHAEAV__crt_cached_ptd_host@@@Z 0000000180030514 f i libucrt:output.obj
 0001:0002f5ac       ??$write_multiple_characters@V?$string_output_adapter@D@__crt_stdio_output@@D@__crt_stdio_output@@YAXAEBV?$string_output_adapter@D@0@DHQEAHAEAV__crt_cached_ptd_host@@@Z 00000001800305ac f i libucrt:output.obj
 0001:0002f624       ??$write_multiple_characters@V?$string_output_adapter@_W@__crt_stdio_output@@D@__crt_stdio_output@@YAXAEBV?$string_output_adapter@_W@0@DHQEAHAEAV__crt_cached_ptd_host@@@Z 0000000180030624 f i libucrt:output.obj
 0001:0002f804       ??0?$c_string_character_source@D@__crt_strtox@@QEAA@QEBDQEAPEBD@Z 0000000180030804 f i libucrt:output.obj
 0001:0002f818       ??0?$c_string_character_source@_W@__crt_strtox@@QEAA@QEB_WQEAPEB_W@Z 0000000180030818 f i libucrt:output.obj
 0001:0002f82c       ??0?$common_data@D@__crt_stdio_output@@IEAA@AEAV__crt_cached_ptd_host@@@Z 000000018003082c f i libucrt:output.obj
 0001:0002f868       ??0?$common_data@_W@__crt_stdio_output@@IEAA@AEAV__crt_cached_ptd_host@@@Z 0000000180030868 f i libucrt:output.obj
 0001:0002f8a8       ??0?$output_adapter_data@DV?$stream_output_adapter@D@__crt_stdio_output@@@__crt_stdio_output@@IEAA@AEBV?$stream_output_adapter@D@1@_KQEBDAEAV__crt_cached_ptd_host@@QEAD@Z 00000001800308a8 f i libucrt:output.obj
 0001:0002f908       ??0?$output_adapter_data@DV?$string_output_adapter@D@__crt_stdio_output@@@__crt_stdio_output@@IEAA@AEBV?$string_output_adapter@D@1@_KQEBDAEAV__crt_cached_ptd_host@@QEAD@Z 0000000180030908 f i libucrt:output.obj
 0001:0002f968       ??0?$output_adapter_data@_WV?$stream_output_adapter@_W@__crt_stdio_output@@@__crt_stdio_output@@IEAA@AEBV?$stream_output_adapter@_W@1@_KQEB_WAEAV__crt_cached_ptd_host@@QEAD@Z 0000000180030968 f i libucrt:output.obj
 0001:0002f9cc       ??0?$output_adapter_data@_WV?$string_output_adapter@_W@__crt_stdio_output@@@__crt_stdio_output@@IEAA@AEBV?$string_output_adapter@_W@1@_KQEB_WAEAV__crt_cached_ptd_host@@QEAD@Z 00000001800309cc f i libucrt:output.obj
 0001:0002fa30       ??0?$output_processor@DV?$stream_output_adapter@D@__crt_stdio_output@@V?$format_validation_base@DV?$stream_output_adapter@D@__crt_stdio_output@@@2@@__crt_stdio_output@@QEAA@AEBV?$stream_output_adapter@D@1@_KQEBDAEAV__crt_cached_ptd_host@@QEAD@Z 0000000180030a30 f i libucrt:output.obj
 0001:0002fa98       ??0?$output_processor@DV?$stream_output_adapter@D@__crt_stdio_output@@V?$positional_parameter_base@DV?$stream_output_adapter@D@__crt_stdio_output@@@2@@__crt_stdio_output@@QEAA@AEBV?$stream_output_adapter@D@1@_KQEBDAEAV__crt_cached_ptd_host@@QEAD@Z 0000000180030a98 f i libucrt:output.obj
 0001:0002fb1c       ??0?$output_processor@DV?$stream_output_adapter@D@__crt_stdio_output@@V?$standard_base@DV?$stream_output_adapter@D@__crt_stdio_output@@@2@@__crt_stdio_output@@QEAA@AEBV?$stream_output_adapter@D@1@_KQEBDAEAV__crt_cached_ptd_host@@QEAD@Z 0000000180030b1c f i libucrt:output.obj
 0001:0002fb84       ??0?$output_processor@DV?$string_output_adapter@D@__crt_stdio_output@@V?$format_validation_base@DV?$string_output_adapter@D@__crt_stdio_output@@@2@@__crt_stdio_output@@QEAA@AEBV?$string_output_adapter@D@1@_KQEBDAEAV__crt_cached_ptd_host@@QEAD@Z 0000000180030b84 f i libucrt:output.obj
 0001:0002fbec       ??0?$output_processor@DV?$string_output_adapter@D@__crt_stdio_output@@V?$positional_parameter_base@DV?$string_output_adapter@D@__crt_stdio_output@@@2@@__crt_stdio_output@@QEAA@AEBV?$string_output_adapter@D@1@_KQEBDAEAV__crt_cached_ptd_host@@QEAD@Z 0000000180030bec f i libucrt:output.obj
 0001:0002fc70       ??0?$output_processor@DV?$string_output_adapter@D@__crt_stdio_output@@V?$standard_base@DV?$string_output_adapter@D@__crt_stdio_output@@@2@@__crt_stdio_output@@QEAA@AEBV?$string_output_adapter@D@1@_KQEBDAEAV__crt_cached_ptd_host@@QEAD@Z 0000000180030c70 f i libucrt:output.obj
 0001:0002fcd8       ??0?$output_processor@_WV?$stream_output_adapter@_W@__crt_stdio_output@@V?$format_validation_base@_WV?$stream_output_adapter@_W@__crt_stdio_output@@@2@@__crt_stdio_output@@QEAA@AEBV?$stream_output_adapter@_W@1@_KQEB_WAEAV__crt_cached_ptd_host@@QEAD@Z 0000000180030cd8 f i libucrt:output.obj
 0001:0002fd44       ??0?$output_processor@_WV?$stream_output_adapter@_W@__crt_stdio_output@@V?$positional_parameter_base@_WV?$stream_output_adapter@_W@__crt_stdio_output@@@2@@__crt_stdio_output@@QEAA@AEBV?$stream_output_adapter@_W@1@_KQEB_WAEAV__crt_cached_ptd_host@@QEAD@Z 0000000180030d44 f i libucrt:output.obj
 0001:0002fdcc       ??0?$output_processor@_WV?$stream_output_adapter@_W@__crt_stdio_output@@V?$standard_base@_WV?$stream_output_adapter@_W@__crt_stdio_output@@@2@@__crt_stdio_output@@QEAA@AEBV?$stream_output_adapter@_W@1@_KQEB_WAEAV__crt_cached_ptd_host@@QEAD@Z 0000000180030dcc f i libucrt:output.obj
 0001:0002fe38       ??0?$output_processor@_WV?$string_output_adapter@_W@__crt_stdio_output@@V?$format_validation_base@_WV?$string_output_adapter@_W@__crt_stdio_output@@@2@@__crt_stdio_output@@QEAA@AEBV?$string_output_adapter@_W@1@_KQEB_WAEAV__crt_cached_ptd_host@@QEAD@Z 0000000180030e38 f i libucrt:output.obj
 0001:0002fea4       ??0?$output_processor@_WV?$string_output_adapter@_W@__crt_stdio_output@@V?$positional_parameter_base@_WV?$string_output_adapter@_W@__crt_stdio_output@@@2@@__crt_stdio_output@@QEAA@AEBV?$string_output_adapter@_W@1@_KQEB_WAEAV__crt_cached_ptd_host@@QEAD@Z 0000000180030ea4 f i libucrt:output.obj
 0001:0002ff2c       ??0?$output_processor@_WV?$string_output_adapter@_W@__crt_stdio_output@@V?$standard_base@_WV?$string_output_adapter@_W@__crt_stdio_output@@@2@@__crt_stdio_output@@QEAA@AEBV?$string_output_adapter@_W@1@_KQEB_WAEAV__crt_cached_ptd_host@@QEAD@Z 0000000180030f2c f i libucrt:output.obj
 0001:0002ff98       ??0?$stream_output_adapter@D@__crt_stdio_output@@QEAA@QEAU_iobuf@@@Z 0000000180030f98 f i libucrt:output.obj
 0001:0002ffa0       ??0?$stream_output_adapter@_W@__crt_stdio_output@@QEAA@QEAU_iobuf@@@Z 0000000180030fa0 f i libucrt:output.obj
 0001:0002ffa8       ??0?$string_output_adapter@D@__crt_stdio_output@@QEAA@QEAU?$string_output_adapter_context@D@1@@Z 0000000180030fa8 f i libucrt:output.obj
 0001:0002ffb0       ??0?$string_output_adapter@_W@__crt_stdio_output@@QEAA@QEAU?$string_output_adapter_context@_W@1@@Z 0000000180030fb0 f i libucrt:output.obj
 0001:0002ffb8       ??0__acrt_stdio_temporary_buffering_guard@@QEAA@QEAU_iobuf@@AEAV__crt_cached_ptd_host@@@Z 0000000180030fb8 f i libucrt:output.obj
 0001:0002ffdc       ??0__crt_stdio_stream@@QEAA@QEAU_iobuf@@@Z 0000000180030fdc f i libucrt:output.obj
 0001:0002ffe4       ??0formatting_buffer@__crt_stdio_output@@QEAA@XZ 0000000180030fe4 f i libucrt:output.obj
 0001:0002fff8       ??0guard@?$cached@H@__crt_cached_ptd_host@@QEAA@AEAU12@@Z 0000000180030ff8 f i libucrt:output.obj
 0001:0003000c       ??1?$c_string_character_source@D@__crt_strtox@@QEAA@XZ 000000018003100c f i libucrt:output.obj
 0001:0003001c       ??1?$c_string_character_source@_W@__crt_strtox@@QEAA@XZ 000000018003101c f i libucrt:output.obj
 0001:0003002c       ??1?$common_data@D@__crt_stdio_output@@QEAA@XZ 000000018003102c f i libucrt:output.obj
 0001:00030050       ??1?$common_data@_W@__crt_stdio_output@@QEAA@XZ 0000000180031050 f i libucrt:output.obj
 0001:00030074       ??1?$format_validation_base@DV?$stream_output_adapter@D@__crt_stdio_output@@@__crt_stdio_output@@QEAA@XZ 0000000180031074 f i libucrt:output.obj
 0001:00030098       ??1?$format_validation_base@DV?$string_output_adapter@D@__crt_stdio_output@@@__crt_stdio_output@@QEAA@XZ 0000000180031098 f i libucrt:output.obj
 0001:000300bc       ??1?$format_validation_base@_WV?$stream_output_adapter@_W@__crt_stdio_output@@@__crt_stdio_output@@QEAA@XZ 00000001800310bc f i libucrt:output.obj
 0001:000300e0       ??1?$format_validation_base@_WV?$string_output_adapter@_W@__crt_stdio_output@@@__crt_stdio_output@@QEAA@XZ 00000001800310e0 f i libucrt:output.obj
 0001:00030104       ??1?$output_adapter_data@DV?$stream_output_adapter@D@__crt_stdio_output@@@__crt_stdio_output@@QEAA@XZ 0000000180031104 f i libucrt:output.obj
 0001:00030128       ??1?$output_adapter_data@DV?$string_output_adapter@D@__crt_stdio_output@@@__crt_stdio_output@@QEAA@XZ 0000000180031128 f i libucrt:output.obj
 0001:0003014c       ??1?$output_adapter_data@_WV?$stream_output_adapter@_W@__crt_stdio_output@@@__crt_stdio_output@@QEAA@XZ 000000018003114c f i libucrt:output.obj
 0001:00030170       ??1?$output_adapter_data@_WV?$string_output_adapter@_W@__crt_stdio_output@@@__crt_stdio_output@@QEAA@XZ 0000000180031170 f i libucrt:output.obj
 0001:00030194       ??1?$output_processor@DV?$stream_output_adapter@D@__crt_stdio_output@@V?$format_validation_base@DV?$stream_output_adapter@D@__crt_stdio_output@@@2@@__crt_stdio_output@@QEAA@XZ 0000000180031194 f i libucrt:output.obj
 0001:000301b8       ??1?$output_processor@DV?$stream_output_adapter@D@__crt_stdio_output@@V?$positional_parameter_base@DV?$stream_output_adapter@D@__crt_stdio_output@@@2@@__crt_stdio_output@@QEAA@XZ 00000001800311b8 f i libucrt:output.obj
 0001:000301dc       ??1?$output_processor@DV?$stream_output_adapter@D@__crt_stdio_output@@V?$standard_base@DV?$stream_output_adapter@D@__crt_stdio_output@@@2@@__crt_stdio_output@@QEAA@XZ 00000001800311dc f i libucrt:output.obj
 0001:00030200       ??1?$output_processor@DV?$string_output_adapter@D@__crt_stdio_output@@V?$format_validation_base@DV?$string_output_adapter@D@__crt_stdio_output@@@2@@__crt_stdio_output@@QEAA@XZ 0000000180031200 f i libucrt:output.obj
 0001:00030224       ??1?$output_processor@DV?$string_output_adapter@D@__crt_stdio_output@@V?$positional_parameter_base@DV?$string_output_adapter@D@__crt_stdio_output@@@2@@__crt_stdio_output@@QEAA@XZ 0000000180031224 f i libucrt:output.obj
 0001:00030248       ??1?$output_processor@DV?$string_output_adapter@D@__crt_stdio_output@@V?$standard_base@DV?$string_output_adapter@D@__crt_stdio_output@@@2@@__crt_stdio_output@@QEAA@XZ 0000000180031248 f i libucrt:output.obj
 0001:0003026c       ??1?$output_processor@_WV?$stream_output_adapter@_W@__crt_stdio_output@@V?$format_validation_base@_WV?$stream_output_adapter@_W@__crt_stdio_output@@@2@@__crt_stdio_output@@QEAA@XZ 000000018003126c f i libucrt:output.obj
 0001:00030290       ??1?$output_processor@_WV?$stream_output_adapter@_W@__crt_stdio_output@@V?$positional_parameter_base@_WV?$stream_output_adapter@_W@__crt_stdio_output@@@2@@__crt_stdio_output@@QEAA@XZ 0000000180031290 f i libucrt:output.obj
 0001:000302b4       ??1?$output_processor@_WV?$stream_output_adapter@_W@__crt_stdio_output@@V?$standard_base@_WV?$stream_output_adapter@_W@__crt_stdio_output@@@2@@__crt_stdio_output@@QEAA@XZ 00000001800312b4 f i libucrt:output.obj
 0001:000302d8       ??1?$output_processor@_WV?$string_output_adapter@_W@__crt_stdio_output@@V?$format_validation_base@_WV?$string_output_adapter@_W@__crt_stdio_output@@@2@@__crt_stdio_output@@QEAA@XZ 00000001800312d8 f i libucrt:output.obj
 0001:000302fc       ??1?$output_processor@_WV?$string_output_adapter@_W@__crt_stdio_output@@V?$positional_parameter_base@_WV?$string_output_adapter@_W@__crt_stdio_output@@@2@@__crt_stdio_output@@QEAA@XZ 00000001800312fc f i libucrt:output.obj
 0001:00030320       ??1?$output_processor@_WV?$string_output_adapter@_W@__crt_stdio_output@@V?$standard_base@_WV?$string_output_adapter@_W@__crt_stdio_output@@@2@@__crt_stdio_output@@QEAA@XZ 0000000180031320 f i libucrt:output.obj
 0001:00030344       ??1?$positional_parameter_base@DV?$stream_output_adapter@D@__crt_stdio_output@@@__crt_stdio_output@@QEAA@XZ 0000000180031344 f i libucrt:output.obj
 0001:00030368       ??1?$positional_parameter_base@DV?$string_output_adapter@D@__crt_stdio_output@@@__crt_stdio_output@@QEAA@XZ 0000000180031368 f i libucrt:output.obj
 0001:0003038c       ??1?$positional_parameter_base@_WV?$stream_output_adapter@_W@__crt_stdio_output@@@__crt_stdio_output@@QEAA@XZ 000000018003138c f i libucrt:output.obj
 0001:000303b0       ??1?$positional_parameter_base@_WV?$string_output_adapter@_W@__crt_stdio_output@@@__crt_stdio_output@@QEAA@XZ 00000001800313b0 f i libucrt:output.obj
 0001:000303d4       ??1?$standard_base@DV?$stream_output_adapter@D@__crt_stdio_output@@@__crt_stdio_output@@QEAA@XZ 00000001800313d4 f i libucrt:output.obj
 0001:000303f8       ??1?$standard_base@DV?$string_output_adapter@D@__crt_stdio_output@@@__crt_stdio_output@@QEAA@XZ 00000001800313f8 f i libucrt:output.obj
 0001:0003041c       ??1?$standard_base@_WV?$stream_output_adapter@_W@__crt_stdio_output@@@__crt_stdio_output@@QEAA@XZ 000000018003141c f i libucrt:output.obj
 0001:00030440       ??1?$standard_base@_WV?$string_output_adapter@_W@__crt_stdio_output@@@__crt_stdio_output@@QEAA@XZ 0000000180031440 f i libucrt:output.obj
 0001:00030464       ??1__acrt_stdio_temporary_buffering_guard@@QEAA@XZ 0000000180031464 f i libucrt:output.obj
 0001:00030474       ??1formatting_buffer@__crt_stdio_output@@QEAA@XZ 0000000180031474 f i libucrt:output.obj
 0001:00030498       ??1guard@?$cached@H@__crt_cached_ptd_host@@QEAA@XZ 0000000180031498 f i libucrt:output.obj
 0001:000304ac       ??4?$__crt_unique_heap_ptr@DU__crt_internal_free_policy@@@@QEAAAEAV0@$$QEAV0@@Z 00000001800314ac f i libucrt:output.obj
 0001:000304e0       ??A?$spectre_mitigated_lookup_table@Ustate_transition_pair@__crt_stdio_output@@$0IA@@__crt_stdio_output@@QEBAAEBUstate_transition_pair@1@_K@Z 00000001800314e0 f i libucrt:output.obj
 0001:000304e8       ??C__crt_stdio_stream@@QEBAPEAU__crt_stdio_stream_data@@XZ 00000001800314e8 f i libucrt:output.obj
 0001:00030c30       ?__crt_interlocked_read_32@@YAHPEDH@Z 0000000180031c30 f i libucrt:output.obj
 0001:00030c34       ?adjust_hexit@?$output_processor@DV?$stream_output_adapter@D@__crt_stdio_output@@V?$format_validation_base@DV?$stream_output_adapter@D@__crt_stdio_output@@@2@@__crt_stdio_output@@CADH_N@Z 0000000180031c34 f i libucrt:output.obj
 0001:00030c40       ?adjust_hexit@?$output_processor@DV?$stream_output_adapter@D@__crt_stdio_output@@V?$positional_parameter_base@DV?$stream_output_adapter@D@__crt_stdio_output@@@2@@__crt_stdio_output@@CADH_N@Z 0000000180031c40 f i libucrt:output.obj
 0001:00030c4c       ?adjust_hexit@?$output_processor@DV?$stream_output_adapter@D@__crt_stdio_output@@V?$standard_base@DV?$stream_output_adapter@D@__crt_stdio_output@@@2@@__crt_stdio_output@@CADH_N@Z 0000000180031c4c f i libucrt:output.obj
 0001:00030c58       ?adjust_hexit@?$output_processor@DV?$string_output_adapter@D@__crt_stdio_output@@V?$format_validation_base@DV?$string_output_adapter@D@__crt_stdio_output@@@2@@__crt_stdio_output@@CADH_N@Z 0000000180031c58 f i libucrt:output.obj
 0001:00030c64       ?adjust_hexit@?$output_processor@DV?$string_output_adapter@D@__crt_stdio_output@@V?$positional_parameter_base@DV?$string_output_adapter@D@__crt_stdio_output@@@2@@__crt_stdio_output@@CADH_N@Z 0000000180031c64 f i libucrt:output.obj
 0001:00030c70       ?adjust_hexit@?$output_processor@DV?$string_output_adapter@D@__crt_stdio_output@@V?$standard_base@DV?$string_output_adapter@D@__crt_stdio_output@@@2@@__crt_stdio_output@@CADH_N@Z 0000000180031c70 f i libucrt:output.obj
 0001:00030c7c       ?adjust_hexit@?$output_processor@_WV?$stream_output_adapter@_W@__crt_stdio_output@@V?$format_validation_base@_WV?$stream_output_adapter@_W@__crt_stdio_output@@@2@@__crt_stdio_output@@CADH_N@Z 0000000180031c7c f i libucrt:output.obj
 0001:00030c88       ?adjust_hexit@?$output_processor@_WV?$stream_output_adapter@_W@__crt_stdio_output@@V?$positional_parameter_base@_WV?$stream_output_adapter@_W@__crt_stdio_output@@@2@@__crt_stdio_output@@CADH_N@Z 0000000180031c88 f i libucrt:output.obj
 0001:00030c94       ?adjust_hexit@?$output_processor@_WV?$stream_output_adapter@_W@__crt_stdio_output@@V?$standard_base@_WV?$stream_output_adapter@_W@__crt_stdio_output@@@2@@__crt_stdio_output@@CADH_N@Z 0000000180031c94 f i libucrt:output.obj
 0001:00030ca0       ?adjust_hexit@?$output_processor@_WV?$string_output_adapter@_W@__crt_stdio_output@@V?$format_validation_base@_WV?$string_output_adapter@_W@__crt_stdio_output@@@2@@__crt_stdio_output@@CADH_N@Z 0000000180031ca0 f i libucrt:output.obj
 0001:00030cac       ?adjust_hexit@?$output_processor@_WV?$string_output_adapter@_W@__crt_stdio_output@@V?$positional_parameter_base@_WV?$string_output_adapter@_W@__crt_stdio_output@@@2@@__crt_stdio_output@@CADH_N@Z 0000000180031cac f i libucrt:output.obj
 0001:00030cb8       ?adjust_hexit@?$output_processor@_WV?$string_output_adapter@_W@__crt_stdio_output@@V?$standard_base@_WV?$string_output_adapter@_W@__crt_stdio_output@@@2@@__crt_stdio_output@@CADH_N@Z 0000000180031cb8 f i libucrt:output.obj
 0001:00030cc4       ?advance_to_next_pass@?$positional_parameter_base@DV?$stream_output_adapter@D@__crt_stdio_output@@@__crt_stdio_output@@IEAA_NXZ 0000000180031cc4 f i libucrt:output.obj
 0001:00030d18       ?advance_to_next_pass@?$positional_parameter_base@DV?$string_output_adapter@D@__crt_stdio_output@@@__crt_stdio_output@@IEAA_NXZ 0000000180031d18 f i libucrt:output.obj
 0001:00030d6c       ?advance_to_next_pass@?$positional_parameter_base@_WV?$stream_output_adapter@_W@__crt_stdio_output@@@__crt_stdio_output@@IEAA_NXZ 0000000180031d6c f i libucrt:output.obj
 0001:00030dc0       ?advance_to_next_pass@?$positional_parameter_base@_WV?$string_output_adapter@_W@__crt_stdio_output@@@__crt_stdio_output@@IEAA_NXZ 0000000180031dc0 f i libucrt:output.obj
 0001:00030e14       ?advance_to_next_pass@?$standard_base@DV?$stream_output_adapter@D@__crt_stdio_output@@@__crt_stdio_output@@IEAA_NXZ 0000000180031e14 f i libucrt:output.obj
 0001:00030e28       ?advance_to_next_pass@?$standard_base@DV?$string_output_adapter@D@__crt_stdio_output@@@__crt_stdio_output@@IEAA_NXZ 0000000180031e28 f i libucrt:output.obj
 0001:00030e3c       ?advance_to_next_pass@?$standard_base@_WV?$stream_output_adapter@_W@__crt_stdio_output@@@__crt_stdio_output@@IEAA_NXZ 0000000180031e3c f i libucrt:output.obj
 0001:00030e50       ?advance_to_next_pass@?$standard_base@_WV?$string_output_adapter@_W@__crt_stdio_output@@@__crt_stdio_output@@IEAA_NXZ 0000000180031e50 f i libucrt:output.obj
 0001:00030e64       ?check@?$cached@H@__crt_cached_ptd_host@@QEBA_NH@Z 0000000180031e64 f i libucrt:output.obj
 0001:00030e74       ?create_guard@?$cached@H@__crt_cached_ptd_host@@QEAA?AVguard@12@XZ 0000000180031e74 f i libucrt:output.obj
 0001:00030e88       ?crop_zeroes@__crt_stdio_output@@YAXPEADQEAU__crt_locale_pointers@@@Z 0000000180031e88 f i libucrt:output.obj
 0001:00030ef4       ?disable@guard@?$cached@H@__crt_cached_ptd_host@@QEAAXXZ 0000000180031ef4 f i libucrt:output.obj
 0001:00030efc       ?enable@guard@?$cached@H@__crt_cached_ptd_host@@QEAAXXZ 0000000180031efc f i libucrt:output.obj
 0001:00030f04       ?find_next_state@?$output_processor@DV?$stream_output_adapter@D@__crt_stdio_output@@V?$format_validation_base@DV?$stream_output_adapter@D@__crt_stdio_output@@@2@@__crt_stdio_output@@AEBA?AW4state@2@DW432@@Z 0000000180031f04 f i libucrt:output.obj
 0001:00030f3c       ?find_next_state@?$output_processor@DV?$stream_output_adapter@D@__crt_stdio_output@@V?$positional_parameter_base@DV?$stream_output_adapter@D@__crt_stdio_output@@@2@@__crt_stdio_output@@AEBA?AW4state@2@DW432@@Z 0000000180031f3c f i libucrt:output.obj
 0001:00030f74       ?find_next_state@?$output_processor@DV?$stream_output_adapter@D@__crt_stdio_output@@V?$standard_base@DV?$stream_output_adapter@D@__crt_stdio_output@@@2@@__crt_stdio_output@@AEBA?AW4state@2@DW432@@Z 0000000180031f74 f i libucrt:output.obj
 0001:00030fa8       ?find_next_state@?$output_processor@DV?$string_output_adapter@D@__crt_stdio_output@@V?$format_validation_base@DV?$string_output_adapter@D@__crt_stdio_output@@@2@@__crt_stdio_output@@AEBA?AW4state@2@DW432@@Z 0000000180031fa8 f i libucrt:output.obj
 0001:00030fe0       ?find_next_state@?$output_processor@DV?$string_output_adapter@D@__crt_stdio_output@@V?$positional_parameter_base@DV?$string_output_adapter@D@__crt_stdio_output@@@2@@__crt_stdio_output@@AEBA?AW4state@2@DW432@@Z 0000000180031fe0 f i libucrt:output.obj
 0001:00031018       ?find_next_state@?$output_processor@DV?$string_output_adapter@D@__crt_stdio_output@@V?$standard_base@DV?$string_output_adapter@D@__crt_stdio_output@@@2@@__crt_stdio_output@@AEBA?AW4state@2@DW432@@Z 0000000180032018 f i libucrt:output.obj
 0001:0003104c       ?find_next_state@?$output_processor@_WV?$stream_output_adapter@_W@__crt_stdio_output@@V?$format_validation_base@_WV?$stream_output_adapter@_W@__crt_stdio_output@@@2@@__crt_stdio_output@@AEBA?AW4state@2@_WW432@@Z 000000018003204c f i libucrt:output.obj
 0001:0003108c       ?find_next_state@?$output_processor@_WV?$stream_output_adapter@_W@__crt_stdio_output@@V?$positional_parameter_base@_WV?$stream_output_adapter@_W@__crt_stdio_output@@@2@@__crt_stdio_output@@AEBA?AW4state@2@_WW432@@Z 000000018003208c f i libucrt:output.obj
 0001:000310cc       ?find_next_state@?$output_processor@_WV?$stream_output_adapter@_W@__crt_stdio_output@@V?$standard_base@_WV?$stream_output_adapter@_W@__crt_stdio_output@@@2@@__crt_stdio_output@@AEBA?AW4state@2@_WW432@@Z 00000001800320cc f i libucrt:output.obj
 0001:00031108       ?find_next_state@?$output_processor@_WV?$string_output_adapter@_W@__crt_stdio_output@@V?$format_validation_base@_WV?$string_output_adapter@_W@__crt_stdio_output@@@2@@__crt_stdio_output@@AEBA?AW4state@2@_WW432@@Z 0000000180032108 f i libucrt:output.obj
 0001:00031148       ?find_next_state@?$output_processor@_WV?$string_output_adapter@_W@__crt_stdio_output@@V?$positional_parameter_base@_WV?$string_output_adapter@_W@__crt_stdio_output@@@2@@__crt_stdio_output@@AEBA?AW4state@2@_WW432@@Z 0000000180032148 f i libucrt:output.obj
 0001:00031188       ?find_next_state@?$output_processor@_WV?$string_output_adapter@_W@__crt_stdio_output@@V?$standard_base@_WV?$string_output_adapter@_W@__crt_stdio_output@@@2@@__crt_stdio_output@@AEBA?AW4state@2@_WW432@@Z 0000000180032188 f i libucrt:output.obj
 0001:000311c4       ?force_decimal_point@__crt_stdio_output@@YAXPEADQEAU__crt_locale_pointers@@@Z 00000001800321c4 f i libucrt:output.obj
 0001:00031224       ?get@?$c_string_character_source@D@__crt_strtox@@QEAADXZ 0000000180032224 f i libucrt:output.obj
 0001:00031230       ?get@?$c_string_character_source@_W@__crt_strtox@@QEAA_WXZ 0000000180032230 f i libucrt:output.obj
 0001:00031240       ?get_flags@__crt_stdio_stream@@QEBAJXZ 0000000180032240 f i libucrt:output.obj
 0001:00031250       ?get_locale@__crt_cached_ptd_host@@QEAAPEAU__crt_locale_pointers@@XZ 0000000180032250 f i libucrt:output.obj
 0001:00031278       ?get_parameter_type@?$positional_parameter_base@DV?$stream_output_adapter@D@__crt_stdio_output@@@__crt_stdio_output@@CA?AW4parameter_type@12@F@Z 0000000180032278 f i libucrt:output.obj
 0001:00031280       ?get_parameter_type@?$positional_parameter_base@DV?$stream_output_adapter@D@__crt_stdio_output@@@__crt_stdio_output@@CA?AW4parameter_type@12@G@Z 0000000180032280 f i libucrt:output.obj
 0001:00031288       ?get_parameter_type@?$positional_parameter_base@DV?$stream_output_adapter@D@__crt_stdio_output@@@__crt_stdio_output@@CA?AW4parameter_type@12@H@Z 0000000180032288 f i libucrt:output.obj
 0001:00031290       ?get_parameter_type@?$positional_parameter_base@DV?$stream_output_adapter@D@__crt_stdio_output@@@__crt_stdio_output@@CA?AW4parameter_type@12@I@Z 0000000180032290 f i libucrt:output.obj
 0001:00031298       ?get_parameter_type@?$positional_parameter_base@DV?$stream_output_adapter@D@__crt_stdio_output@@@__crt_stdio_output@@CA?AW4parameter_type@12@U_CRT_DOUBLE@@@Z 0000000180032298 f i libucrt:output.obj
 0001:000312a0       ?get_parameter_type@?$positional_parameter_base@DV?$stream_output_adapter@D@__crt_stdio_output@@@__crt_stdio_output@@CA?AW4parameter_type@12@_J@Z 00000001800322a0 f i libucrt:output.obj
 0001:000312a8       ?get_parameter_type@?$positional_parameter_base@DV?$stream_output_adapter@D@__crt_stdio_output@@@__crt_stdio_output@@CA?AW4parameter_type@12@_K@Z 00000001800322a8 f i libucrt:output.obj
 0001:000312b0       ?get_parameter_type@?$positional_parameter_base@DV?$stream_output_adapter@D@__crt_stdio_output@@@__crt_stdio_output@@CA?AW4parameter_type@12@_W@Z 00000001800322b0 f i libucrt:output.obj
 0001:000312b8       ?get_parameter_type@?$positional_parameter_base@DV?$string_output_adapter@D@__crt_stdio_output@@@__crt_stdio_output@@CA?AW4parameter_type@12@F@Z 00000001800322b8 f i libucrt:output.obj
 0001:000312c0       ?get_parameter_type@?$positional_parameter_base@DV?$string_output_adapter@D@__crt_stdio_output@@@__crt_stdio_output@@CA?AW4parameter_type@12@G@Z 00000001800322c0 f i libucrt:output.obj
 0001:000312c8       ?get_parameter_type@?$positional_parameter_base@DV?$string_output_adapter@D@__crt_stdio_output@@@__crt_stdio_output@@CA?AW4parameter_type@12@H@Z 00000001800322c8 f i libucrt:output.obj
 0001:000312d0       ?get_parameter_type@?$positional_parameter_base@DV?$string_output_adapter@D@__crt_stdio_output@@@__crt_stdio_output@@CA?AW4parameter_type@12@I@Z 00000001800322d0 f i libucrt:output.obj
 0001:000312d8       ?get_parameter_type@?$positional_parameter_base@DV?$string_output_adapter@D@__crt_stdio_output@@@__crt_stdio_output@@CA?AW4parameter_type@12@U_CRT_DOUBLE@@@Z 00000001800322d8 f i libucrt:output.obj
 0001:000312e0       ?get_parameter_type@?$positional_parameter_base@DV?$string_output_adapter@D@__crt_stdio_output@@@__crt_stdio_output@@CA?AW4parameter_type@12@_J@Z 00000001800322e0 f i libucrt:output.obj
 0001:000312e8       ?get_parameter_type@?$positional_parameter_base@DV?$string_output_adapter@D@__crt_stdio_output@@@__crt_stdio_output@@CA?AW4parameter_type@12@_K@Z 00000001800322e8 f i libucrt:output.obj
 0001:000312f0       ?get_parameter_type@?$positional_parameter_base@DV?$string_output_adapter@D@__crt_stdio_output@@@__crt_stdio_output@@CA?AW4parameter_type@12@_W@Z 00000001800322f0 f i libucrt:output.obj
 0001:000312f8       ?get_parameter_type@?$positional_parameter_base@_WV?$stream_output_adapter@_W@__crt_stdio_output@@@__crt_stdio_output@@CA?AW4parameter_type@12@F@Z 00000001800322f8 f i libucrt:output.obj
 0001:00031300       ?get_parameter_type@?$positional_parameter_base@_WV?$stream_output_adapter@_W@__crt_stdio_output@@@__crt_stdio_output@@CA?AW4parameter_type@12@G@Z 0000000180032300 f i libucrt:output.obj
 0001:00031308       ?get_parameter_type@?$positional_parameter_base@_WV?$stream_output_adapter@_W@__crt_stdio_output@@@__crt_stdio_output@@CA?AW4parameter_type@12@H@Z 0000000180032308 f i libucrt:output.obj
 0001:00031310       ?get_parameter_type@?$positional_parameter_base@_WV?$stream_output_adapter@_W@__crt_stdio_output@@@__crt_stdio_output@@CA?AW4parameter_type@12@I@Z 0000000180032310 f i libucrt:output.obj
 0001:00031318       ?get_parameter_type@?$positional_parameter_base@_WV?$stream_output_adapter@_W@__crt_stdio_output@@@__crt_stdio_output@@CA?AW4parameter_type@12@U_CRT_DOUBLE@@@Z 0000000180032318 f i libucrt:output.obj
 0001:00031320       ?get_parameter_type@?$positional_parameter_base@_WV?$stream_output_adapter@_W@__crt_stdio_output@@@__crt_stdio_output@@CA?AW4parameter_type@12@_J@Z 0000000180032320 f i libucrt:output.obj
 0001:00031328       ?get_parameter_type@?$positional_parameter_base@_WV?$stream_output_adapter@_W@__crt_stdio_output@@@__crt_stdio_output@@CA?AW4parameter_type@12@_K@Z 0000000180032328 f i libucrt:output.obj
 0001:00031330       ?get_parameter_type@?$positional_parameter_base@_WV?$stream_output_adapter@_W@__crt_stdio_output@@@__crt_stdio_output@@CA?AW4parameter_type@12@_W@Z 0000000180032330 f i libucrt:output.obj
 0001:00031338       ?get_parameter_type@?$positional_parameter_base@_WV?$string_output_adapter@_W@__crt_stdio_output@@@__crt_stdio_output@@CA?AW4parameter_type@12@F@Z 0000000180032338 f i libucrt:output.obj
 0001:00031340       ?get_parameter_type@?$positional_parameter_base@_WV?$string_output_adapter@_W@__crt_stdio_output@@@__crt_stdio_output@@CA?AW4parameter_type@12@G@Z 0000000180032340 f i libucrt:output.obj
 0001:00031348       ?get_parameter_type@?$positional_parameter_base@_WV?$string_output_adapter@_W@__crt_stdio_output@@@__crt_stdio_output@@CA?AW4parameter_type@12@H@Z 0000000180032348 f i libucrt:output.obj
 0001:00031350       ?get_parameter_type@?$positional_parameter_base@_WV?$string_output_adapter@_W@__crt_stdio_output@@@__crt_stdio_output@@CA?AW4parameter_type@12@I@Z 0000000180032350 f i libucrt:output.obj
 0001:00031358       ?get_parameter_type@?$positional_parameter_base@_WV?$string_output_adapter@_W@__crt_stdio_output@@@__crt_stdio_output@@CA?AW4parameter_type@12@U_CRT_DOUBLE@@@Z 0000000180032358 f i libucrt:output.obj
 0001:00031360       ?get_parameter_type@?$positional_parameter_base@_WV?$string_output_adapter@_W@__crt_stdio_output@@@__crt_stdio_output@@CA?AW4parameter_type@12@_J@Z 0000000180032360 f i libucrt:output.obj
 0001:00031368       ?get_parameter_type@?$positional_parameter_base@_WV?$string_output_adapter@_W@__crt_stdio_output@@@__crt_stdio_output@@CA?AW4parameter_type@12@_K@Z 0000000180032368 f i libucrt:output.obj
 0001:00031370       ?get_parameter_type@?$positional_parameter_base@_WV?$string_output_adapter@_W@__crt_stdio_output@@@__crt_stdio_output@@CA?AW4parameter_type@12@_W@Z 0000000180032370 f i libucrt:output.obj
 0001:00031378       ?has_flag@?$output_processor@DV?$stream_output_adapter@D@__crt_stdio_output@@V?$format_validation_base@DV?$stream_output_adapter@D@__crt_stdio_output@@@2@@__crt_stdio_output@@AEBA_NI@Z 0000000180032378 f i libucrt:output.obj
 0001:00031380       ?has_flag@?$output_processor@DV?$stream_output_adapter@D@__crt_stdio_output@@V?$positional_parameter_base@DV?$stream_output_adapter@D@__crt_stdio_output@@@2@@__crt_stdio_output@@AEBA_NI@Z 0000000180032380 f i libucrt:output.obj
 0001:00031388       ?has_flag@?$output_processor@DV?$stream_output_adapter@D@__crt_stdio_output@@V?$standard_base@DV?$stream_output_adapter@D@__crt_stdio_output@@@2@@__crt_stdio_output@@AEBA_NI@Z 0000000180032388 f i libucrt:output.obj
 0001:00031390       ?has_flag@?$output_processor@DV?$string_output_adapter@D@__crt_stdio_output@@V?$format_validation_base@DV?$string_output_adapter@D@__crt_stdio_output@@@2@@__crt_stdio_output@@AEBA_NI@Z 0000000180032390 f i libucrt:output.obj
 0001:00031398       ?has_flag@?$output_processor@DV?$string_output_adapter@D@__crt_stdio_output@@V?$positional_parameter_base@DV?$string_output_adapter@D@__crt_stdio_output@@@2@@__crt_stdio_output@@AEBA_NI@Z 0000000180032398 f i libucrt:output.obj
 0001:000313a0       ?has_flag@?$output_processor@DV?$string_output_adapter@D@__crt_stdio_output@@V?$standard_base@DV?$string_output_adapter@D@__crt_stdio_output@@@2@@__crt_stdio_output@@AEBA_NI@Z 00000001800323a0 f i libucrt:output.obj
 0001:000313a8       ?has_flag@?$output_processor@_WV?$stream_output_adapter@_W@__crt_stdio_output@@V?$format_validation_base@_WV?$stream_output_adapter@_W@__crt_stdio_output@@@2@@__crt_stdio_output@@AEBA_NI@Z 00000001800323a8 f i libucrt:output.obj
 0001:000313b0       ?has_flag@?$output_processor@_WV?$stream_output_adapter@_W@__crt_stdio_output@@V?$positional_parameter_base@_WV?$stream_output_adapter@_W@__crt_stdio_output@@@2@@__crt_stdio_output@@AEBA_NI@Z 00000001800323b0 f i libucrt:output.obj
 0001:000313b8       ?has_flag@?$output_processor@_WV?$stream_output_adapter@_W@__crt_stdio_output@@V?$standard_base@_WV?$stream_output_adapter@_W@__crt_stdio_output@@@2@@__crt_stdio_output@@AEBA_NI@Z 00000001800323b8 f i libucrt:output.obj
 0001:000313c0       ?has_flag@?$output_processor@_WV?$string_output_adapter@_W@__crt_stdio_output@@V?$format_validation_base@_WV?$string_output_adapter@_W@__crt_stdio_output@@@2@@__crt_stdio_output@@AEBA_NI@Z 00000001800323c0 f i libucrt:output.obj
 0001:000313c8       ?has_flag@?$output_processor@_WV?$string_output_adapter@_W@__crt_stdio_output@@V?$positional_parameter_base@_WV?$string_output_adapter@_W@__crt_stdio_output@@@2@@__crt_stdio_output@@AEBA_NI@Z 00000001800323c8 f i libucrt:output.obj
 0001:000313d0       ?has_flag@?$output_processor@_WV?$string_output_adapter@_W@__crt_stdio_output@@V?$standard_base@_WV?$string_output_adapter@_W@__crt_stdio_output@@@2@@__crt_stdio_output@@AEBA_NI@Z 00000001800323d0 f i libucrt:output.obj
 0001:000313d8       ?is_positional_parameter_reappearance_consistent@?$positional_parameter_base@DV?$stream_output_adapter@D@__crt_stdio_output@@@__crt_stdio_output@@AEAA_NAEBUparameter_data@12@W4parameter_type@12@DW4length_modifier@2@@Z 00000001800323d8 f i libucrt:output.obj
 0001:0003160c       ?is_positional_parameter_reappearance_consistent@?$positional_parameter_base@DV?$string_output_adapter@D@__crt_stdio_output@@@__crt_stdio_output@@AEAA_NAEBUparameter_data@12@W4parameter_type@12@DW4length_modifier@2@@Z 000000018003260c f i libucrt:output.obj
 0001:00031840       ?is_positional_parameter_reappearance_consistent@?$positional_parameter_base@_WV?$stream_output_adapter@_W@__crt_stdio_output@@@__crt_stdio_output@@AEAA_NAEBUparameter_data@12@W4parameter_type@12@_WW4length_modifier@2@@Z 0000000180032840 f i libucrt:output.obj
 0001:00031a44       ?is_positional_parameter_reappearance_consistent@?$positional_parameter_base@_WV?$string_output_adapter@_W@__crt_stdio_output@@@__crt_stdio_output@@AEAA_NAEBUparameter_data@12@W4parameter_type@12@_WW4length_modifier@2@@Z 0000000180032a44 f i libucrt:output.obj
 0001:00031c48       ?is_string_backed@__crt_stdio_stream@@QEBA_NXZ 0000000180032c48 f i libucrt:output.obj
 0001:00031c58       ?maximum_signed_value@__crt_strtox@@YAJK@Z 0000000180032c58 f i libucrt:output.obj
 0001:00031c60       ?minimum_signed_value@__crt_strtox@@YAJK@Z 0000000180032c60 f i libucrt:output.obj
 0001:00031c68       ?narrow_null_string@?$output_processor@DV?$stream_output_adapter@D@__crt_stdio_output@@V?$format_validation_base@DV?$stream_output_adapter@D@__crt_stdio_output@@@2@@__crt_stdio_output@@CAPEADXZ 0000000180032c68 f i libucrt:output.obj
 0001:00031c70       ?narrow_null_string@?$output_processor@DV?$stream_output_adapter@D@__crt_stdio_output@@V?$positional_parameter_base@DV?$stream_output_adapter@D@__crt_stdio_output@@@2@@__crt_stdio_output@@CAPEADXZ 0000000180032c70 f i libucrt:output.obj
 0001:00031c78       ?narrow_null_string@?$output_processor@DV?$stream_output_adapter@D@__crt_stdio_output@@V?$standard_base@DV?$stream_output_adapter@D@__crt_stdio_output@@@2@@__crt_stdio_output@@CAPEADXZ 0000000180032c78 f i libucrt:output.obj
 0001:00031c80       ?narrow_null_string@?$output_processor@DV?$string_output_adapter@D@__crt_stdio_output@@V?$format_validation_base@DV?$string_output_adapter@D@__crt_stdio_output@@@2@@__crt_stdio_output@@CAPEADXZ 0000000180032c80 f i libucrt:output.obj
 0001:00031c88       ?narrow_null_string@?$output_processor@DV?$string_output_adapter@D@__crt_stdio_output@@V?$positional_parameter_base@DV?$string_output_adapter@D@__crt_stdio_output@@@2@@__crt_stdio_output@@CAPEADXZ 0000000180032c88 f i libucrt:output.obj
 0001:00031c90       ?narrow_null_string@?$output_processor@DV?$string_output_adapter@D@__crt_stdio_output@@V?$standard_base@DV?$string_output_adapter@D@__crt_stdio_output@@@2@@__crt_stdio_output@@CAPEADXZ 0000000180032c90 f i libucrt:output.obj
 0001:00031c98       ?narrow_null_string@?$output_processor@_WV?$stream_output_adapter@_W@__crt_stdio_output@@V?$format_validation_base@_WV?$stream_output_adapter@_W@__crt_stdio_output@@@2@@__crt_stdio_output@@CAPEADXZ 0000000180032c98 f i libucrt:output.obj
 0001:00031ca0       ?narrow_null_string@?$output_processor@_WV?$stream_output_adapter@_W@__crt_stdio_output@@V?$positional_parameter_base@_WV?$stream_output_adapter@_W@__crt_stdio_output@@@2@@__crt_stdio_output@@CAPEADXZ 0000000180032ca0 f i libucrt:output.obj
 0001:00031ca8       ?narrow_null_string@?$output_processor@_WV?$stream_output_adapter@_W@__crt_stdio_output@@V?$standard_base@_WV?$stream_output_adapter@_W@__crt_stdio_output@@@2@@__crt_stdio_output@@CAPEADXZ 0000000180032ca8 f i libucrt:output.obj
 0001:00031cb0       ?narrow_null_string@?$output_processor@_WV?$string_output_adapter@_W@__crt_stdio_output@@V?$format_validation_base@_WV?$string_output_adapter@_W@__crt_stdio_output@@@2@@__crt_stdio_output@@CAPEADXZ 0000000180032cb0 f i libucrt:output.obj
 0001:00031cb8       ?narrow_null_string@?$output_processor@_WV?$string_output_adapter@_W@__crt_stdio_output@@V?$positional_parameter_base@_WV?$string_output_adapter@_W@__crt_stdio_output@@@2@@__crt_stdio_output@@CAPEADXZ 0000000180032cb8 f i libucrt:output.obj
 0001:00031cc0       ?narrow_null_string@?$output_processor@_WV?$string_output_adapter@_W@__crt_stdio_output@@V?$standard_base@_WV?$string_output_adapter@_W@__crt_stdio_output@@@2@@__crt_stdio_output@@CAPEADXZ 0000000180032cc0 f i libucrt:output.obj
 0001:00031cc8       ?parse_digit@__crt_strtox@@YAID@Z 0000000180032cc8 f i libucrt:output.obj
 0001:00031cf8       ?parse_digit@__crt_strtox@@YAI_W@Z 0000000180032cf8 f i libucrt:output.obj
 0001:00031eb4       ?parse_int_from_format_string@?$output_processor@DV?$stream_output_adapter@D@__crt_stdio_output@@V?$format_validation_base@DV?$stream_output_adapter@D@__crt_stdio_output@@@2@@__crt_stdio_output@@AEAA_NQEAH@Z 0000000180032eb4 f i libucrt:output.obj
 0001:00031f44       ?parse_int_from_format_string@?$output_processor@DV?$stream_output_adapter@D@__crt_stdio_output@@V?$positional_parameter_base@DV?$stream_output_adapter@D@__crt_stdio_output@@@2@@__crt_stdio_output@@AEAA_NQEAH@Z 0000000180032f44 f i libucrt:output.obj
 0001:00031fd4       ?parse_int_from_format_string@?$output_processor@DV?$stream_output_adapter@D@__crt_stdio_output@@V?$standard_base@DV?$stream_output_adapter@D@__crt_stdio_output@@@2@@__crt_stdio_output@@AEAA_NQEAH@Z 0000000180032fd4 f i libucrt:output.obj
 0001:00032064       ?parse_int_from_format_string@?$output_processor@DV?$string_output_adapter@D@__crt_stdio_output@@V?$format_validation_base@DV?$string_output_adapter@D@__crt_stdio_output@@@2@@__crt_stdio_output@@AEAA_NQEAH@Z 0000000180033064 f i libucrt:output.obj
 0001:000320f4       ?parse_int_from_format_string@?$output_processor@DV?$string_output_adapter@D@__crt_stdio_output@@V?$positional_parameter_base@DV?$string_output_adapter@D@__crt_stdio_output@@@2@@__crt_stdio_output@@AEAA_NQEAH@Z 00000001800330f4 f i libucrt:output.obj
 0001:00032184       ?parse_int_from_format_string@?$output_processor@DV?$string_output_adapter@D@__crt_stdio_output@@V?$standard_base@DV?$string_output_adapter@D@__crt_stdio_output@@@2@@__crt_stdio_output@@AEAA_NQEAH@Z 0000000180033184 f i libucrt:output.obj
 0001:00032214       ?parse_int_from_format_string@?$output_processor@_WV?$stream_output_adapter@_W@__crt_stdio_output@@V?$format_validation_base@_WV?$stream_output_adapter@_W@__crt_stdio_output@@@2@@__crt_stdio_output@@AEAA_NQEAH@Z 0000000180033214 f i libucrt:output.obj
 0001:000322a4       ?parse_int_from_format_string@?$output_processor@_WV?$stream_output_adapter@_W@__crt_stdio_output@@V?$positional_parameter_base@_WV?$stream_output_adapter@_W@__crt_stdio_output@@@2@@__crt_stdio_output@@AEAA_NQEAH@Z 00000001800332a4 f i libucrt:output.obj
 0001:00032334       ?parse_int_from_format_string@?$output_processor@_WV?$stream_output_adapter@_W@__crt_stdio_output@@V?$standard_base@_WV?$stream_output_adapter@_W@__crt_stdio_output@@@2@@__crt_stdio_output@@AEAA_NQEAH@Z 0000000180033334 f i libucrt:output.obj
 0001:000323c4       ?parse_int_from_format_string@?$output_processor@_WV?$string_output_adapter@_W@__crt_stdio_output@@V?$format_validation_base@_WV?$string_output_adapter@_W@__crt_stdio_output@@@2@@__crt_stdio_output@@AEAA_NQEAH@Z 00000001800333c4 f i libucrt:output.obj
 0001:00032454       ?parse_int_from_format_string@?$output_processor@_WV?$string_output_adapter@_W@__crt_stdio_output@@V?$positional_parameter_base@_WV?$string_output_adapter@_W@__crt_stdio_output@@@2@@__crt_stdio_output@@AEAA_NQEAH@Z 0000000180033454 f i libucrt:output.obj
 0001:000324e4       ?parse_int_from_format_string@?$output_processor@_WV?$string_output_adapter@_W@__crt_stdio_output@@V?$standard_base@_WV?$string_output_adapter@_W@__crt_stdio_output@@@2@@__crt_stdio_output@@AEAA_NQEAH@Z 00000001800334e4 f i libucrt:output.obj
 0001:00032574       ?process@?$output_processor@DV?$stream_output_adapter@D@__crt_stdio_output@@V?$format_validation_base@DV?$stream_output_adapter@D@__crt_stdio_output@@@2@@__crt_stdio_output@@QEAAHXZ 0000000180033574 f i libucrt:output.obj
 0001:00032910       ?process@?$output_processor@DV?$stream_output_adapter@D@__crt_stdio_output@@V?$positional_parameter_base@DV?$stream_output_adapter@D@__crt_stdio_output@@@2@@__crt_stdio_output@@QEAAHXZ 0000000180033910 f i libucrt:output.obj
 0001:00032d44       ?process@?$output_processor@DV?$stream_output_adapter@D@__crt_stdio_output@@V?$standard_base@DV?$stream_output_adapter@D@__crt_stdio_output@@@2@@__crt_stdio_output@@QEAAHXZ 0000000180033d44 f i libucrt:output.obj
 0001:000330dc       ?process@?$output_processor@DV?$string_output_adapter@D@__crt_stdio_output@@V?$format_validation_base@DV?$string_output_adapter@D@__crt_stdio_output@@@2@@__crt_stdio_output@@QEAAHXZ 00000001800340dc f i libucrt:output.obj
 0001:00033460       ?process@?$output_processor@DV?$string_output_adapter@D@__crt_stdio_output@@V?$positional_parameter_base@DV?$string_output_adapter@D@__crt_stdio_output@@@2@@__crt_stdio_output@@QEAAHXZ 0000000180034460 f i libucrt:output.obj
 0001:00033878       ?process@?$output_processor@DV?$string_output_adapter@D@__crt_stdio_output@@V?$standard_base@DV?$string_output_adapter@D@__crt_stdio_output@@@2@@__crt_stdio_output@@QEAAHXZ 0000000180034878 f i libucrt:output.obj
 0001:00033bf8       ?process@?$output_processor@_WV?$stream_output_adapter@_W@__crt_stdio_output@@V?$format_validation_base@_WV?$stream_output_adapter@_W@__crt_stdio_output@@@2@@__crt_stdio_output@@QEAAHXZ 0000000180034bf8 f i libucrt:output.obj
 0001:00033ed8       ?process@?$output_processor@_WV?$stream_output_adapter@_W@__crt_stdio_output@@V?$positional_parameter_base@_WV?$stream_output_adapter@_W@__crt_stdio_output@@@2@@__crt_stdio_output@@QEAAHXZ 0000000180034ed8 f i libucrt:output.obj
 0001:00034248       ?process@?$output_processor@_WV?$stream_output_adapter@_W@__crt_stdio_output@@V?$standard_base@_WV?$stream_output_adapter@_W@__crt_stdio_output@@@2@@__crt_stdio_output@@QEAAHXZ 0000000180035248 f i libucrt:output.obj
 0001:00034518       ?process@?$output_processor@_WV?$string_output_adapter@_W@__crt_stdio_output@@V?$format_validation_base@_WV?$string_output_adapter@_W@__crt_stdio_output@@@2@@__crt_stdio_output@@QEAAHXZ 0000000180035518 f i libucrt:output.obj
 0001:000347f0       ?process@?$output_processor@_WV?$string_output_adapter@_W@__crt_stdio_output@@V?$positional_parameter_base@_WV?$string_output_adapter@_W@__crt_stdio_output@@@2@@__crt_stdio_output@@QEAAHXZ 00000001800357f0 f i libucrt:output.obj
 0001:00034b5c       ?process@?$output_processor@_WV?$string_output_adapter@_W@__crt_stdio_output@@V?$standard_base@_WV?$string_output_adapter@_W@__crt_stdio_output@@@2@@__crt_stdio_output@@QEAAHXZ 0000000180035b5c f i libucrt:output.obj
 0001:00034e34       ?public_stream@__crt_stdio_stream@@QEBAPEAU_iobuf@@XZ 0000000180035e34 f i libucrt:output.obj
 0001:00034e38       ?restore_state@?$c_string_character_source@D@__crt_strtox@@QEAA_NQEBD@Z 0000000180035e38 f i libucrt:output.obj
 0001:00034e40       ?restore_state@?$c_string_character_source@_W@__crt_strtox@@QEAA_NQEB_W@Z 0000000180035e40 f i libucrt:output.obj
 0001:00034e48       ?save_state@?$c_string_character_source@D@__crt_strtox@@QEBAPEBDXZ 0000000180035e48 f i libucrt:output.obj
 0001:00034e4c       ?save_state@?$c_string_character_source@_W@__crt_strtox@@QEBAPEB_WXZ 0000000180035e4c f i libucrt:output.obj
 0001:00034e50       ?set_flag@?$output_processor@DV?$stream_output_adapter@D@__crt_stdio_output@@V?$format_validation_base@DV?$stream_output_adapter@D@__crt_stdio_output@@@2@@__crt_stdio_output@@AEAAXI@Z 0000000180035e50 f i libucrt:output.obj
 0001:00034e54       ?set_flag@?$output_processor@DV?$stream_output_adapter@D@__crt_stdio_output@@V?$positional_parameter_base@DV?$stream_output_adapter@D@__crt_stdio_output@@@2@@__crt_stdio_output@@AEAAXI@Z 0000000180035e54 f i libucrt:output.obj
 0001:00034e58       ?set_flag@?$output_processor@DV?$stream_output_adapter@D@__crt_stdio_output@@V?$standard_base@DV?$stream_output_adapter@D@__crt_stdio_output@@@2@@__crt_stdio_output@@AEAAXI@Z 0000000180035e58 f i libucrt:output.obj
 0001:00034e5c       ?set_flag@?$output_processor@DV?$string_output_adapter@D@__crt_stdio_output@@V?$format_validation_base@DV?$string_output_adapter@D@__crt_stdio_output@@@2@@__crt_stdio_output@@AEAAXI@Z 0000000180035e5c f i libucrt:output.obj
 0001:00034e60       ?set_flag@?$output_processor@DV?$string_output_adapter@D@__crt_stdio_output@@V?$positional_parameter_base@DV?$string_output_adapter@D@__crt_stdio_output@@@2@@__crt_stdio_output@@AEAAXI@Z 0000000180035e60 f i libucrt:output.obj
 0001:00034e64       ?set_flag@?$output_processor@DV?$string_output_adapter@D@__crt_stdio_output@@V?$standard_base@DV?$string_output_adapter@D@__crt_stdio_output@@@2@@__crt_stdio_output@@AEAAXI@Z 0000000180035e64 f i libucrt:output.obj
 0001:00034e68       ?set_flag@?$output_processor@_WV?$stream_output_adapter@_W@__crt_stdio_output@@V?$format_validation_base@_WV?$stream_output_adapter@_W@__crt_stdio_output@@@2@@__crt_stdio_output@@AEAAXI@Z 0000000180035e68 f i libucrt:output.obj
 0001:00034e6c       ?set_flag@?$output_processor@_WV?$stream_output_adapter@_W@__crt_stdio_output@@V?$positional_parameter_base@_WV?$stream_output_adapter@_W@__crt_stdio_output@@@2@@__crt_stdio_output@@AEAAXI@Z 0000000180035e6c f i libucrt:output.obj
 0001:00034e70       ?set_flag@?$output_processor@_WV?$stream_output_adapter@_W@__crt_stdio_output@@V?$standard_base@_WV?$stream_output_adapter@_W@__crt_stdio_output@@@2@@__crt_stdio_output@@AEAAXI@Z 0000000180035e70 f i libucrt:output.obj
 0001:00034e74       ?set_flag@?$output_processor@_WV?$string_output_adapter@_W@__crt_stdio_output@@V?$format_validation_base@_WV?$string_output_adapter@_W@__crt_stdio_output@@@2@@__crt_stdio_output@@AEAAXI@Z 0000000180035e74 f i libucrt:output.obj
 0001:00034e78       ?set_flag@?$output_processor@_WV?$string_output_adapter@_W@__crt_stdio_output@@V?$positional_parameter_base@_WV?$string_output_adapter@_W@__crt_stdio_output@@@2@@__crt_stdio_output@@AEAAXI@Z 0000000180035e78 f i libucrt:output.obj
 0001:00034e7c       ?set_flag@?$output_processor@_WV?$string_output_adapter@_W@__crt_stdio_output@@V?$standard_base@_WV?$string_output_adapter@_W@__crt_stdio_output@@@2@@__crt_stdio_output@@AEAAXI@Z 0000000180035e7c f i libucrt:output.obj
 0001:00034e80       ?should_format@?$positional_parameter_base@DV?$stream_output_adapter@D@__crt_stdio_output@@@__crt_stdio_output@@IEAA_NXZ 0000000180035e80 f i libucrt:output.obj
 0001:00034e98       ?should_format@?$positional_parameter_base@DV?$string_output_adapter@D@__crt_stdio_output@@@__crt_stdio_output@@IEAA_NXZ 0000000180035e98 f i libucrt:output.obj
 0001:00034eb0       ?should_format@?$positional_parameter_base@_WV?$stream_output_adapter@_W@__crt_stdio_output@@@__crt_stdio_output@@IEAA_NXZ 0000000180035eb0 f i libucrt:output.obj
 0001:00034ec8       ?should_format@?$positional_parameter_base@_WV?$string_output_adapter@_W@__crt_stdio_output@@@__crt_stdio_output@@IEAA_NXZ 0000000180035ec8 f i libucrt:output.obj
 0001:00034ee0       ?should_format@?$standard_base@DV?$stream_output_adapter@D@__crt_stdio_output@@@__crt_stdio_output@@IEAA_NXZ 0000000180035ee0 f i libucrt:output.obj
 0001:00034ee4       ?should_format@?$standard_base@DV?$string_output_adapter@D@__crt_stdio_output@@@__crt_stdio_output@@IEAA_NXZ 0000000180035ee4 f i libucrt:output.obj
 0001:00034ee8       ?should_format@?$standard_base@_WV?$stream_output_adapter@_W@__crt_stdio_output@@@__crt_stdio_output@@IEAA_NXZ 0000000180035ee8 f i libucrt:output.obj
 0001:00034eec       ?should_format@?$standard_base@_WV?$string_output_adapter@_W@__crt_stdio_output@@@__crt_stdio_output@@IEAA_NXZ 0000000180035eec f i libucrt:output.obj
 0001:00034ef0       ?should_skip_normal_state_processing@?$positional_parameter_base@DV?$stream_output_adapter@D@__crt_stdio_output@@@__crt_stdio_output@@IEAA_NXZ 0000000180035ef0 f i libucrt:output.obj
 0001:00034f1c       ?should_skip_normal_state_processing@?$positional_parameter_base@DV?$string_output_adapter@D@__crt_stdio_output@@@__crt_stdio_output@@IEAA_NXZ 0000000180035f1c f i libucrt:output.obj
 0001:00034f48       ?should_skip_normal_state_processing@?$positional_parameter_base@_WV?$stream_output_adapter@_W@__crt_stdio_output@@@__crt_stdio_output@@IEAA_NXZ 0000000180035f48 f i libucrt:output.obj
 0001:00034f74       ?should_skip_normal_state_processing@?$positional_parameter_base@_WV?$string_output_adapter@_W@__crt_stdio_output@@@__crt_stdio_output@@IEAA_NXZ 0000000180035f74 f i libucrt:output.obj
 0001:00034fa0       ?should_skip_normal_state_processing@?$standard_base@DV?$stream_output_adapter@D@__crt_stdio_output@@@__crt_stdio_output@@IEAA_NXZ 0000000180035fa0 f i libucrt:output.obj
 0001:00034fa4       ?should_skip_normal_state_processing@?$standard_base@DV?$string_output_adapter@D@__crt_stdio_output@@@__crt_stdio_output@@IEAA_NXZ 0000000180035fa4 f i libucrt:output.obj
 0001:00034fa8       ?should_skip_normal_state_processing@?$standard_base@_WV?$stream_output_adapter@_W@__crt_stdio_output@@@__crt_stdio_output@@IEAA_NXZ 0000000180035fa8 f i libucrt:output.obj
 0001:00034fac       ?should_skip_normal_state_processing@?$standard_base@_WV?$string_output_adapter@_W@__crt_stdio_output@@@__crt_stdio_output@@IEAA_NXZ 0000000180035fac f i libucrt:output.obj
 0001:00034fb0       ?should_skip_type_state_output@?$positional_parameter_base@DV?$stream_output_adapter@D@__crt_stdio_output@@@__crt_stdio_output@@IEBA_NXZ 0000000180035fb0 f i libucrt:output.obj
 0001:00034fcc       ?should_skip_type_state_output@?$positional_parameter_base@DV?$string_output_adapter@D@__crt_stdio_output@@@__crt_stdio_output@@IEBA_NXZ 0000000180035fcc f i libucrt:output.obj
 0001:00034fe8       ?should_skip_type_state_output@?$positional_parameter_base@_WV?$stream_output_adapter@_W@__crt_stdio_output@@@__crt_stdio_output@@IEBA_NXZ 0000000180035fe8 f i libucrt:output.obj
 0001:00035004       ?should_skip_type_state_output@?$positional_parameter_base@_WV?$string_output_adapter@_W@__crt_stdio_output@@@__crt_stdio_output@@IEBA_NXZ 0000000180036004 f i libucrt:output.obj
 0001:00035020       ?should_skip_type_state_output@?$standard_base@DV?$stream_output_adapter@D@__crt_stdio_output@@@__crt_stdio_output@@IEBA_NXZ 0000000180036020 f i libucrt:output.obj
 0001:00035024       ?should_skip_type_state_output@?$standard_base@DV?$string_output_adapter@D@__crt_stdio_output@@@__crt_stdio_output@@IEBA_NXZ 0000000180036024 f i libucrt:output.obj
 0001:00035028       ?should_skip_type_state_output@?$standard_base@_WV?$stream_output_adapter@_W@__crt_stdio_output@@@__crt_stdio_output@@IEBA_NXZ 0000000180036028 f i libucrt:output.obj
 0001:0003502c       ?should_skip_type_state_output@?$standard_base@_WV?$string_output_adapter@_W@__crt_stdio_output@@@__crt_stdio_output@@IEBA_NXZ 000000018003602c f i libucrt:output.obj
 0001:00035030       ?state_case_dot@?$output_processor@DV?$stream_output_adapter@D@__crt_stdio_output@@V?$format_validation_base@DV?$stream_output_adapter@D@__crt_stdio_output@@@2@@__crt_stdio_output@@AEAA_NXZ 0000000180036030 f i libucrt:output.obj
 0001:00035038       ?state_case_dot@?$output_processor@DV?$stream_output_adapter@D@__crt_stdio_output@@V?$positional_parameter_base@DV?$stream_output_adapter@D@__crt_stdio_output@@@2@@__crt_stdio_output@@AEAA_NXZ 0000000180036038 f i libucrt:output.obj
 0001:00035040       ?state_case_dot@?$output_processor@DV?$stream_output_adapter@D@__crt_stdio_output@@V?$standard_base@DV?$stream_output_adapter@D@__crt_stdio_output@@@2@@__crt_stdio_output@@AEAA_NXZ 0000000180036040 f i libucrt:output.obj
 0001:00035048       ?state_case_dot@?$output_processor@DV?$string_output_adapter@D@__crt_stdio_output@@V?$format_validation_base@DV?$string_output_adapter@D@__crt_stdio_output@@@2@@__crt_stdio_output@@AEAA_NXZ 0000000180036048 f i libucrt:output.obj
 0001:00035050       ?state_case_dot@?$output_processor@DV?$string_output_adapter@D@__crt_stdio_output@@V?$positional_parameter_base@DV?$string_output_adapter@D@__crt_stdio_output@@@2@@__crt_stdio_output@@AEAA_NXZ 0000000180036050 f i libucrt:output.obj
 0001:00035058       ?state_case_dot@?$output_processor@DV?$string_output_adapter@D@__crt_stdio_output@@V?$standard_base@DV?$string_output_adapter@D@__crt_stdio_output@@@2@@__crt_stdio_output@@AEAA_NXZ 0000000180036058 f i libucrt:output.obj
 0001:00035060       ?state_case_dot@?$output_processor@_WV?$stream_output_adapter@_W@__crt_stdio_output@@V?$format_validation_base@_WV?$stream_output_adapter@_W@__crt_stdio_output@@@2@@__crt_stdio_output@@AEAA_NXZ 0000000180036060 f i libucrt:output.obj
 0001:00035068       ?state_case_dot@?$output_processor@_WV?$stream_output_adapter@_W@__crt_stdio_output@@V?$positional_parameter_base@_WV?$stream_output_adapter@_W@__crt_stdio_output@@@2@@__crt_stdio_output@@AEAA_NXZ 0000000180036068 f i libucrt:output.obj
 0001:00035070       ?state_case_dot@?$output_processor@_WV?$stream_output_adapter@_W@__crt_stdio_output@@V?$standard_base@_WV?$stream_output_adapter@_W@__crt_stdio_output@@@2@@__crt_stdio_output@@AEAA_NXZ 0000000180036070 f i libucrt:output.obj
 0001:00035078       ?state_case_dot@?$output_processor@_WV?$string_output_adapter@_W@__crt_stdio_output@@V?$format_validation_base@_WV?$string_output_adapter@_W@__crt_stdio_output@@@2@@__crt_stdio_output@@AEAA_NXZ 0000000180036078 f i libucrt:output.obj
 0001:00035080       ?state_case_dot@?$output_processor@_WV?$string_output_adapter@_W@__crt_stdio_output@@V?$positional_parameter_base@_WV?$string_output_adapter@_W@__crt_stdio_output@@@2@@__crt_stdio_output@@AEAA_NXZ 0000000180036080 f i libucrt:output.obj
 0001:00035088       ?state_case_dot@?$output_processor@_WV?$string_output_adapter@_W@__crt_stdio_output@@V?$standard_base@_WV?$string_output_adapter@_W@__crt_stdio_output@@@2@@__crt_stdio_output@@AEAA_NXZ 0000000180036088 f i libucrt:output.obj
 0001:00035090       ?state_case_flag@?$output_processor@DV?$stream_output_adapter@D@__crt_stdio_output@@V?$format_validation_base@DV?$stream_output_adapter@D@__crt_stdio_output@@@2@@__crt_stdio_output@@AEAA_NXZ 0000000180036090 f i libucrt:output.obj
 0001:000350c8       ?state_case_flag@?$output_processor@DV?$stream_output_adapter@D@__crt_stdio_output@@V?$positional_parameter_base@DV?$stream_output_adapter@D@__crt_stdio_output@@@2@@__crt_stdio_output@@AEAA_NXZ 00000001800360c8 f i libucrt:output.obj
 0001:00035100       ?state_case_flag@?$output_processor@DV?$stream_output_adapter@D@__crt_stdio_output@@V?$standard_base@DV?$stream_output_adapter@D@__crt_stdio_output@@@2@@__crt_stdio_output@@AEAA_NXZ 0000000180036100 f i libucrt:output.obj
 0001:00035138       ?state_case_flag@?$output_processor@DV?$string_output_adapter@D@__crt_stdio_output@@V?$format_validation_base@DV?$string_output_adapter@D@__crt_stdio_output@@@2@@__crt_stdio_output@@AEAA_NXZ 0000000180036138 f i libucrt:output.obj
 0001:00035170       ?state_case_flag@?$output_processor@DV?$string_output_adapter@D@__crt_stdio_output@@V?$positional_parameter_base@DV?$string_output_adapter@D@__crt_stdio_output@@@2@@__crt_stdio_output@@AEAA_NXZ 0000000180036170 f i libucrt:output.obj
 0001:000351a8       ?state_case_flag@?$output_processor@DV?$string_output_adapter@D@__crt_stdio_output@@V?$standard_base@DV?$string_output_adapter@D@__crt_stdio_output@@@2@@__crt_stdio_output@@AEAA_NXZ 00000001800361a8 f i libucrt:output.obj
 0001:000351e0       ?state_case_flag@?$output_processor@_WV?$stream_output_adapter@_W@__crt_stdio_output@@V?$format_validation_base@_WV?$stream_output_adapter@_W@__crt_stdio_output@@@2@@__crt_stdio_output@@AEAA_NXZ 00000001800361e0 f i libucrt:output.obj
 0001:00035224       ?state_case_flag@?$output_processor@_WV?$stream_output_adapter@_W@__crt_stdio_output@@V?$positional_parameter_base@_WV?$stream_output_adapter@_W@__crt_stdio_output@@@2@@__crt_stdio_output@@AEAA_NXZ 0000000180036224 f i libucrt:output.obj
 0001:00035268       ?state_case_flag@?$output_processor@_WV?$stream_output_adapter@_W@__crt_stdio_output@@V?$standard_base@_WV?$stream_output_adapter@_W@__crt_stdio_output@@@2@@__crt_stdio_output@@AEAA_NXZ 0000000180036268 f i libucrt:output.obj
 0001:000352ac       ?state_case_flag@?$output_processor@_WV?$string_output_adapter@_W@__crt_stdio_output@@V?$format_validation_base@_WV?$string_output_adapter@_W@__crt_stdio_output@@@2@@__crt_stdio_output@@AEAA_NXZ 00000001800362ac f i libucrt:output.obj
 0001:000352f0       ?state_case_flag@?$output_processor@_WV?$string_output_adapter@_W@__crt_stdio_output@@V?$positional_parameter_base@_WV?$string_output_adapter@_W@__crt_stdio_output@@@2@@__crt_stdio_output@@AEAA_NXZ 00000001800362f0 f i libucrt:output.obj
 0001:00035334       ?state_case_flag@?$output_processor@_WV?$string_output_adapter@_W@__crt_stdio_output@@V?$standard_base@_WV?$string_output_adapter@_W@__crt_stdio_output@@@2@@__crt_stdio_output@@AEAA_NXZ 0000000180036334 f i libucrt:output.obj
 0001:00035378       ?state_case_normal@?$output_processor@DV?$stream_output_adapter@D@__crt_stdio_output@@V?$format_validation_base@DV?$stream_output_adapter@D@__crt_stdio_output@@@2@@__crt_stdio_output@@AEAA_NXZ 0000000180036378 f i libucrt:output.obj
 0001:000354cc       ?state_case_normal@?$output_processor@DV?$stream_output_adapter@D@__crt_stdio_output@@V?$positional_parameter_base@DV?$stream_output_adapter@D@__crt_stdio_output@@@2@@__crt_stdio_output@@AEAA_NXZ 00000001800364cc f i libucrt:output.obj
 0001:0003564c       ?state_case_normal@?$output_processor@DV?$stream_output_adapter@D@__crt_stdio_output@@V?$standard_base@DV?$stream_output_adapter@D@__crt_stdio_output@@@2@@__crt_stdio_output@@AEAA_NXZ 000000018003664c f i libucrt:output.obj
 0001:000357a0       ?state_case_normal@?$output_processor@DV?$string_output_adapter@D@__crt_stdio_output@@V?$format_validation_base@DV?$string_output_adapter@D@__crt_stdio_output@@@2@@__crt_stdio_output@@AEAA_NXZ 00000001800367a0 f i libucrt:output.obj
 0001:000358ec       ?state_case_normal@?$output_processor@DV?$string_output_adapter@D@__crt_stdio_output@@V?$positional_parameter_base@DV?$string_output_adapter@D@__crt_stdio_output@@@2@@__crt_stdio_output@@AEAA_NXZ 00000001800368ec f i libucrt:output.obj
 0001:00035a64       ?state_case_normal@?$output_processor@DV?$string_output_adapter@D@__crt_stdio_output@@V?$standard_base@DV?$string_output_adapter@D@__crt_stdio_output@@@2@@__crt_stdio_output@@AEAA_NXZ 0000000180036a64 f i libucrt:output.obj
 0001:00035bb0       ?state_case_normal@?$output_processor@_WV?$stream_output_adapter@_W@__crt_stdio_output@@V?$format_validation_base@_WV?$stream_output_adapter@_W@__crt_stdio_output@@@2@@__crt_stdio_output@@AEAA_NXZ 0000000180036bb0 f i libucrt:output.obj
 0001:00035c10       ?state_case_normal@?$output_processor@_WV?$stream_output_adapter@_W@__crt_stdio_output@@V?$positional_parameter_base@_WV?$stream_output_adapter@_W@__crt_stdio_output@@@2@@__crt_stdio_output@@AEAA_NXZ 0000000180036c10 f i libucrt:output.obj
 0001:00035c94       ?state_case_normal@?$output_processor@_WV?$stream_output_adapter@_W@__crt_stdio_output@@V?$standard_base@_WV?$stream_output_adapter@_W@__crt_stdio_output@@@2@@__crt_stdio_output@@AEAA_NXZ 0000000180036c94 f i libucrt:output.obj
 0001:00035cf4       ?state_case_normal@?$output_processor@_WV?$string_output_adapter@_W@__crt_stdio_output@@V?$format_validation_base@_WV?$string_output_adapter@_W@__crt_stdio_output@@@2@@__crt_stdio_output@@AEAA_NXZ 0000000180036cf4 f i libucrt:output.obj
 0001:00035d48       ?state_case_normal@?$output_processor@_WV?$string_output_adapter@_W@__crt_stdio_output@@V?$positional_parameter_base@_WV?$string_output_adapter@_W@__crt_stdio_output@@@2@@__crt_stdio_output@@AEAA_NXZ 0000000180036d48 f i libucrt:output.obj
 0001:00035dc0       ?state_case_normal@?$output_processor@_WV?$string_output_adapter@_W@__crt_stdio_output@@V?$standard_base@_WV?$string_output_adapter@_W@__crt_stdio_output@@@2@@__crt_stdio_output@@AEAA_NXZ 0000000180036dc0 f i libucrt:output.obj
 0001:00035e14       ?state_case_normal_common@?$output_processor@DV?$stream_output_adapter@D@__crt_stdio_output@@V?$format_validation_base@DV?$stream_output_adapter@D@__crt_stdio_output@@@2@@__crt_stdio_output@@AEAA_NXZ 0000000180036e14 f i libucrt:output.obj
 0001:00035f40       ?state_case_normal_common@?$output_processor@DV?$stream_output_adapter@D@__crt_stdio_output@@V?$positional_parameter_base@DV?$stream_output_adapter@D@__crt_stdio_output@@@2@@__crt_stdio_output@@AEAA_NXZ 0000000180036f40 f i libucrt:output.obj
 0001:0003606c       ?state_case_normal_common@?$output_processor@DV?$stream_output_adapter@D@__crt_stdio_output@@V?$standard_base@DV?$stream_output_adapter@D@__crt_stdio_output@@@2@@__crt_stdio_output@@AEAA_NXZ 000000018003706c f i libucrt:output.obj
 0001:00036198       ?state_case_normal_common@?$output_processor@DV?$string_output_adapter@D@__crt_stdio_output@@V?$format_validation_base@DV?$string_output_adapter@D@__crt_stdio_output@@@2@@__crt_stdio_output@@AEAA_NXZ 0000000180037198 f i libucrt:output.obj
 0001:000362bc       ?state_case_normal_common@?$output_processor@DV?$string_output_adapter@D@__crt_stdio_output@@V?$positional_parameter_base@DV?$string_output_adapter@D@__crt_stdio_output@@@2@@__crt_stdio_output@@AEAA_NXZ 00000001800372bc f i libucrt:output.obj
 0001:000363e0       ?state_case_normal_common@?$output_processor@DV?$string_output_adapter@D@__crt_stdio_output@@V?$standard_base@DV?$string_output_adapter@D@__crt_stdio_output@@@2@@__crt_stdio_output@@AEAA_NXZ 00000001800373e0 f i libucrt:output.obj
 0001:00036504       ?state_case_normal_common@?$output_processor@_WV?$stream_output_adapter@_W@__crt_stdio_output@@V?$format_validation_base@_WV?$stream_output_adapter@_W@__crt_stdio_output@@@2@@__crt_stdio_output@@AEAA_NXZ 0000000180037504 f i libucrt:output.obj
 0001:00036564       ?state_case_normal_common@?$output_processor@_WV?$stream_output_adapter@_W@__crt_stdio_output@@V?$positional_parameter_base@_WV?$stream_output_adapter@_W@__crt_stdio_output@@@2@@__crt_stdio_output@@AEAA_NXZ 0000000180037564 f i libucrt:output.obj
 0001:000365c4       ?state_case_normal_common@?$output_processor@_WV?$stream_output_adapter@_W@__crt_stdio_output@@V?$standard_base@_WV?$stream_output_adapter@_W@__crt_stdio_output@@@2@@__crt_stdio_output@@AEAA_NXZ 00000001800375c4 f i libucrt:output.obj
 0001:00036624       ?state_case_normal_common@?$output_processor@_WV?$string_output_adapter@_W@__crt_stdio_output@@V?$format_validation_base@_WV?$string_output_adapter@_W@__crt_stdio_output@@@2@@__crt_stdio_output@@AEAA_NXZ 0000000180037624 f i libucrt:output.obj
 0001:00036678       ?state_case_normal_common@?$output_processor@_WV?$string_output_adapter@_W@__crt_stdio_output@@V?$positional_parameter_base@_WV?$string_output_adapter@_W@__crt_stdio_output@@@2@@__crt_stdio_output@@AEAA_NXZ 0000000180037678 f i libucrt:output.obj
 0001:000366cc       ?state_case_normal_common@?$output_processor@_WV?$string_output_adapter@_W@__crt_stdio_output@@V?$standard_base@_WV?$string_output_adapter@_W@__crt_stdio_output@@@2@@__crt_stdio_output@@AEAA_NXZ 00000001800376cc f i libucrt:output.obj
 0001:00036720       ?state_case_normal_tchar@?$output_processor@DV?$stream_output_adapter@D@__crt_stdio_output@@V?$format_validation_base@DV?$stream_output_adapter@D@__crt_stdio_output@@@2@@__crt_stdio_output@@AEAA_ND@Z 0000000180037720 f i libucrt:output.obj
 0001:00036800       ?state_case_normal_tchar@?$output_processor@DV?$stream_output_adapter@D@__crt_stdio_output@@V?$positional_parameter_base@DV?$stream_output_adapter@D@__crt_stdio_output@@@2@@__crt_stdio_output@@AEAA_ND@Z 0000000180037800 f i libucrt:output.obj
 0001:000368e0       ?state_case_normal_tchar@?$output_processor@DV?$stream_output_adapter@D@__crt_stdio_output@@V?$standard_base@DV?$stream_output_adapter@D@__crt_stdio_output@@@2@@__crt_stdio_output@@AEAA_ND@Z 00000001800378e0 f i libucrt:output.obj
 0001:000369c0       ?state_case_normal_tchar@?$output_processor@DV?$string_output_adapter@D@__crt_stdio_output@@V?$format_validation_base@DV?$string_output_adapter@D@__crt_stdio_output@@@2@@__crt_stdio_output@@AEAA_ND@Z 00000001800379c0 f i libucrt:output.obj
 0001:00036a9c       ?state_case_normal_tchar@?$output_processor@DV?$string_output_adapter@D@__crt_stdio_output@@V?$positional_parameter_base@DV?$string_output_adapter@D@__crt_stdio_output@@@2@@__crt_stdio_output@@AEAA_ND@Z 0000000180037a9c f i libucrt:output.obj
 0001:00036b78       ?state_case_normal_tchar@?$output_processor@DV?$string_output_adapter@D@__crt_stdio_output@@V?$standard_base@DV?$string_output_adapter@D@__crt_stdio_output@@@2@@__crt_stdio_output@@AEAA_ND@Z 0000000180037b78 f i libucrt:output.obj
 0001:00036c54       ?state_case_normal_tchar@?$output_processor@_WV?$stream_output_adapter@_W@__crt_stdio_output@@V?$format_validation_base@_WV?$stream_output_adapter@_W@__crt_stdio_output@@@2@@__crt_stdio_output@@AEAA_N_W@Z 0000000180037c54 f i libucrt:output.obj
 0001:00036c5c       ?state_case_normal_tchar@?$output_processor@_WV?$stream_output_adapter@_W@__crt_stdio_output@@V?$positional_parameter_base@_WV?$stream_output_adapter@_W@__crt_stdio_output@@@2@@__crt_stdio_output@@AEAA_N_W@Z 0000000180037c5c f i libucrt:output.obj
 0001:00036c64       ?state_case_normal_tchar@?$output_processor@_WV?$stream_output_adapter@_W@__crt_stdio_output@@V?$standard_base@_WV?$stream_output_adapter@_W@__crt_stdio_output@@@2@@__crt_stdio_output@@AEAA_N_W@Z 0000000180037c64 f i libucrt:output.obj
 0001:00036c6c       ?state_case_normal_tchar@?$output_processor@_WV?$string_output_adapter@_W@__crt_stdio_output@@V?$format_validation_base@_WV?$string_output_adapter@_W@__crt_stdio_output@@@2@@__crt_stdio_output@@AEAA_N_W@Z 0000000180037c6c f i libucrt:output.obj
 0001:00036c74       ?state_case_normal_tchar@?$output_processor@_WV?$string_output_adapter@_W@__crt_stdio_output@@V?$positional_parameter_base@_WV?$string_output_adapter@_W@__crt_stdio_output@@@2@@__crt_stdio_output@@AEAA_N_W@Z 0000000180037c74 f i libucrt:output.obj
 0001:00036c7c       ?state_case_normal_tchar@?$output_processor@_WV?$string_output_adapter@_W@__crt_stdio_output@@V?$standard_base@_WV?$string_output_adapter@_W@__crt_stdio_output@@@2@@__crt_stdio_output@@AEAA_N_W@Z 0000000180037c7c f i libucrt:output.obj
 0001:00036c84       ?state_case_percent@?$output_processor@DV?$stream_output_adapter@D@__crt_stdio_output@@V?$format_validation_base@DV?$stream_output_adapter@D@__crt_stdio_output@@@2@@__crt_stdio_output@@AEAA_NXZ 0000000180037c84 f i libucrt:output.obj
 0001:00036c9c       ?state_case_percent@?$output_processor@DV?$stream_output_adapter@D@__crt_stdio_output@@V?$positional_parameter_base@DV?$stream_output_adapter@D@__crt_stdio_output@@@2@@__crt_stdio_output@@AEAA_NXZ 0000000180037c9c f i libucrt:output.obj
 0001:00036cb4       ?state_case_percent@?$output_processor@DV?$stream_output_adapter@D@__crt_stdio_output@@V?$standard_base@DV?$stream_output_adapter@D@__crt_stdio_output@@@2@@__crt_stdio_output@@AEAA_NXZ 0000000180037cb4 f i libucrt:output.obj
 0001:00036ccc       ?state_case_percent@?$output_processor@DV?$string_output_adapter@D@__crt_stdio_output@@V?$format_validation_base@DV?$string_output_adapter@D@__crt_stdio_output@@@2@@__crt_stdio_output@@AEAA_NXZ 0000000180037ccc f i libucrt:output.obj
 0001:00036ce4       ?state_case_percent@?$output_processor@DV?$string_output_adapter@D@__crt_stdio_output@@V?$positional_parameter_base@DV?$string_output_adapter@D@__crt_stdio_output@@@2@@__crt_stdio_output@@AEAA_NXZ 0000000180037ce4 f i libucrt:output.obj
 0001:00036cfc       ?state_case_percent@?$output_processor@DV?$string_output_adapter@D@__crt_stdio_output@@V?$standard_base@DV?$string_output_adapter@D@__crt_stdio_output@@@2@@__crt_stdio_output@@AEAA_NXZ 0000000180037cfc f i libucrt:output.obj
 0001:00036d14       ?state_case_percent@?$output_processor@_WV?$stream_output_adapter@_W@__crt_stdio_output@@V?$format_validation_base@_WV?$stream_output_adapter@_W@__crt_stdio_output@@@2@@__crt_stdio_output@@AEAA_NXZ 0000000180037d14 f i libucrt:output.obj
 0001:00036d2c       ?state_case_percent@?$output_processor@_WV?$stream_output_adapter@_W@__crt_stdio_output@@V?$positional_parameter_base@_WV?$stream_output_adapter@_W@__crt_stdio_output@@@2@@__crt_stdio_output@@AEAA_NXZ 0000000180037d2c f i libucrt:output.obj
 0001:00036d44       ?state_case_percent@?$output_processor@_WV?$stream_output_adapter@_W@__crt_stdio_output@@V?$standard_base@_WV?$stream_output_adapter@_W@__crt_stdio_output@@@2@@__crt_stdio_output@@AEAA_NXZ 0000000180037d44 f i libucrt:output.obj
 0001:00036d5c       ?state_case_percent@?$output_processor@_WV?$string_output_adapter@_W@__crt_stdio_output@@V?$format_validation_base@_WV?$string_output_adapter@_W@__crt_stdio_output@@@2@@__crt_stdio_output@@AEAA_NXZ 0000000180037d5c f i libucrt:output.obj
 0001:00036d74       ?state_case_percent@?$output_processor@_WV?$string_output_adapter@_W@__crt_stdio_output@@V?$positional_parameter_base@_WV?$string_output_adapter@_W@__crt_stdio_output@@@2@@__crt_stdio_output@@AEAA_NXZ 0000000180037d74 f i libucrt:output.obj
 0001:00036d8c       ?state_case_percent@?$output_processor@_WV?$string_output_adapter@_W@__crt_stdio_output@@V?$standard_base@_WV?$string_output_adapter@_W@__crt_stdio_output@@@2@@__crt_stdio_output@@AEAA_NXZ 0000000180037d8c f i libucrt:output.obj
 0001:00036da4       ?state_case_precision@?$output_processor@DV?$stream_output_adapter@D@__crt_stdio_output@@V?$format_validation_base@DV?$stream_output_adapter@D@__crt_stdio_output@@@2@@__crt_stdio_output@@AEAA_NXZ 0000000180037da4 f i libucrt:output.obj
 0001:00036dd4       ?state_case_precision@?$output_processor@DV?$stream_output_adapter@D@__crt_stdio_output@@V?$positional_parameter_base@DV?$stream_output_adapter@D@__crt_stdio_output@@@2@@__crt_stdio_output@@AEAA_NXZ 0000000180037dd4 f i libucrt:output.obj
 0001:00036e20       ?state_case_precision@?$output_processor@DV?$stream_output_adapter@D@__crt_stdio_output@@V?$standard_base@DV?$stream_output_adapter@D@__crt_stdio_output@@@2@@__crt_stdio_output@@AEAA_NXZ 0000000180037e20 f i libucrt:output.obj
 0001:00036e50       ?state_case_precision@?$output_processor@DV?$string_output_adapter@D@__crt_stdio_output@@V?$format_validation_base@DV?$string_output_adapter@D@__crt_stdio_output@@@2@@__crt_stdio_output@@AEAA_NXZ 0000000180037e50 f i libucrt:output.obj
 0001:00036e80       ?state_case_precision@?$output_processor@DV?$string_output_adapter@D@__crt_stdio_output@@V?$positional_parameter_base@DV?$string_output_adapter@D@__crt_stdio_output@@@2@@__crt_stdio_output@@AEAA_NXZ 0000000180037e80 f i libucrt:output.obj
 0001:00036ecc       ?state_case_precision@?$output_processor@DV?$string_output_adapter@D@__crt_stdio_output@@V?$standard_base@DV?$string_output_adapter@D@__crt_stdio_output@@@2@@__crt_stdio_output@@AEAA_NXZ 0000000180037ecc f i libucrt:output.obj
 0001:00036efc       ?state_case_precision@?$output_processor@_WV?$stream_output_adapter@_W@__crt_stdio_output@@V?$format_validation_base@_WV?$stream_output_adapter@_W@__crt_stdio_output@@@2@@__crt_stdio_output@@AEAA_NXZ 0000000180037efc f i libucrt:output.obj
 0001:00036f30       ?state_case_precision@?$output_processor@_WV?$stream_output_adapter@_W@__crt_stdio_output@@V?$positional_parameter_base@_WV?$stream_output_adapter@_W@__crt_stdio_output@@@2@@__crt_stdio_output@@AEAA_NXZ 0000000180037f30 f i libucrt:output.obj
 0001:00036f7c       ?state_case_precision@?$output_processor@_WV?$stream_output_adapter@_W@__crt_stdio_output@@V?$standard_base@_WV?$stream_output_adapter@_W@__crt_stdio_output@@@2@@__crt_stdio_output@@AEAA_NXZ 0000000180037f7c f i libucrt:output.obj
 0001:00036fb0       ?state_case_precision@?$output_processor@_WV?$string_output_adapter@_W@__crt_stdio_output@@V?$format_validation_base@_WV?$string_output_adapter@_W@__crt_stdio_output@@@2@@__crt_stdio_output@@AEAA_NXZ 0000000180037fb0 f i libucrt:output.obj
 0001:00036fe4       ?state_case_precision@?$output_processor@_WV?$string_output_adapter@_W@__crt_stdio_output@@V?$positional_parameter_base@_WV?$string_output_adapter@_W@__crt_stdio_output@@@2@@__crt_stdio_output@@AEAA_NXZ 0000000180037fe4 f i libucrt:output.obj
 0001:00037030       ?state_case_precision@?$output_processor@_WV?$string_output_adapter@_W@__crt_stdio_output@@V?$standard_base@_WV?$string_output_adapter@_W@__crt_stdio_output@@@2@@__crt_stdio_output@@AEAA_NXZ 0000000180038030 f i libucrt:output.obj
 0001:00037064       ?state_case_size@?$output_processor@DV?$stream_output_adapter@D@__crt_stdio_output@@V?$format_validation_base@DV?$stream_output_adapter@D@__crt_stdio_output@@@2@@__crt_stdio_output@@AEAA_NXZ 0000000180038064 f i libucrt:output.obj
 0001:000371ec       ?state_case_size@?$output_processor@DV?$stream_output_adapter@D@__crt_stdio_output@@V?$positional_parameter_base@DV?$stream_output_adapter@D@__crt_stdio_output@@@2@@__crt_stdio_output@@AEAA_NXZ 00000001800381ec f i libucrt:output.obj
 0001:00037374       ?state_case_size@?$output_processor@DV?$stream_output_adapter@D@__crt_stdio_output@@V?$standard_base@DV?$stream_output_adapter@D@__crt_stdio_output@@@2@@__crt_stdio_output@@AEAA_NXZ 0000000180038374 f i libucrt:output.obj
 0001:000374fc       ?state_case_size@?$output_processor@DV?$string_output_adapter@D@__crt_stdio_output@@V?$format_validation_base@DV?$string_output_adapter@D@__crt_stdio_output@@@2@@__crt_stdio_output@@AEAA_NXZ 00000001800384fc f i libucrt:output.obj
 0001:00037684       ?state_case_size@?$output_processor@DV?$string_output_adapter@D@__crt_stdio_output@@V?$positional_parameter_base@DV?$string_output_adapter@D@__crt_stdio_output@@@2@@__crt_stdio_output@@AEAA_NXZ 0000000180038684 f i libucrt:output.obj
 0001:0003780c       ?state_case_size@?$output_processor@DV?$string_output_adapter@D@__crt_stdio_output@@V?$standard_base@DV?$string_output_adapter@D@__crt_stdio_output@@@2@@__crt_stdio_output@@AEAA_NXZ 000000018003880c f i libucrt:output.obj
 0001:00037994       ?state_case_size@?$output_processor@_WV?$stream_output_adapter@_W@__crt_stdio_output@@V?$format_validation_base@_WV?$stream_output_adapter@_W@__crt_stdio_output@@@2@@__crt_stdio_output@@AEAA_NXZ 0000000180038994 f i libucrt:output.obj
 0001:00037b44       ?state_case_size@?$output_processor@_WV?$stream_output_adapter@_W@__crt_stdio_output@@V?$positional_parameter_base@_WV?$stream_output_adapter@_W@__crt_stdio_output@@@2@@__crt_stdio_output@@AEAA_NXZ 0000000180038b44 f i libucrt:output.obj
 0001:00037cf4       ?state_case_size@?$output_processor@_WV?$stream_output_adapter@_W@__crt_stdio_output@@V?$standard_base@_WV?$stream_output_adapter@_W@__crt_stdio_output@@@2@@__crt_stdio_output@@AEAA_NXZ 0000000180038cf4 f i libucrt:output.obj
 0001:00037ea4       ?state_case_size@?$output_processor@_WV?$string_output_adapter@_W@__crt_stdio_output@@V?$format_validation_base@_WV?$string_output_adapter@_W@__crt_stdio_output@@@2@@__crt_stdio_output@@AEAA_NXZ 0000000180038ea4 f i libucrt:output.obj
 0001:00038054       ?state_case_size@?$output_processor@_WV?$string_output_adapter@_W@__crt_stdio_output@@V?$positional_parameter_base@_WV?$string_output_adapter@_W@__crt_stdio_output@@@2@@__crt_stdio_output@@AEAA_NXZ 0000000180039054 f i libucrt:output.obj
 0001:00038204       ?state_case_size@?$output_processor@_WV?$string_output_adapter@_W@__crt_stdio_output@@V?$standard_base@_WV?$string_output_adapter@_W@__crt_stdio_output@@@2@@__crt_stdio_output@@AEAA_NXZ 0000000180039204 f i libucrt:output.obj
 0001:000383b4       ?state_case_type@?$output_processor@DV?$stream_output_adapter@D@__crt_stdio_output@@V?$format_validation_base@DV?$stream_output_adapter@D@__crt_stdio_output@@@2@@__crt_stdio_output@@AEAA_NXZ 00000001800393b4 f i libucrt:output.obj
 0001:000387ec       ?state_case_type@?$output_processor@DV?$stream_output_adapter@D@__crt_stdio_output@@V?$positional_parameter_base@DV?$stream_output_adapter@D@__crt_stdio_output@@@2@@__crt_stdio_output@@AEAA_NXZ 00000001800397ec f i libucrt:output.obj
 0001:00038c54       ?state_case_type@?$output_processor@DV?$stream_output_adapter@D@__crt_stdio_output@@V?$standard_base@DV?$stream_output_adapter@D@__crt_stdio_output@@@2@@__crt_stdio_output@@AEAA_NXZ 0000000180039c54 f i libucrt:output.obj
 0001:0003908c       ?state_case_type@?$output_processor@DV?$string_output_adapter@D@__crt_stdio_output@@V?$format_validation_base@DV?$string_output_adapter@D@__crt_stdio_output@@@2@@__crt_stdio_output@@AEAA_NXZ 000000018003a08c f i libucrt:output.obj
 0001:00039490       ?state_case_type@?$output_processor@DV?$string_output_adapter@D@__crt_stdio_output@@V?$positional_parameter_base@DV?$string_output_adapter@D@__crt_stdio_output@@@2@@__crt_stdio_output@@AEAA_NXZ 000000018003a490 f i libucrt:output.obj
 0001:000398a8       ?state_case_type@?$output_processor@DV?$string_output_adapter@D@__crt_stdio_output@@V?$standard_base@DV?$string_output_adapter@D@__crt_stdio_output@@@2@@__crt_stdio_output@@AEAA_NXZ 000000018003a8a8 f i libucrt:output.obj
 0001:00039cac       ?state_case_type@?$output_processor@_WV?$stream_output_adapter@_W@__crt_stdio_output@@V?$format_validation_base@_WV?$stream_output_adapter@_W@__crt_stdio_output@@@2@@__crt_stdio_output@@AEAA_NXZ 000000018003acac f i libucrt:output.obj
 0001:0003a170       ?state_case_type@?$output_processor@_WV?$stream_output_adapter@_W@__crt_stdio_output@@V?$positional_parameter_base@_WV?$stream_output_adapter@_W@__crt_stdio_output@@@2@@__crt_stdio_output@@AEAA_NXZ 000000018003b170 f i libucrt:output.obj
 0001:0003a64c       ?state_case_type@?$output_processor@_WV?$stream_output_adapter@_W@__crt_stdio_output@@V?$standard_base@_WV?$stream_output_adapter@_W@__crt_stdio_output@@@2@@__crt_stdio_output@@AEAA_NXZ 000000018003b64c f i libucrt:output.obj
 0001:0003ab10       ?state_case_type@?$output_processor@_WV?$string_output_adapter@_W@__crt_stdio_output@@V?$format_validation_base@_WV?$string_output_adapter@_W@__crt_stdio_output@@@2@@__crt_stdio_output@@AEAA_NXZ 000000018003bb10 f i libucrt:output.obj
 0001:0003af74       ?state_case_type@?$output_processor@_WV?$string_output_adapter@_W@__crt_stdio_output@@V?$positional_parameter_base@_WV?$string_output_adapter@_W@__crt_stdio_output@@@2@@__crt_stdio_output@@AEAA_NXZ 000000018003bf74 f i libucrt:output.obj
 0001:0003b404       ?state_case_type@?$output_processor@_WV?$string_output_adapter@_W@__crt_stdio_output@@V?$standard_base@_WV?$string_output_adapter@_W@__crt_stdio_output@@@2@@__crt_stdio_output@@AEAA_NXZ 000000018003c404 f i libucrt:output.obj
 0001:0003b868       ?state_case_width@?$output_processor@DV?$stream_output_adapter@D@__crt_stdio_output@@V?$format_validation_base@DV?$stream_output_adapter@D@__crt_stdio_output@@@2@@__crt_stdio_output@@AEAA_NXZ 000000018003c868 f i libucrt:output.obj
 0001:0003b89c       ?state_case_width@?$output_processor@DV?$stream_output_adapter@D@__crt_stdio_output@@V?$positional_parameter_base@DV?$stream_output_adapter@D@__crt_stdio_output@@@2@@__crt_stdio_output@@AEAA_NXZ 000000018003c89c f i libucrt:output.obj
 0001:0003b8ec       ?state_case_width@?$output_processor@DV?$stream_output_adapter@D@__crt_stdio_output@@V?$standard_base@DV?$stream_output_adapter@D@__crt_stdio_output@@@2@@__crt_stdio_output@@AEAA_NXZ 000000018003c8ec f i libucrt:output.obj
 0001:0003b920       ?state_case_width@?$output_processor@DV?$string_output_adapter@D@__crt_stdio_output@@V?$format_validation_base@DV?$string_output_adapter@D@__crt_stdio_output@@@2@@__crt_stdio_output@@AEAA_NXZ 000000018003c920 f i libucrt:output.obj
 0001:0003b954       ?state_case_width@?$output_processor@DV?$string_output_adapter@D@__crt_stdio_output@@V?$positional_parameter_base@DV?$string_output_adapter@D@__crt_stdio_output@@@2@@__crt_stdio_output@@AEAA_NXZ 000000018003c954 f i libucrt:output.obj
 0001:0003b9a4       ?state_case_width@?$output_processor@DV?$string_output_adapter@D@__crt_stdio_output@@V?$standard_base@DV?$string_output_adapter@D@__crt_stdio_output@@@2@@__crt_stdio_output@@AEAA_NXZ 000000018003c9a4 f i libucrt:output.obj
 0001:0003b9d8       ?state_case_width@?$output_processor@_WV?$stream_output_adapter@_W@__crt_stdio_output@@V?$format_validation_base@_WV?$stream_output_adapter@_W@__crt_stdio_output@@@2@@__crt_stdio_output@@AEAA_NXZ 000000018003c9d8 f i libucrt:output.obj
 0001:0003ba0c       ?state_case_width@?$output_processor@_WV?$stream_output_adapter@_W@__crt_stdio_output@@V?$positional_parameter_base@_WV?$stream_output_adapter@_W@__crt_stdio_output@@@2@@__crt_stdio_output@@AEAA_NXZ 000000018003ca0c f i libucrt:output.obj
 0001:0003ba60       ?state_case_width@?$output_processor@_WV?$stream_output_adapter@_W@__crt_stdio_output@@V?$standard_base@_WV?$stream_output_adapter@_W@__crt_stdio_output@@@2@@__crt_stdio_output@@AEAA_NXZ 000000018003ca60 f i libucrt:output.obj
 0001:0003ba94       ?state_case_width@?$output_processor@_WV?$string_output_adapter@_W@__crt_stdio_output@@V?$format_validation_base@_WV?$string_output_adapter@_W@__crt_stdio_output@@@2@@__crt_stdio_output@@AEAA_NXZ 000000018003ca94 f i libucrt:output.obj
 0001:0003bac8       ?state_case_width@?$output_processor@_WV?$string_output_adapter@_W@__crt_stdio_output@@V?$positional_parameter_base@_WV?$string_output_adapter@_W@__crt_stdio_output@@@2@@__crt_stdio_output@@AEAA_NXZ 000000018003cac8 f i libucrt:output.obj
 0001:0003bb1c       ?state_case_width@?$output_processor@_WV?$string_output_adapter@_W@__crt_stdio_output@@V?$standard_base@_WV?$string_output_adapter@_W@__crt_stdio_output@@@2@@__crt_stdio_output@@AEAA_NXZ 000000018003cb1c f i libucrt:output.obj
 0001:0003bb50       ?state_count@?$format_validation_base@DV?$stream_output_adapter@D@__crt_stdio_output@@@__crt_stdio_output@@KAIXZ 000000018003cb50 f i libucrt:output.obj
 0001:0003bb58       ?state_count@?$format_validation_base@DV?$string_output_adapter@D@__crt_stdio_output@@@__crt_stdio_output@@KAIXZ 000000018003cb58 f i libucrt:output.obj
 0001:0003bb60       ?state_count@?$format_validation_base@_WV?$stream_output_adapter@_W@__crt_stdio_output@@@__crt_stdio_output@@KAIXZ 000000018003cb60 f i libucrt:output.obj
 0001:0003bb68       ?state_count@?$format_validation_base@_WV?$string_output_adapter@_W@__crt_stdio_output@@@__crt_stdio_output@@KAIXZ 000000018003cb68 f i libucrt:output.obj
 0001:0003bb70       ?state_count@?$standard_base@DV?$stream_output_adapter@D@__crt_stdio_output@@@__crt_stdio_output@@KAIXZ 000000018003cb70 f i libucrt:output.obj
 0001:0003bb78       ?state_count@?$standard_base@DV?$string_output_adapter@D@__crt_stdio_output@@@__crt_stdio_output@@KAIXZ 000000018003cb78 f i libucrt:output.obj
 0001:0003bb80       ?state_count@?$standard_base@_WV?$stream_output_adapter@_W@__crt_stdio_output@@@__crt_stdio_output@@KAIXZ 000000018003cb80 f i libucrt:output.obj
 0001:0003bb88       ?state_count@?$standard_base@_WV?$string_output_adapter@_W@__crt_stdio_output@@@__crt_stdio_output@@KAIXZ 000000018003cb88 f i libucrt:output.obj
 0001:0003bb90       ?state_transition_table@?$format_validation_base@DV?$stream_output_adapter@D@__crt_stdio_output@@@__crt_stdio_output@@KAAEBV?$spectre_mitigated_lookup_table@Ustate_transition_pair@__crt_stdio_output@@$0IA@@2@XZ 000000018003cb90 f i libucrt:output.obj
 0001:0003bb98       ?state_transition_table@?$format_validation_base@DV?$string_output_adapter@D@__crt_stdio_output@@@__crt_stdio_output@@KAAEBV?$spectre_mitigated_lookup_table@Ustate_transition_pair@__crt_stdio_output@@$0IA@@2@XZ 000000018003cb98 f i libucrt:output.obj
 0001:0003bba0       ?state_transition_table@?$format_validation_base@_WV?$stream_output_adapter@_W@__crt_stdio_output@@@__crt_stdio_output@@KAAEBV?$spectre_mitigated_lookup_table@Ustate_transition_pair@__crt_stdio_output@@$0IA@@2@XZ 000000018003cba0 f i libucrt:output.obj
 0001:0003bba8       ?state_transition_table@?$format_validation_base@_WV?$string_output_adapter@_W@__crt_stdio_output@@@__crt_stdio_output@@KAAEBV?$spectre_mitigated_lookup_table@Ustate_transition_pair@__crt_stdio_output@@$0IA@@2@XZ 000000018003cba8 f i libucrt:output.obj
 0001:0003bbb0       ?state_transition_table@?$standard_base@DV?$stream_output_adapter@D@__crt_stdio_output@@@__crt_stdio_output@@KAAEBV?$spectre_mitigated_lookup_table@Ustate_transition_pair@__crt_stdio_output@@$0IA@@2@XZ 000000018003cbb0 f i libucrt:output.obj
 0001:0003bbb8       ?state_transition_table@?$standard_base@DV?$string_output_adapter@D@__crt_stdio_output@@@__crt_stdio_output@@KAAEBV?$spectre_mitigated_lookup_table@Ustate_transition_pair@__crt_stdio_output@@$0IA@@2@XZ 000000018003cbb8 f i libucrt:output.obj
 0001:0003bbc0       ?state_transition_table@?$standard_base@_WV?$stream_output_adapter@_W@__crt_stdio_output@@@__crt_stdio_output@@KAAEBV?$spectre_mitigated_lookup_table@Ustate_transition_pair@__crt_stdio_output@@$0IA@@2@XZ 000000018003cbc0 f i libucrt:output.obj
 0001:0003bbc8       ?state_transition_table@?$standard_base@_WV?$string_output_adapter@_W@__crt_stdio_output@@@__crt_stdio_output@@KAAEBV?$spectre_mitigated_lookup_table@Ustate_transition_pair@__crt_stdio_output@@$0IA@@2@XZ 000000018003cbc8 f i libucrt:output.obj
 0001:0003bbd0       ?tchar_string@?$common_data@D@__crt_stdio_output@@IEAAAEAPEADD@Z 000000018003cbd0 f i libucrt:output.obj
 0001:0003bbd8       ?tchar_string@?$common_data@D@__crt_stdio_output@@IEAAAEAPEADXZ 000000018003cbd8 f i libucrt:output.obj
 0001:0003bbe0       ?tchar_string@?$common_data@_W@__crt_stdio_output@@IEAAAEAPEA_WXZ 000000018003cbe0 f i libucrt:output.obj
 0001:0003bbe8       ?tchar_string@?$common_data@_W@__crt_stdio_output@@IEAAAEAPEA_W_W@Z 000000018003cbe8 f i libucrt:output.obj
 0001:0003bbf0       ?to_integer_size@__crt_stdio_output@@YA_KW4length_modifier@1@@Z 000000018003cbf0 f i libucrt:output.obj
 0001:0003bc38       ?type_case_X@?$output_processor@DV?$stream_output_adapter@D@__crt_stdio_output@@V?$format_validation_base@DV?$stream_output_adapter@D@__crt_stdio_output@@@2@@__crt_stdio_output@@AEAA_NXZ 000000018003cc38 f i libucrt:output.obj
 0001:0003bc40       ?type_case_X@?$output_processor@DV?$stream_output_adapter@D@__crt_stdio_output@@V?$positional_parameter_base@DV?$stream_output_adapter@D@__crt_stdio_output@@@2@@__crt_stdio_output@@AEAA_NXZ 000000018003cc40 f i libucrt:output.obj
 0001:0003bc48       ?type_case_X@?$output_processor@DV?$stream_output_adapter@D@__crt_stdio_output@@V?$standard_base@DV?$stream_output_adapter@D@__crt_stdio_output@@@2@@__crt_stdio_output@@AEAA_NXZ 000000018003cc48 f i libucrt:output.obj
 0001:0003bc50       ?type_case_X@?$output_processor@DV?$string_output_adapter@D@__crt_stdio_output@@V?$format_validation_base@DV?$string_output_adapter@D@__crt_stdio_output@@@2@@__crt_stdio_output@@AEAA_NXZ 000000018003cc50 f i libucrt:output.obj
 0001:0003bc58       ?type_case_X@?$output_processor@DV?$string_output_adapter@D@__crt_stdio_output@@V?$positional_parameter_base@DV?$string_output_adapter@D@__crt_stdio_output@@@2@@__crt_stdio_output@@AEAA_NXZ 000000018003cc58 f i libucrt:output.obj
 0001:0003bc60       ?type_case_X@?$output_processor@DV?$string_output_adapter@D@__crt_stdio_output@@V?$standard_base@DV?$string_output_adapter@D@__crt_stdio_output@@@2@@__crt_stdio_output@@AEAA_NXZ 000000018003cc60 f i libucrt:output.obj
 0001:0003bc68       ?type_case_X@?$output_processor@_WV?$stream_output_adapter@_W@__crt_stdio_output@@V?$format_validation_base@_WV?$stream_output_adapter@_W@__crt_stdio_output@@@2@@__crt_stdio_output@@AEAA_NXZ 000000018003cc68 f i libucrt:output.obj
 0001:0003bc70       ?type_case_X@?$output_processor@_WV?$stream_output_adapter@_W@__crt_stdio_output@@V?$positional_parameter_base@_WV?$stream_output_adapter@_W@__crt_stdio_output@@@2@@__crt_stdio_output@@AEAA_NXZ 000000018003cc70 f i libucrt:output.obj
 0001:0003bc78       ?type_case_X@?$output_processor@_WV?$stream_output_adapter@_W@__crt_stdio_output@@V?$standard_base@_WV?$stream_output_adapter@_W@__crt_stdio_output@@@2@@__crt_stdio_output@@AEAA_NXZ 000000018003cc78 f i libucrt:output.obj
 0001:0003bc80       ?type_case_X@?$output_processor@_WV?$string_output_adapter@_W@__crt_stdio_output@@V?$format_validation_base@_WV?$string_output_adapter@_W@__crt_stdio_output@@@2@@__crt_stdio_output@@AEAA_NXZ 000000018003cc80 f i libucrt:output.obj
 0001:0003bc88       ?type_case_X@?$output_processor@_WV?$string_output_adapter@_W@__crt_stdio_output@@V?$positional_parameter_base@_WV?$string_output_adapter@_W@__crt_stdio_output@@@2@@__crt_stdio_output@@AEAA_NXZ 000000018003cc88 f i libucrt:output.obj
 0001:0003bc90       ?type_case_X@?$output_processor@_WV?$string_output_adapter@_W@__crt_stdio_output@@V?$standard_base@_WV?$string_output_adapter@_W@__crt_stdio_output@@@2@@__crt_stdio_output@@AEAA_NXZ 000000018003cc90 f i libucrt:output.obj
 0001:0003bc98       ?type_case_Z@?$output_processor@DV?$stream_output_adapter@D@__crt_stdio_output@@V?$format_validation_base@DV?$stream_output_adapter@D@__crt_stdio_output@@@2@@__crt_stdio_output@@AEAA_NXZ 000000018003cc98 f i libucrt:output.obj
 0001:0003bd14       ?type_case_Z@?$output_processor@DV?$stream_output_adapter@D@__crt_stdio_output@@V?$positional_parameter_base@DV?$stream_output_adapter@D@__crt_stdio_output@@@2@@__crt_stdio_output@@AEAA_NXZ 000000018003cd14 f i libucrt:output.obj
 0001:0003bdbc       ?type_case_Z@?$output_processor@DV?$stream_output_adapter@D@__crt_stdio_output@@V?$standard_base@DV?$stream_output_adapter@D@__crt_stdio_output@@@2@@__crt_stdio_output@@AEAA_NXZ 000000018003cdbc f i libucrt:output.obj
 0001:0003be38       ?type_case_Z@?$output_processor@DV?$string_output_adapter@D@__crt_stdio_output@@V?$format_validation_base@DV?$string_output_adapter@D@__crt_stdio_output@@@2@@__crt_stdio_output@@AEAA_NXZ 000000018003ce38 f i libucrt:output.obj
 0001:0003beb4       ?type_case_Z@?$output_processor@DV?$string_output_adapter@D@__crt_stdio_output@@V?$positional_parameter_base@DV?$string_output_adapter@D@__crt_stdio_output@@@2@@__crt_stdio_output@@AEAA_NXZ 000000018003ceb4 f i libucrt:output.obj
 0001:0003bf5c       ?type_case_Z@?$output_processor@DV?$string_output_adapter@D@__crt_stdio_output@@V?$standard_base@DV?$string_output_adapter@D@__crt_stdio_output@@@2@@__crt_stdio_output@@AEAA_NXZ 000000018003cf5c f i libucrt:output.obj
 0001:0003bfd8       ?type_case_Z@?$output_processor@_WV?$stream_output_adapter@_W@__crt_stdio_output@@V?$format_validation_base@_WV?$stream_output_adapter@_W@__crt_stdio_output@@@2@@__crt_stdio_output@@AEAA_NXZ 000000018003cfd8 f i libucrt:output.obj
 0001:0003c058       ?type_case_Z@?$output_processor@_WV?$stream_output_adapter@_W@__crt_stdio_output@@V?$positional_parameter_base@_WV?$stream_output_adapter@_W@__crt_stdio_output@@@2@@__crt_stdio_output@@AEAA_NXZ 000000018003d058 f i libucrt:output.obj
 0001:0003c0f0       ?type_case_Z@?$output_processor@_WV?$stream_output_adapter@_W@__crt_stdio_output@@V?$standard_base@_WV?$stream_output_adapter@_W@__crt_stdio_output@@@2@@__crt_stdio_output@@AEAA_NXZ 000000018003d0f0 f i libucrt:output.obj
 0001:0003c170       ?type_case_Z@?$output_processor@_WV?$string_output_adapter@_W@__crt_stdio_output@@V?$format_validation_base@_WV?$string_output_adapter@_W@__crt_stdio_output@@@2@@__crt_stdio_output@@AEAA_NXZ 000000018003d170 f i libucrt:output.obj
 0001:0003c1f0       ?type_case_Z@?$output_processor@_WV?$string_output_adapter@_W@__crt_stdio_output@@V?$positional_parameter_base@_WV?$string_output_adapter@_W@__crt_stdio_output@@@2@@__crt_stdio_output@@AEAA_NXZ 000000018003d1f0 f i libucrt:output.obj
 0001:0003c288       ?type_case_Z@?$output_processor@_WV?$string_output_adapter@_W@__crt_stdio_output@@V?$standard_base@_WV?$string_output_adapter@_W@__crt_stdio_output@@@2@@__crt_stdio_output@@AEAA_NXZ 000000018003d288 f i libucrt:output.obj
 0001:0003c308       ?type_case_a@?$output_processor@DV?$stream_output_adapter@D@__crt_stdio_output@@V?$format_validation_base@DV?$stream_output_adapter@D@__crt_stdio_output@@@2@@__crt_stdio_output@@AEAA_NXZ 000000018003d308 f i libucrt:output.obj
 0001:0003c55c       ?type_case_a@?$output_processor@DV?$stream_output_adapter@D@__crt_stdio_output@@V?$positional_parameter_base@DV?$stream_output_adapter@D@__crt_stdio_output@@@2@@__crt_stdio_output@@AEAA_NXZ 000000018003d55c f i libucrt:output.obj
 0001:0003c7d8       ?type_case_a@?$output_processor@DV?$stream_output_adapter@D@__crt_stdio_output@@V?$standard_base@DV?$stream_output_adapter@D@__crt_stdio_output@@@2@@__crt_stdio_output@@AEAA_NXZ 000000018003d7d8 f i libucrt:output.obj
 0001:0003ca2c       ?type_case_a@?$output_processor@DV?$string_output_adapter@D@__crt_stdio_output@@V?$format_validation_base@DV?$string_output_adapter@D@__crt_stdio_output@@@2@@__crt_stdio_output@@AEAA_NXZ 000000018003da2c f i libucrt:output.obj
 0001:0003cc80       ?type_case_a@?$output_processor@DV?$string_output_adapter@D@__crt_stdio_output@@V?$positional_parameter_base@DV?$string_output_adapter@D@__crt_stdio_output@@@2@@__crt_stdio_output@@AEAA_NXZ 000000018003dc80 f i libucrt:output.obj
 0001:0003cefc       ?type_case_a@?$output_processor@DV?$string_output_adapter@D@__crt_stdio_output@@V?$standard_base@DV?$string_output_adapter@D@__crt_stdio_output@@@2@@__crt_stdio_output@@AEAA_NXZ 000000018003defc f i libucrt:output.obj
 0001:0003d150       ?type_case_a@?$output_processor@_WV?$stream_output_adapter@_W@__crt_stdio_output@@V?$format_validation_base@_WV?$stream_output_adapter@_W@__crt_stdio_output@@@2@@__crt_stdio_output@@AEAA_NXZ 000000018003e150 f i libucrt:output.obj
 0001:0003d3b8       ?type_case_a@?$output_processor@_WV?$stream_output_adapter@_W@__crt_stdio_output@@V?$positional_parameter_base@_WV?$stream_output_adapter@_W@__crt_stdio_output@@@2@@__crt_stdio_output@@AEAA_NXZ 000000018003e3b8 f i libucrt:output.obj
 0001:0003d64c       ?type_case_a@?$output_processor@_WV?$stream_output_adapter@_W@__crt_stdio_output@@V?$standard_base@_WV?$stream_output_adapter@_W@__crt_stdio_output@@@2@@__crt_stdio_output@@AEAA_NXZ 000000018003e64c f i libucrt:output.obj
 0001:0003d8b4       ?type_case_a@?$output_processor@_WV?$string_output_adapter@_W@__crt_stdio_output@@V?$format_validation_base@_WV?$string_output_adapter@_W@__crt_stdio_output@@@2@@__crt_stdio_output@@AEAA_NXZ 000000018003e8b4 f i libucrt:output.obj
 0001:0003db1c       ?type_case_a@?$output_processor@_WV?$string_output_adapter@_W@__crt_stdio_output@@V?$positional_parameter_base@_WV?$string_output_adapter@_W@__crt_stdio_output@@@2@@__crt_stdio_output@@AEAA_NXZ 000000018003eb1c f i libucrt:output.obj
 0001:0003ddb0       ?type_case_a@?$output_processor@_WV?$string_output_adapter@_W@__crt_stdio_output@@V?$standard_base@_WV?$string_output_adapter@_W@__crt_stdio_output@@@2@@__crt_stdio_output@@AEAA_NXZ 000000018003edb0 f i libucrt:output.obj
 0001:0003e018       ?type_case_c@?$output_processor@DV?$stream_output_adapter@D@__crt_stdio_output@@V?$format_validation_base@DV?$stream_output_adapter@D@__crt_stdio_output@@@2@@__crt_stdio_output@@AEAA_NXZ 000000018003f018 f i libucrt:output.obj
 0001:0003e020       ?type_case_c@?$output_processor@DV?$stream_output_adapter@D@__crt_stdio_output@@V?$positional_parameter_base@DV?$stream_output_adapter@D@__crt_stdio_output@@@2@@__crt_stdio_output@@AEAA_NXZ 000000018003f020 f i libucrt:output.obj
 0001:0003e028       ?type_case_c@?$output_processor@DV?$stream_output_adapter@D@__crt_stdio_output@@V?$standard_base@DV?$stream_output_adapter@D@__crt_stdio_output@@@2@@__crt_stdio_output@@AEAA_NXZ 000000018003f028 f i libucrt:output.obj
 0001:0003e030       ?type_case_c@?$output_processor@DV?$string_output_adapter@D@__crt_stdio_output@@V?$format_validation_base@DV?$string_output_adapter@D@__crt_stdio_output@@@2@@__crt_stdio_output@@AEAA_NXZ 000000018003f030 f i libucrt:output.obj
 0001:0003e038       ?type_case_c@?$output_processor@DV?$string_output_adapter@D@__crt_stdio_output@@V?$positional_parameter_base@DV?$string_output_adapter@D@__crt_stdio_output@@@2@@__crt_stdio_output@@AEAA_NXZ 000000018003f038 f i libucrt:output.obj
 0001:0003e040       ?type_case_c@?$output_processor@DV?$string_output_adapter@D@__crt_stdio_output@@V?$standard_base@DV?$string_output_adapter@D@__crt_stdio_output@@@2@@__crt_stdio_output@@AEAA_NXZ 000000018003f040 f i libucrt:output.obj
 0001:0003e048       ?type_case_c@?$output_processor@_WV?$stream_output_adapter@_W@__crt_stdio_output@@V?$format_validation_base@_WV?$stream_output_adapter@_W@__crt_stdio_output@@@2@@__crt_stdio_output@@AEAA_NXZ 000000018003f048 f i libucrt:output.obj
 0001:0003e050       ?type_case_c@?$output_processor@_WV?$stream_output_adapter@_W@__crt_stdio_output@@V?$positional_parameter_base@_WV?$stream_output_adapter@_W@__crt_stdio_output@@@2@@__crt_stdio_output@@AEAA_NXZ 000000018003f050 f i libucrt:output.obj
 0001:0003e058       ?type_case_c@?$output_processor@_WV?$stream_output_adapter@_W@__crt_stdio_output@@V?$standard_base@_WV?$stream_output_adapter@_W@__crt_stdio_output@@@2@@__crt_stdio_output@@AEAA_NXZ 000000018003f058 f i libucrt:output.obj
 0001:0003e060       ?type_case_c@?$output_processor@_WV?$string_output_adapter@_W@__crt_stdio_output@@V?$format_validation_base@_WV?$string_output_adapter@_W@__crt_stdio_output@@@2@@__crt_stdio_output@@AEAA_NXZ 000000018003f060 f i libucrt:output.obj
 0001:0003e068       ?type_case_c@?$output_processor@_WV?$string_output_adapter@_W@__crt_stdio_output@@V?$positional_parameter_base@_WV?$string_output_adapter@_W@__crt_stdio_output@@@2@@__crt_stdio_output@@AEAA_NXZ 000000018003f068 f i libucrt:output.obj
 0001:0003e070       ?type_case_c@?$output_processor@_WV?$string_output_adapter@_W@__crt_stdio_output@@V?$standard_base@_WV?$string_output_adapter@_W@__crt_stdio_output@@@2@@__crt_stdio_output@@AEAA_NXZ 000000018003f070 f i libucrt:output.obj
 0001:0003e078       ?type_case_c_tchar@?$output_processor@DV?$stream_output_adapter@D@__crt_stdio_output@@V?$format_validation_base@DV?$stream_output_adapter@D@__crt_stdio_output@@@2@@__crt_stdio_output@@AEAA_ND@Z 000000018003f078 f i libucrt:output.obj
 0001:0003e14c       ?type_case_c_tchar@?$output_processor@DV?$stream_output_adapter@D@__crt_stdio_output@@V?$positional_parameter_base@DV?$stream_output_adapter@D@__crt_stdio_output@@@2@@__crt_stdio_output@@AEAA_ND@Z 000000018003f14c f i libucrt:output.obj
 0001:0003e268       ?type_case_c_tchar@?$output_processor@DV?$stream_output_adapter@D@__crt_stdio_output@@V?$standard_base@DV?$stream_output_adapter@D@__crt_stdio_output@@@2@@__crt_stdio_output@@AEAA_ND@Z 000000018003f268 f i libucrt:output.obj
 0001:0003e33c       ?type_case_c_tchar@?$output_processor@DV?$string_output_adapter@D@__crt_stdio_output@@V?$format_validation_base@DV?$string_output_adapter@D@__crt_stdio_output@@@2@@__crt_stdio_output@@AEAA_ND@Z 000000018003f33c f i libucrt:output.obj
 0001:0003e410       ?type_case_c_tchar@?$output_processor@DV?$string_output_adapter@D@__crt_stdio_output@@V?$positional_parameter_base@DV?$string_output_adapter@D@__crt_stdio_output@@@2@@__crt_stdio_output@@AEAA_ND@Z 000000018003f410 f i libucrt:output.obj
 0001:0003e52c       ?type_case_c_tchar@?$output_processor@DV?$string_output_adapter@D@__crt_stdio_output@@V?$standard_base@DV?$string_output_adapter@D@__crt_stdio_output@@@2@@__crt_stdio_output@@AEAA_ND@Z 000000018003f52c f i libucrt:output.obj
 0001:0003e600       ?type_case_c_tchar@?$output_processor@_WV?$stream_output_adapter@_W@__crt_stdio_output@@V?$format_validation_base@_WV?$stream_output_adapter@_W@__crt_stdio_output@@@2@@__crt_stdio_output@@AEAA_N_W@Z 000000018003f600 f i libucrt:output.obj
 0001:0003e6c4       ?type_case_c_tchar@?$output_processor@_WV?$stream_output_adapter@_W@__crt_stdio_output@@V?$positional_parameter_base@_WV?$stream_output_adapter@_W@__crt_stdio_output@@@2@@__crt_stdio_output@@AEAA_N_W@Z 000000018003f6c4 f i libucrt:output.obj
 0001:0003e7bc       ?type_case_c_tchar@?$output_processor@_WV?$stream_output_adapter@_W@__crt_stdio_output@@V?$standard_base@_WV?$stream_output_adapter@_W@__crt_stdio_output@@@2@@__crt_stdio_output@@AEAA_N_W@Z 000000018003f7bc f i libucrt:output.obj
 0001:0003e880       ?type_case_c_tchar@?$output_processor@_WV?$string_output_adapter@_W@__crt_stdio_output@@V?$format_validation_base@_WV?$string_output_adapter@_W@__crt_stdio_output@@@2@@__crt_stdio_output@@AEAA_N_W@Z 000000018003f880 f i libucrt:output.obj
 0001:0003e944       ?type_case_c_tchar@?$output_processor@_WV?$string_output_adapter@_W@__crt_stdio_output@@V?$positional_parameter_base@_WV?$string_output_adapter@_W@__crt_stdio_output@@@2@@__crt_stdio_output@@AEAA_N_W@Z 000000018003f944 f i libucrt:output.obj
 0001:0003ea3c       ?type_case_c_tchar@?$output_processor@_WV?$string_output_adapter@_W@__crt_stdio_output@@V?$standard_base@_WV?$string_output_adapter@_W@__crt_stdio_output@@@2@@__crt_stdio_output@@AEAA_N_W@Z 000000018003fa3c f i libucrt:output.obj
 0001:0003eb00       ?type_case_d@?$output_processor@DV?$stream_output_adapter@D@__crt_stdio_output@@V?$format_validation_base@DV?$stream_output_adapter@D@__crt_stdio_output@@@2@@__crt_stdio_output@@AEAA_NXZ 000000018003fb00 f i libucrt:output.obj
 0001:0003eb0c       ?type_case_d@?$output_processor@DV?$stream_output_adapter@D@__crt_stdio_output@@V?$positional_parameter_base@DV?$stream_output_adapter@D@__crt_stdio_output@@@2@@__crt_stdio_output@@AEAA_NXZ 000000018003fb0c f i libucrt:output.obj
 0001:0003eb18       ?type_case_d@?$output_processor@DV?$stream_output_adapter@D@__crt_stdio_output@@V?$standard_base@DV?$stream_output_adapter@D@__crt_stdio_output@@@2@@__crt_stdio_output@@AEAA_NXZ 000000018003fb18 f i libucrt:output.obj
 0001:0003eb24       ?type_case_d@?$output_processor@DV?$string_output_adapter@D@__crt_stdio_output@@V?$format_validation_base@DV?$string_output_adapter@D@__crt_stdio_output@@@2@@__crt_stdio_output@@AEAA_NXZ 000000018003fb24 f i libucrt:output.obj
 0001:0003eb30       ?type_case_d@?$output_processor@DV?$string_output_adapter@D@__crt_stdio_output@@V?$positional_parameter_base@DV?$string_output_adapter@D@__crt_stdio_output@@@2@@__crt_stdio_output@@AEAA_NXZ 000000018003fb30 f i libucrt:output.obj
 0001:0003eb3c       ?type_case_d@?$output_processor@DV?$string_output_adapter@D@__crt_stdio_output@@V?$standard_base@DV?$string_output_adapter@D@__crt_stdio_output@@@2@@__crt_stdio_output@@AEAA_NXZ 000000018003fb3c f i libucrt:output.obj
 0001:0003eb48       ?type_case_d@?$output_processor@_WV?$stream_output_adapter@_W@__crt_stdio_output@@V?$format_validation_base@_WV?$stream_output_adapter@_W@__crt_stdio_output@@@2@@__crt_stdio_output@@AEAA_NXZ 000000018003fb48 f i libucrt:output.obj
 0001:0003eb54       ?type_case_d@?$output_processor@_WV?$stream_output_adapter@_W@__crt_stdio_output@@V?$positional_parameter_base@_WV?$stream_output_adapter@_W@__crt_stdio_output@@@2@@__crt_stdio_output@@AEAA_NXZ 000000018003fb54 f i libucrt:output.obj
 0001:0003eb60       ?type_case_d@?$output_processor@_WV?$stream_output_adapter@_W@__crt_stdio_output@@V?$standard_base@_WV?$stream_output_adapter@_W@__crt_stdio_output@@@2@@__crt_stdio_output@@AEAA_NXZ 000000018003fb60 f i libucrt:output.obj
 0001:0003eb6c       ?type_case_d@?$output_processor@_WV?$string_output_adapter@_W@__crt_stdio_output@@V?$format_validation_base@_WV?$string_output_adapter@_W@__crt_stdio_output@@@2@@__crt_stdio_output@@AEAA_NXZ 000000018003fb6c f i libucrt:output.obj
 0001:0003eb78       ?type_case_d@?$output_processor@_WV?$string_output_adapter@_W@__crt_stdio_output@@V?$positional_parameter_base@_WV?$string_output_adapter@_W@__crt_stdio_output@@@2@@__crt_stdio_output@@AEAA_NXZ 000000018003fb78 f i libucrt:output.obj
 0001:0003eb84       ?type_case_d@?$output_processor@_WV?$string_output_adapter@_W@__crt_stdio_output@@V?$standard_base@_WV?$string_output_adapter@_W@__crt_stdio_output@@@2@@__crt_stdio_output@@AEAA_NXZ 000000018003fb84 f i libucrt:output.obj
 0001:0003eb90       ?type_case_n@?$output_processor@DV?$stream_output_adapter@D@__crt_stdio_output@@V?$format_validation_base@DV?$stream_output_adapter@D@__crt_stdio_output@@@2@@__crt_stdio_output@@AEAA_NXZ 000000018003fb90 f i libucrt:output.obj
 0001:0003ec48       ?type_case_n@?$output_processor@DV?$stream_output_adapter@D@__crt_stdio_output@@V?$positional_parameter_base@DV?$stream_output_adapter@D@__crt_stdio_output@@@2@@__crt_stdio_output@@AEAA_NXZ 000000018003fc48 f i libucrt:output.obj
 0001:0003ed2c       ?type_case_n@?$output_processor@DV?$stream_output_adapter@D@__crt_stdio_output@@V?$standard_base@DV?$stream_output_adapter@D@__crt_stdio_output@@@2@@__crt_stdio_output@@AEAA_NXZ 000000018003fd2c f i libucrt:output.obj
 0001:0003ede4       ?type_case_n@?$output_processor@DV?$string_output_adapter@D@__crt_stdio_output@@V?$format_validation_base@DV?$string_output_adapter@D@__crt_stdio_output@@@2@@__crt_stdio_output@@AEAA_NXZ 000000018003fde4 f i libucrt:output.obj
 0001:0003ee9c       ?type_case_n@?$output_processor@DV?$string_output_adapter@D@__crt_stdio_output@@V?$positional_parameter_base@DV?$string_output_adapter@D@__crt_stdio_output@@@2@@__crt_stdio_output@@AEAA_NXZ 000000018003fe9c f i libucrt:output.obj
 0001:0003ef80       ?type_case_n@?$output_processor@DV?$string_output_adapter@D@__crt_stdio_output@@V?$standard_base@DV?$string_output_adapter@D@__crt_stdio_output@@@2@@__crt_stdio_output@@AEAA_NXZ 000000018003ff80 f i libucrt:output.obj
 0001:0003f038       ?type_case_n@?$output_processor@_WV?$stream_output_adapter@_W@__crt_stdio_output@@V?$format_validation_base@_WV?$stream_output_adapter@_W@__crt_stdio_output@@@2@@__crt_stdio_output@@AEAA_NXZ 0000000180040038 f i libucrt:output.obj
 0001:0003f0f0       ?type_case_n@?$output_processor@_WV?$stream_output_adapter@_W@__crt_stdio_output@@V?$positional_parameter_base@_WV?$stream_output_adapter@_W@__crt_stdio_output@@@2@@__crt_stdio_output@@AEAA_NXZ 00000001800400f0 f i libucrt:output.obj
 0001:0003f1d4       ?type_case_n@?$output_processor@_WV?$stream_output_adapter@_W@__crt_stdio_output@@V?$standard_base@_WV?$stream_output_adapter@_W@__crt_stdio_output@@@2@@__crt_stdio_output@@AEAA_NXZ 00000001800401d4 f i libucrt:output.obj
 0001:0003f28c       ?type_case_n@?$output_processor@_WV?$string_output_adapter@_W@__crt_stdio_output@@V?$format_validation_base@_WV?$string_output_adapter@_W@__crt_stdio_output@@@2@@__crt_stdio_output@@AEAA_NXZ 000000018004028c f i libucrt:output.obj
 0001:0003f344       ?type_case_n@?$output_processor@_WV?$string_output_adapter@_W@__crt_stdio_output@@V?$positional_parameter_base@_WV?$string_output_adapter@_W@__crt_stdio_output@@@2@@__crt_stdio_output@@AEAA_NXZ 0000000180040344 f i libucrt:output.obj
 0001:0003f428       ?type_case_n@?$output_processor@_WV?$string_output_adapter@_W@__crt_stdio_output@@V?$standard_base@_WV?$string_output_adapter@_W@__crt_stdio_output@@@2@@__crt_stdio_output@@AEAA_NXZ 0000000180040428 f i libucrt:output.obj
 0001:0003f4e0       ?type_case_o@?$output_processor@DV?$stream_output_adapter@D@__crt_stdio_output@@V?$format_validation_base@DV?$stream_output_adapter@D@__crt_stdio_output@@@2@@__crt_stdio_output@@AEAA_NXZ 00000001800404e0 f i libucrt:output.obj
 0001:0003f4fc       ?type_case_o@?$output_processor@DV?$stream_output_adapter@D@__crt_stdio_output@@V?$positional_parameter_base@DV?$stream_output_adapter@D@__crt_stdio_output@@@2@@__crt_stdio_output@@AEAA_NXZ 00000001800404fc f i libucrt:output.obj
 0001:0003f518       ?type_case_o@?$output_processor@DV?$stream_output_adapter@D@__crt_stdio_output@@V?$standard_base@DV?$stream_output_adapter@D@__crt_stdio_output@@@2@@__crt_stdio_output@@AEAA_NXZ 0000000180040518 f i libucrt:output.obj
 0001:0003f534       ?type_case_o@?$output_processor@DV?$string_output_adapter@D@__crt_stdio_output@@V?$format_validation_base@DV?$string_output_adapter@D@__crt_stdio_output@@@2@@__crt_stdio_output@@AEAA_NXZ 0000000180040534 f i libucrt:output.obj
 0001:0003f550       ?type_case_o@?$output_processor@DV?$string_output_adapter@D@__crt_stdio_output@@V?$positional_parameter_base@DV?$string_output_adapter@D@__crt_stdio_output@@@2@@__crt_stdio_output@@AEAA_NXZ 0000000180040550 f i libucrt:output.obj
 0001:0003f56c       ?type_case_o@?$output_processor@DV?$string_output_adapter@D@__crt_stdio_output@@V?$standard_base@DV?$string_output_adapter@D@__crt_stdio_output@@@2@@__crt_stdio_output@@AEAA_NXZ 000000018004056c f i libucrt:output.obj
 0001:0003f588       ?type_case_o@?$output_processor@_WV?$stream_output_adapter@_W@__crt_stdio_output@@V?$format_validation_base@_WV?$stream_output_adapter@_W@__crt_stdio_output@@@2@@__crt_stdio_output@@AEAA_NXZ 0000000180040588 f i libucrt:output.obj
 0001:0003f5a4       ?type_case_o@?$output_processor@_WV?$stream_output_adapter@_W@__crt_stdio_output@@V?$positional_parameter_base@_WV?$stream_output_adapter@_W@__crt_stdio_output@@@2@@__crt_stdio_output@@AEAA_NXZ 00000001800405a4 f i libucrt:output.obj
 0001:0003f5c0       ?type_case_o@?$output_processor@_WV?$stream_output_adapter@_W@__crt_stdio_output@@V?$standard_base@_WV?$stream_output_adapter@_W@__crt_stdio_output@@@2@@__crt_stdio_output@@AEAA_NXZ 00000001800405c0 f i libucrt:output.obj
 0001:0003f5dc       ?type_case_o@?$output_processor@_WV?$string_output_adapter@_W@__crt_stdio_output@@V?$format_validation_base@_WV?$string_output_adapter@_W@__crt_stdio_output@@@2@@__crt_stdio_output@@AEAA_NXZ 00000001800405dc f i libucrt:output.obj
 0001:0003f5f8       ?type_case_o@?$output_processor@_WV?$string_output_adapter@_W@__crt_stdio_output@@V?$positional_parameter_base@_WV?$string_output_adapter@_W@__crt_stdio_output@@@2@@__crt_stdio_output@@AEAA_NXZ 00000001800405f8 f i libucrt:output.obj
 0001:0003f614       ?type_case_o@?$output_processor@_WV?$string_output_adapter@_W@__crt_stdio_output@@V?$standard_base@_WV?$string_output_adapter@_W@__crt_stdio_output@@@2@@__crt_stdio_output@@AEAA_NXZ 0000000180040614 f i libucrt:output.obj
 0001:0003f630       ?type_case_p@?$output_processor@DV?$stream_output_adapter@D@__crt_stdio_output@@V?$format_validation_base@DV?$stream_output_adapter@D@__crt_stdio_output@@@2@@__crt_stdio_output@@AEAA_NXZ 0000000180040630 f i libucrt:output.obj
 0001:0003f648       ?type_case_p@?$output_processor@DV?$stream_output_adapter@D@__crt_stdio_output@@V?$positional_parameter_base@DV?$stream_output_adapter@D@__crt_stdio_output@@@2@@__crt_stdio_output@@AEAA_NXZ 0000000180040648 f i libucrt:output.obj
 0001:0003f660       ?type_case_p@?$output_processor@DV?$stream_output_adapter@D@__crt_stdio_output@@V?$standard_base@DV?$stream_output_adapter@D@__crt_stdio_output@@@2@@__crt_stdio_output@@AEAA_NXZ 0000000180040660 f i libucrt:output.obj
 0001:0003f678       ?type_case_p@?$output_processor@DV?$string_output_adapter@D@__crt_stdio_output@@V?$format_validation_base@DV?$string_output_adapter@D@__crt_stdio_output@@@2@@__crt_stdio_output@@AEAA_NXZ 0000000180040678 f i libucrt:output.obj
 0001:0003f690       ?type_case_p@?$output_processor@DV?$string_output_adapter@D@__crt_stdio_output@@V?$positional_parameter_base@DV?$string_output_adapter@D@__crt_stdio_output@@@2@@__crt_stdio_output@@AEAA_NXZ 0000000180040690 f i libucrt:output.obj
 0001:0003f6a8       ?type_case_p@?$output_processor@DV?$string_output_adapter@D@__crt_stdio_output@@V?$standard_base@DV?$string_output_adapter@D@__crt_stdio_output@@@2@@__crt_stdio_output@@AEAA_NXZ 00000001800406a8 f i libucrt:output.obj
 0001:0003f6c0       ?type_case_p@?$output_processor@_WV?$stream_output_adapter@_W@__crt_stdio_output@@V?$format_validation_base@_WV?$stream_output_adapter@_W@__crt_stdio_output@@@2@@__crt_stdio_output@@AEAA_NXZ 00000001800406c0 f i libucrt:output.obj
 0001:0003f6d8       ?type_case_p@?$output_processor@_WV?$stream_output_adapter@_W@__crt_stdio_output@@V?$positional_parameter_base@_WV?$stream_output_adapter@_W@__crt_stdio_output@@@2@@__crt_stdio_output@@AEAA_NXZ 00000001800406d8 f i libucrt:output.obj
 0001:0003f6f0       ?type_case_p@?$output_processor@_WV?$stream_output_adapter@_W@__crt_stdio_output@@V?$standard_base@_WV?$stream_output_adapter@_W@__crt_stdio_output@@@2@@__crt_stdio_output@@AEAA_NXZ 00000001800406f0 f i libucrt:output.obj
 0001:0003f708       ?type_case_p@?$output_processor@_WV?$string_output_adapter@_W@__crt_stdio_output@@V?$format_validation_base@_WV?$string_output_adapter@_W@__crt_stdio_output@@@2@@__crt_stdio_output@@AEAA_NXZ 0000000180040708 f i libucrt:output.obj
 0001:0003f720       ?type_case_p@?$output_processor@_WV?$string_output_adapter@_W@__crt_stdio_output@@V?$positional_parameter_base@_WV?$string_output_adapter@_W@__crt_stdio_output@@@2@@__crt_stdio_output@@AEAA_NXZ 0000000180040720 f i libucrt:output.obj
 0001:0003f738       ?type_case_p@?$output_processor@_WV?$string_output_adapter@_W@__crt_stdio_output@@V?$standard_base@_WV?$string_output_adapter@_W@__crt_stdio_output@@@2@@__crt_stdio_output@@AEAA_NXZ 0000000180040738 f i libucrt:output.obj
 0001:0003f750       ?type_case_s@?$output_processor@DV?$stream_output_adapter@D@__crt_stdio_output@@V?$format_validation_base@DV?$stream_output_adapter@D@__crt_stdio_output@@@2@@__crt_stdio_output@@AEAA_NXZ 0000000180040750 f i libucrt:output.obj
 0001:0003f7ec       ?type_case_s@?$output_processor@DV?$stream_output_adapter@D@__crt_stdio_output@@V?$positional_parameter_base@DV?$stream_output_adapter@D@__crt_stdio_output@@@2@@__crt_stdio_output@@AEAA_NXZ 00000001800407ec f i libucrt:output.obj
 0001:0003f8a8       ?type_case_s@?$output_processor@DV?$stream_output_adapter@D@__crt_stdio_output@@V?$standard_base@DV?$stream_output_adapter@D@__crt_stdio_output@@@2@@__crt_stdio_output@@AEAA_NXZ 00000001800408a8 f i libucrt:output.obj
 0001:0003f944       ?type_case_s@?$output_processor@DV?$string_output_adapter@D@__crt_stdio_output@@V?$format_validation_base@DV?$string_output_adapter@D@__crt_stdio_output@@@2@@__crt_stdio_output@@AEAA_NXZ 0000000180040944 f i libucrt:output.obj
 0001:0003f9e0       ?type_case_s@?$output_processor@DV?$string_output_adapter@D@__crt_stdio_output@@V?$positional_parameter_base@DV?$string_output_adapter@D@__crt_stdio_output@@@2@@__crt_stdio_output@@AEAA_NXZ 00000001800409e0 f i libucrt:output.obj
 0001:0003fa9c       ?type_case_s@?$output_processor@DV?$string_output_adapter@D@__crt_stdio_output@@V?$standard_base@DV?$string_output_adapter@D@__crt_stdio_output@@@2@@__crt_stdio_output@@AEAA_NXZ 0000000180040a9c f i libucrt:output.obj
 0001:0003fb38       ?type_case_s@?$output_processor@_WV?$stream_output_adapter@_W@__crt_stdio_output@@V?$format_validation_base@_WV?$stream_output_adapter@_W@__crt_stdio_output@@@2@@__crt_stdio_output@@AEAA_NXZ 0000000180040b38 f i libucrt:output.obj
 0001:0003fbd4       ?type_case_s@?$output_processor@_WV?$stream_output_adapter@_W@__crt_stdio_output@@V?$positional_parameter_base@_WV?$stream_output_adapter@_W@__crt_stdio_output@@@2@@__crt_stdio_output@@AEAA_NXZ 0000000180040bd4 f i libucrt:output.obj
 0001:0003fc88       ?type_case_s@?$output_processor@_WV?$stream_output_adapter@_W@__crt_stdio_output@@V?$standard_base@_WV?$stream_output_adapter@_W@__crt_stdio_output@@@2@@__crt_stdio_output@@AEAA_NXZ 0000000180040c88 f i libucrt:output.obj
 0001:0003fd24       ?type_case_s@?$output_processor@_WV?$string_output_adapter@_W@__crt_stdio_output@@V?$format_validation_base@_WV?$string_output_adapter@_W@__crt_stdio_output@@@2@@__crt_stdio_output@@AEAA_NXZ 0000000180040d24 f i libucrt:output.obj
 0001:0003fdc0       ?type_case_s@?$output_processor@_WV?$string_output_adapter@_W@__crt_stdio_output@@V?$positional_parameter_base@_WV?$string_output_adapter@_W@__crt_stdio_output@@@2@@__crt_stdio_output@@AEAA_NXZ 0000000180040dc0 f i libucrt:output.obj
 0001:0003fe74       ?type_case_s@?$output_processor@_WV?$string_output_adapter@_W@__crt_stdio_output@@V?$standard_base@_WV?$string_output_adapter@_W@__crt_stdio_output@@@2@@__crt_stdio_output@@AEAA_NXZ 0000000180040e74 f i libucrt:output.obj
 0001:0003ff10       ?type_case_s_compute_narrow_string_length@?$output_processor@DV?$stream_output_adapter@D@__crt_stdio_output@@V?$format_validation_base@DV?$stream_output_adapter@D@__crt_stdio_output@@@2@@__crt_stdio_output@@AEAAHHD@Z 0000000180040f10 f i libucrt:output.obj
 0001:0003ff1c       ?type_case_s_compute_narrow_string_length@?$output_processor@DV?$stream_output_adapter@D@__crt_stdio_output@@V?$positional_parameter_base@DV?$stream_output_adapter@D@__crt_stdio_output@@@2@@__crt_stdio_output@@AEAAHHD@Z 0000000180040f1c f i libucrt:output.obj
 0001:0003ff28       ?type_case_s_compute_narrow_string_length@?$output_processor@DV?$stream_output_adapter@D@__crt_stdio_output@@V?$standard_base@DV?$stream_output_adapter@D@__crt_stdio_output@@@2@@__crt_stdio_output@@AEAAHHD@Z 0000000180040f28 f i libucrt:output.obj
 0001:0003ff34       ?type_case_s_compute_narrow_string_length@?$output_processor@DV?$string_output_adapter@D@__crt_stdio_output@@V?$format_validation_base@DV?$string_output_adapter@D@__crt_stdio_output@@@2@@__crt_stdio_output@@AEAAHHD@Z 0000000180040f34 f i libucrt:output.obj
 0001:0003ff40       ?type_case_s_compute_narrow_string_length@?$output_processor@DV?$string_output_adapter@D@__crt_stdio_output@@V?$positional_parameter_base@DV?$string_output_adapter@D@__crt_stdio_output@@@2@@__crt_stdio_output@@AEAAHHD@Z 0000000180040f40 f i libucrt:output.obj
 0001:0003ff4c       ?type_case_s_compute_narrow_string_length@?$output_processor@DV?$string_output_adapter@D@__crt_stdio_output@@V?$standard_base@DV?$string_output_adapter@D@__crt_stdio_output@@@2@@__crt_stdio_output@@AEAAHHD@Z 0000000180040f4c f i libucrt:output.obj
 0001:0003ff58       ?type_case_s_compute_narrow_string_length@?$output_processor@_WV?$stream_output_adapter@_W@__crt_stdio_output@@V?$format_validation_base@_WV?$stream_output_adapter@_W@__crt_stdio_output@@@2@@__crt_stdio_output@@AEAAHH_W@Z 0000000180040f58 f i libucrt:output.obj
 0001:0003ffcc       ?type_case_s_compute_narrow_string_length@?$output_processor@_WV?$stream_output_adapter@_W@__crt_stdio_output@@V?$positional_parameter_base@_WV?$stream_output_adapter@_W@__crt_stdio_output@@@2@@__crt_stdio_output@@AEAAHH_W@Z 0000000180040fcc f i libucrt:output.obj
 0001:00040040       ?type_case_s_compute_narrow_string_length@?$output_processor@_WV?$stream_output_adapter@_W@__crt_stdio_output@@V?$standard_base@_WV?$stream_output_adapter@_W@__crt_stdio_output@@@2@@__crt_stdio_output@@AEAAHH_W@Z 0000000180041040 f i libucrt:output.obj
 0001:000400b4       ?type_case_s_compute_narrow_string_length@?$output_processor@_WV?$string_output_adapter@_W@__crt_stdio_output@@V?$format_validation_base@_WV?$string_output_adapter@_W@__crt_stdio_output@@@2@@__crt_stdio_output@@AEAAHH_W@Z 00000001800410b4 f i libucrt:output.obj
 0001:00040128       ?type_case_s_compute_narrow_string_length@?$output_processor@_WV?$string_output_adapter@_W@__crt_stdio_output@@V?$positional_parameter_base@_WV?$string_output_adapter@_W@__crt_stdio_output@@@2@@__crt_stdio_output@@AEAAHH_W@Z 0000000180041128 f i libucrt:output.obj
 0001:0004019c       ?type_case_s_compute_narrow_string_length@?$output_processor@_WV?$string_output_adapter@_W@__crt_stdio_output@@V?$standard_base@_WV?$string_output_adapter@_W@__crt_stdio_output@@@2@@__crt_stdio_output@@AEAAHH_W@Z 000000018004119c f i libucrt:output.obj
 0001:00040210       ?type_case_u@?$output_processor@DV?$stream_output_adapter@D@__crt_stdio_output@@V?$format_validation_base@DV?$stream_output_adapter@D@__crt_stdio_output@@@2@@__crt_stdio_output@@AEAA_NXZ 0000000180041210 f i libucrt:output.obj
 0001:00040218       ?type_case_u@?$output_processor@DV?$stream_output_adapter@D@__crt_stdio_output@@V?$positional_parameter_base@DV?$stream_output_adapter@D@__crt_stdio_output@@@2@@__crt_stdio_output@@AEAA_NXZ 0000000180041218 f i libucrt:output.obj
 0001:00040220       ?type_case_u@?$output_processor@DV?$stream_output_adapter@D@__crt_stdio_output@@V?$standard_base@DV?$stream_output_adapter@D@__crt_stdio_output@@@2@@__crt_stdio_output@@AEAA_NXZ 0000000180041220 f i libucrt:output.obj
 0001:00040228       ?type_case_u@?$output_processor@DV?$string_output_adapter@D@__crt_stdio_output@@V?$format_validation_base@DV?$string_output_adapter@D@__crt_stdio_output@@@2@@__crt_stdio_output@@AEAA_NXZ 0000000180041228 f i libucrt:output.obj
 0001:00040230       ?type_case_u@?$output_processor@DV?$string_output_adapter@D@__crt_stdio_output@@V?$positional_parameter_base@DV?$string_output_adapter@D@__crt_stdio_output@@@2@@__crt_stdio_output@@AEAA_NXZ 0000000180041230 f i libucrt:output.obj
 0001:00040238       ?type_case_u@?$output_processor@DV?$string_output_adapter@D@__crt_stdio_output@@V?$standard_base@DV?$string_output_adapter@D@__crt_stdio_output@@@2@@__crt_stdio_output@@AEAA_NXZ 0000000180041238 f i libucrt:output.obj
 0001:00040240       ?type_case_u@?$output_processor@_WV?$stream_output_adapter@_W@__crt_stdio_output@@V?$format_validation_base@_WV?$stream_output_adapter@_W@__crt_stdio_output@@@2@@__crt_stdio_output@@AEAA_NXZ 0000000180041240 f i libucrt:output.obj
 0001:00040248       ?type_case_u@?$output_processor@_WV?$stream_output_adapter@_W@__crt_stdio_output@@V?$positional_parameter_base@_WV?$stream_output_adapter@_W@__crt_stdio_output@@@2@@__crt_stdio_output@@AEAA_NXZ 0000000180041248 f i libucrt:output.obj
 0001:00040250       ?type_case_u@?$output_processor@_WV?$stream_output_adapter@_W@__crt_stdio_output@@V?$standard_base@_WV?$stream_output_adapter@_W@__crt_stdio_output@@@2@@__crt_stdio_output@@AEAA_NXZ 0000000180041250 f i libucrt:output.obj
 0001:00040258       ?type_case_u@?$output_processor@_WV?$string_output_adapter@_W@__crt_stdio_output@@V?$format_validation_base@_WV?$string_output_adapter@_W@__crt_stdio_output@@@2@@__crt_stdio_output@@AEAA_NXZ 0000000180041258 f i libucrt:output.obj
 0001:00040260       ?type_case_u@?$output_processor@_WV?$string_output_adapter@_W@__crt_stdio_output@@V?$positional_parameter_base@_WV?$string_output_adapter@_W@__crt_stdio_output@@@2@@__crt_stdio_output@@AEAA_NXZ 0000000180041260 f i libucrt:output.obj
 0001:00040268       ?type_case_u@?$output_processor@_WV?$string_output_adapter@_W@__crt_stdio_output@@V?$standard_base@_WV?$string_output_adapter@_W@__crt_stdio_output@@@2@@__crt_stdio_output@@AEAA_NXZ 0000000180041268 f i libucrt:output.obj
 0001:00040270       ?type_case_x@?$output_processor@DV?$stream_output_adapter@D@__crt_stdio_output@@V?$format_validation_base@DV?$stream_output_adapter@D@__crt_stdio_output@@@2@@__crt_stdio_output@@AEAA_NXZ 0000000180041270 f i libucrt:output.obj
 0001:00040278       ?type_case_x@?$output_processor@DV?$stream_output_adapter@D@__crt_stdio_output@@V?$positional_parameter_base@DV?$stream_output_adapter@D@__crt_stdio_output@@@2@@__crt_stdio_output@@AEAA_NXZ 0000000180041278 f i libucrt:output.obj
 0001:00040280       ?type_case_x@?$output_processor@DV?$stream_output_adapter@D@__crt_stdio_output@@V?$standard_base@DV?$stream_output_adapter@D@__crt_stdio_output@@@2@@__crt_stdio_output@@AEAA_NXZ 0000000180041280 f i libucrt:output.obj
 0001:00040288       ?type_case_x@?$output_processor@DV?$string_output_adapter@D@__crt_stdio_output@@V?$format_validation_base@DV?$string_output_adapter@D@__crt_stdio_output@@@2@@__crt_stdio_output@@AEAA_NXZ 0000000180041288 f i libucrt:output.obj
 0001:00040290       ?type_case_x@?$output_processor@DV?$string_output_adapter@D@__crt_stdio_output@@V?$positional_parameter_base@DV?$string_output_adapter@D@__crt_stdio_output@@@2@@__crt_stdio_output@@AEAA_NXZ 0000000180041290 f i libucrt:output.obj
 0001:00040298       ?type_case_x@?$output_processor@DV?$string_output_adapter@D@__crt_stdio_output@@V?$standard_base@DV?$string_output_adapter@D@__crt_stdio_output@@@2@@__crt_stdio_output@@AEAA_NXZ 0000000180041298 f i libucrt:output.obj
 0001:000402a0       ?type_case_x@?$output_processor@_WV?$stream_output_adapter@_W@__crt_stdio_output@@V?$format_validation_base@_WV?$stream_output_adapter@_W@__crt_stdio_output@@@2@@__crt_stdio_output@@AEAA_NXZ 00000001800412a0 f i libucrt:output.obj
 0001:000402a8       ?type_case_x@?$output_processor@_WV?$stream_output_adapter@_W@__crt_stdio_output@@V?$positional_parameter_base@_WV?$stream_output_adapter@_W@__crt_stdio_output@@@2@@__crt_stdio_output@@AEAA_NXZ 00000001800412a8 f i libucrt:output.obj
 0001:000402b0       ?type_case_x@?$output_processor@_WV?$stream_output_adapter@_W@__crt_stdio_output@@V?$standard_base@_WV?$stream_output_adapter@_W@__crt_stdio_output@@@2@@__crt_stdio_output@@AEAA_NXZ 00000001800412b0 f i libucrt:output.obj
 0001:000402b8       ?type_case_x@?$output_processor@_WV?$string_output_adapter@_W@__crt_stdio_output@@V?$format_validation_base@_WV?$string_output_adapter@_W@__crt_stdio_output@@@2@@__crt_stdio_output@@AEAA_NXZ 00000001800412b8 f i libucrt:output.obj
 0001:000402c0       ?type_case_x@?$output_processor@_WV?$string_output_adapter@_W@__crt_stdio_output@@V?$positional_parameter_base@_WV?$string_output_adapter@_W@__crt_stdio_output@@@2@@__crt_stdio_output@@AEAA_NXZ 00000001800412c0 f i libucrt:output.obj
 0001:000402c8       ?type_case_x@?$output_processor@_WV?$string_output_adapter@_W@__crt_stdio_output@@V?$standard_base@_WV?$string_output_adapter@_W@__crt_stdio_output@@@2@@__crt_stdio_output@@AEAA_NXZ 00000001800412c8 f i libucrt:output.obj
 0001:000402d0       ?unget@?$c_string_character_source@D@__crt_strtox@@QEAAXD@Z 00000001800412d0 f i libucrt:output.obj
 0001:000402fc       ?unget@?$c_string_character_source@_W@__crt_strtox@@QEAAX_W@Z 00000001800412fc f i libucrt:output.obj
 0001:0004032c       ?unset_flag@?$output_processor@DV?$stream_output_adapter@D@__crt_stdio_output@@V?$format_validation_base@DV?$stream_output_adapter@D@__crt_stdio_output@@@2@@__crt_stdio_output@@AEAAXI@Z 000000018004132c f i libucrt:output.obj
 0001:00040334       ?unset_flag@?$output_processor@DV?$stream_output_adapter@D@__crt_stdio_output@@V?$positional_parameter_base@DV?$stream_output_adapter@D@__crt_stdio_output@@@2@@__crt_stdio_output@@AEAAXI@Z 0000000180041334 f i libucrt:output.obj
 0001:0004033c       ?unset_flag@?$output_processor@DV?$stream_output_adapter@D@__crt_stdio_output@@V?$standard_base@DV?$stream_output_adapter@D@__crt_stdio_output@@@2@@__crt_stdio_output@@AEAAXI@Z 000000018004133c f i libucrt:output.obj
 0001:00040344       ?unset_flag@?$output_processor@DV?$string_output_adapter@D@__crt_stdio_output@@V?$format_validation_base@DV?$string_output_adapter@D@__crt_stdio_output@@@2@@__crt_stdio_output@@AEAAXI@Z 0000000180041344 f i libucrt:output.obj
 0001:0004034c       ?unset_flag@?$output_processor@DV?$string_output_adapter@D@__crt_stdio_output@@V?$positional_parameter_base@DV?$string_output_adapter@D@__crt_stdio_output@@@2@@__crt_stdio_output@@AEAAXI@Z 000000018004134c f i libucrt:output.obj
 0001:00040354       ?unset_flag@?$output_processor@DV?$string_output_adapter@D@__crt_stdio_output@@V?$standard_base@DV?$string_output_adapter@D@__crt_stdio_output@@@2@@__crt_stdio_output@@AEAAXI@Z 0000000180041354 f i libucrt:output.obj
 0001:0004035c       ?unset_flag@?$output_processor@_WV?$stream_output_adapter@_W@__crt_stdio_output@@V?$format_validation_base@_WV?$stream_output_adapter@_W@__crt_stdio_output@@@2@@__crt_stdio_output@@AEAAXI@Z 000000018004135c f i libucrt:output.obj
 0001:00040364       ?unset_flag@?$output_processor@_WV?$stream_output_adapter@_W@__crt_stdio_output@@V?$positional_parameter_base@_WV?$stream_output_adapter@_W@__crt_stdio_output@@@2@@__crt_stdio_output@@AEAAXI@Z 0000000180041364 f i libucrt:output.obj
 0001:0004036c       ?unset_flag@?$output_processor@_WV?$stream_output_adapter@_W@__crt_stdio_output@@V?$standard_base@_WV?$stream_output_adapter@_W@__crt_stdio_output@@@2@@__crt_stdio_output@@AEAAXI@Z 000000018004136c f i libucrt:output.obj
 0001:00040374       ?unset_flag@?$output_processor@_WV?$string_output_adapter@_W@__crt_stdio_output@@V?$format_validation_base@_WV?$string_output_adapter@_W@__crt_stdio_output@@@2@@__crt_stdio_output@@AEAAXI@Z 0000000180041374 f i libucrt:output.obj
 0001:0004037c       ?unset_flag@?$output_processor@_WV?$string_output_adapter@_W@__crt_stdio_output@@V?$positional_parameter_base@_WV?$string_output_adapter@_W@__crt_stdio_output@@@2@@__crt_stdio_output@@AEAAXI@Z 000000018004137c f i libucrt:output.obj
 0001:00040384       ?unset_flag@?$output_processor@_WV?$string_output_adapter@_W@__crt_stdio_output@@V?$standard_base@_WV?$string_output_adapter@_W@__crt_stdio_output@@@2@@__crt_stdio_output@@AEAAXI@Z 0000000180041384 f i libucrt:output.obj
 0001:0004038c       ?update_field_width@?$positional_parameter_base@DV?$stream_output_adapter@D@__crt_stdio_output@@@__crt_stdio_output@@IEAA_NXZ 000000018004138c f i libucrt:output.obj
 0001:000404fc       ?update_field_width@?$positional_parameter_base@DV?$string_output_adapter@D@__crt_stdio_output@@@__crt_stdio_output@@IEAA_NXZ 00000001800414fc f i libucrt:output.obj
 0001:0004066c       ?update_field_width@?$positional_parameter_base@_WV?$stream_output_adapter@_W@__crt_stdio_output@@@__crt_stdio_output@@IEAA_NXZ 000000018004166c f i libucrt:output.obj
 0001:000407e0       ?update_field_width@?$positional_parameter_base@_WV?$string_output_adapter@_W@__crt_stdio_output@@@__crt_stdio_output@@IEAA_NXZ 00000001800417e0 f i libucrt:output.obj
 0001:00040954       ?update_field_width@?$standard_base@DV?$stream_output_adapter@D@__crt_stdio_output@@@__crt_stdio_output@@IEAA_NXZ 0000000180041954 f i libucrt:output.obj
 0001:00040968       ?update_field_width@?$standard_base@DV?$string_output_adapter@D@__crt_stdio_output@@@__crt_stdio_output@@IEAA_NXZ 0000000180041968 f i libucrt:output.obj
 0001:0004097c       ?update_field_width@?$standard_base@_WV?$stream_output_adapter@_W@__crt_stdio_output@@@__crt_stdio_output@@IEAA_NXZ 000000018004197c f i libucrt:output.obj
 0001:00040990       ?update_field_width@?$standard_base@_WV?$string_output_adapter@_W@__crt_stdio_output@@@__crt_stdio_output@@IEAA_NXZ 0000000180041990 f i libucrt:output.obj
 0001:000409b0       ?update_locale@__crt_cached_ptd_host@@AEAAXXZ 00000001800419b0 f i libucrt:output.obj
 0001:000409c0       ?update_locale_slow@__crt_cached_ptd_host@@AEAAXXZ 00000001800419c0 f i libucrt:output.obj
 0001:00040a38       ?update_precision@?$positional_parameter_base@DV?$stream_output_adapter@D@__crt_stdio_output@@@__crt_stdio_output@@IEAA_NXZ 0000000180041a38 f i libucrt:output.obj
 0001:00040ba8       ?update_precision@?$positional_parameter_base@DV?$string_output_adapter@D@__crt_stdio_output@@@__crt_stdio_output@@IEAA_NXZ 0000000180041ba8 f i libucrt:output.obj
 0001:00040d18       ?update_precision@?$positional_parameter_base@_WV?$stream_output_adapter@_W@__crt_stdio_output@@@__crt_stdio_output@@IEAA_NXZ 0000000180041d18 f i libucrt:output.obj
 0001:00040e8c       ?update_precision@?$positional_parameter_base@_WV?$string_output_adapter@_W@__crt_stdio_output@@@__crt_stdio_output@@IEAA_NXZ 0000000180041e8c f i libucrt:output.obj
 0001:00041000       ?update_precision@?$standard_base@DV?$stream_output_adapter@D@__crt_stdio_output@@@__crt_stdio_output@@IEAA_NXZ 0000000180042000 f i libucrt:output.obj
 0001:00041014       ?update_precision@?$standard_base@DV?$string_output_adapter@D@__crt_stdio_output@@@__crt_stdio_output@@IEAA_NXZ 0000000180042014 f i libucrt:output.obj
 0001:00041028       ?update_precision@?$standard_base@_WV?$stream_output_adapter@_W@__crt_stdio_output@@@__crt_stdio_output@@IEAA_NXZ 0000000180042028 f i libucrt:output.obj
 0001:0004103c       ?update_precision@?$standard_base@_WV?$string_output_adapter@_W@__crt_stdio_output@@@__crt_stdio_output@@IEAA_NXZ 000000018004203c f i libucrt:output.obj
 0001:00041050       ?valid@__crt_stdio_stream@@QEBA_NXZ 0000000180042050 f i libucrt:output.obj
 0001:00041058       ?validate@?$c_string_character_source@D@__crt_strtox@@QEBA_NXZ 0000000180042058 f i libucrt:output.obj
 0001:00041080       ?validate@?$c_string_character_source@_W@__crt_strtox@@QEBA_NXZ 0000000180042080 f i libucrt:output.obj
 0001:000410a8       ?validate@?$stream_output_adapter@D@__crt_stdio_output@@QEBA_NAEAV__crt_cached_ptd_host@@@Z 00000001800420a8 f i libucrt:output.obj
 0001:000410e8       ?validate@?$stream_output_adapter@_W@__crt_stdio_output@@QEBA_NAEAV__crt_cached_ptd_host@@@Z 00000001800420e8 f i libucrt:output.obj
 0001:00041124       ?validate@?$string_output_adapter@D@__crt_stdio_output@@QEBA_NAEAV__crt_cached_ptd_host@@@Z 0000000180042124 f i libucrt:output.obj
 0001:00041160       ?validate@?$string_output_adapter@_W@__crt_stdio_output@@QEBA_NAEAV__crt_cached_ptd_host@@@Z 0000000180042160 f i libucrt:output.obj
 0001:0004119c       ?validate_and_store_parameter_data@?$positional_parameter_base@DV?$stream_output_adapter@D@__crt_stdio_output@@@__crt_stdio_output@@AEAA_NAEAUparameter_data@12@W4parameter_type@12@DW4length_modifier@2@@Z 000000018004219c f i libucrt:output.obj
 0001:00041200       ?validate_and_store_parameter_data@?$positional_parameter_base@DV?$string_output_adapter@D@__crt_stdio_output@@@__crt_stdio_output@@AEAA_NAEAUparameter_data@12@W4parameter_type@12@DW4length_modifier@2@@Z 0000000180042200 f i libucrt:output.obj
 0001:00041264       ?validate_and_store_parameter_data@?$positional_parameter_base@_WV?$stream_output_adapter@_W@__crt_stdio_output@@@__crt_stdio_output@@AEAA_NAEAUparameter_data@12@W4parameter_type@12@_WW4length_modifier@2@@Z 0000000180042264 f i libucrt:output.obj
 0001:000412c8       ?validate_and_store_parameter_data@?$positional_parameter_base@_WV?$string_output_adapter@_W@__crt_stdio_output@@@__crt_stdio_output@@AEAA_NAEAUparameter_data@12@W4parameter_type@12@_WW4length_modifier@2@@Z 00000001800422c8 f i libucrt:output.obj
 0001:0004132c       ?validate_and_update_state_at_beginning_of_format_character@?$positional_parameter_base@DV?$stream_output_adapter@D@__crt_stdio_output@@@__crt_stdio_output@@IEAA_NXZ 000000018004232c f i libucrt:output.obj
 0001:00041470       ?validate_and_update_state_at_beginning_of_format_character@?$positional_parameter_base@DV?$string_output_adapter@D@__crt_stdio_output@@@__crt_stdio_output@@IEAA_NXZ 0000000180042470 f i libucrt:output.obj
 0001:000415b4       ?validate_and_update_state_at_beginning_of_format_character@?$positional_parameter_base@_WV?$stream_output_adapter@_W@__crt_stdio_output@@@__crt_stdio_output@@IEAA_NXZ 00000001800425b4 f i libucrt:output.obj
 0001:00041704       ?validate_and_update_state_at_beginning_of_format_character@?$positional_parameter_base@_WV?$string_output_adapter@_W@__crt_stdio_output@@@__crt_stdio_output@@IEAA_NXZ 0000000180042704 f i libucrt:output.obj
 0001:00041854       ?validate_and_update_state_at_beginning_of_format_character@?$standard_base@DV?$stream_output_adapter@D@__crt_stdio_output@@@__crt_stdio_output@@IEAA_NXZ 0000000180042854 f i libucrt:output.obj
 0001:00041858       ?validate_and_update_state_at_beginning_of_format_character@?$standard_base@DV?$string_output_adapter@D@__crt_stdio_output@@@__crt_stdio_output@@IEAA_NXZ 0000000180042858 f i libucrt:output.obj
 0001:0004185c       ?validate_and_update_state_at_beginning_of_format_character@?$standard_base@_WV?$stream_output_adapter@_W@__crt_stdio_output@@@__crt_stdio_output@@IEAA_NXZ 000000018004285c f i libucrt:output.obj
 0001:00041860       ?validate_and_update_state_at_beginning_of_format_character@?$standard_base@_WV?$string_output_adapter@_W@__crt_stdio_output@@@__crt_stdio_output@@IEAA_NXZ 0000000180042860 f i libucrt:output.obj
 0001:00041864       ?validate_and_update_state_at_end_of_format_string@?$format_validation_base@DV?$stream_output_adapter@D@__crt_stdio_output@@@__crt_stdio_output@@IEAA_NXZ 0000000180042864 f i libucrt:output.obj
 0001:000418ac       ?validate_and_update_state_at_end_of_format_string@?$format_validation_base@DV?$string_output_adapter@D@__crt_stdio_output@@@__crt_stdio_output@@IEAA_NXZ 00000001800428ac f i libucrt:output.obj
 0001:000418f4       ?validate_and_update_state_at_end_of_format_string@?$format_validation_base@_WV?$stream_output_adapter@_W@__crt_stdio_output@@@__crt_stdio_output@@IEAA_NXZ 00000001800428f4 f i libucrt:output.obj
 0001:0004193c       ?validate_and_update_state_at_end_of_format_string@?$format_validation_base@_WV?$string_output_adapter@_W@__crt_stdio_output@@@__crt_stdio_output@@IEAA_NXZ 000000018004293c f i libucrt:output.obj
 0001:00041984       ?validate_and_update_state_at_end_of_format_string@?$positional_parameter_base@DV?$stream_output_adapter@D@__crt_stdio_output@@@__crt_stdio_output@@IEAA_NXZ 0000000180042984 f i libucrt:output.obj
 0001:00041a3c       ?validate_and_update_state_at_end_of_format_string@?$positional_parameter_base@DV?$string_output_adapter@D@__crt_stdio_output@@@__crt_stdio_output@@IEAA_NXZ 0000000180042a3c f i libucrt:output.obj
 0001:00041af4       ?validate_and_update_state_at_end_of_format_string@?$positional_parameter_base@_WV?$stream_output_adapter@_W@__crt_stdio_output@@@__crt_stdio_output@@IEAA_NXZ 0000000180042af4 f i libucrt:output.obj
 0001:00041bac       ?validate_and_update_state_at_end_of_format_string@?$positional_parameter_base@_WV?$string_output_adapter@_W@__crt_stdio_output@@@__crt_stdio_output@@IEAA_NXZ 0000000180042bac f i libucrt:output.obj
 0001:00041c64       ?validate_and_update_state_at_end_of_format_string@?$standard_base@DV?$stream_output_adapter@D@__crt_stdio_output@@@__crt_stdio_output@@IEBA_NXZ 0000000180042c64 f i libucrt:output.obj
 0001:00041c68       ?validate_and_update_state_at_end_of_format_string@?$standard_base@DV?$string_output_adapter@D@__crt_stdio_output@@@__crt_stdio_output@@IEBA_NXZ 0000000180042c68 f i libucrt:output.obj
 0001:00041c6c       ?validate_and_update_state_at_end_of_format_string@?$standard_base@_WV?$stream_output_adapter@_W@__crt_stdio_output@@@__crt_stdio_output@@IEBA_NXZ 0000000180042c6c f i libucrt:output.obj
 0001:00041c70       ?validate_and_update_state_at_end_of_format_string@?$standard_base@_WV?$string_output_adapter@_W@__crt_stdio_output@@@__crt_stdio_output@@IEBA_NXZ 0000000180042c70 f i libucrt:output.obj
 0001:00041c74       ?validate_state_for_type_case_a@?$positional_parameter_base@DV?$stream_output_adapter@D@__crt_stdio_output@@@__crt_stdio_output@@IEAA_NXZ 0000000180042c74 f i libucrt:output.obj
 0001:00041d58       ?validate_state_for_type_case_a@?$positional_parameter_base@DV?$string_output_adapter@D@__crt_stdio_output@@@__crt_stdio_output@@IEAA_NXZ 0000000180042d58 f i libucrt:output.obj
 0001:00041e3c       ?validate_state_for_type_case_a@?$positional_parameter_base@_WV?$stream_output_adapter@_W@__crt_stdio_output@@@__crt_stdio_output@@IEAA_NXZ 0000000180042e3c f i libucrt:output.obj
 0001:00041f20       ?validate_state_for_type_case_a@?$positional_parameter_base@_WV?$string_output_adapter@_W@__crt_stdio_output@@@__crt_stdio_output@@IEAA_NXZ 0000000180042f20 f i libucrt:output.obj
 0001:00042004       ?validate_state_for_type_case_a@?$standard_base@DV?$stream_output_adapter@D@__crt_stdio_output@@@__crt_stdio_output@@IEBA_NXZ 0000000180043004 f i libucrt:output.obj
 0001:00042008       ?validate_state_for_type_case_a@?$standard_base@DV?$string_output_adapter@D@__crt_stdio_output@@@__crt_stdio_output@@IEBA_NXZ 0000000180043008 f i libucrt:output.obj
 0001:0004200c       ?validate_state_for_type_case_a@?$standard_base@_WV?$stream_output_adapter@_W@__crt_stdio_output@@@__crt_stdio_output@@IEBA_NXZ 000000018004300c f i libucrt:output.obj
 0001:00042010       ?validate_state_for_type_case_a@?$standard_base@_WV?$string_output_adapter@_W@__crt_stdio_output@@@__crt_stdio_output@@IEBA_NXZ 0000000180043010 f i libucrt:output.obj
 0001:00042014       ?validate_stream_is_ansi_if_required@?$__acrt_stdio_char_traits@D@@SA_NQEAU_iobuf@@@Z 0000000180043014 f i libucrt:output.obj
 0001:000420b0       ?validate_stream_is_ansi_if_required@?$__acrt_stdio_char_traits@_W@@SA_NQEAU_iobuf@@@Z 00000001800430b0 f i libucrt:output.obj
 0001:000420b4       ?wide_character_to_digit@__crt_strtox@@YAH_W@Z 00000001800430b4 f i libucrt:output.obj
 0001:00042254       ?wide_null_string@?$output_processor@DV?$stream_output_adapter@D@__crt_stdio_output@@V?$format_validation_base@DV?$stream_output_adapter@D@__crt_stdio_output@@@2@@__crt_stdio_output@@CAPEA_WXZ 0000000180043254 f i libucrt:output.obj
 0001:0004225c       ?wide_null_string@?$output_processor@DV?$stream_output_adapter@D@__crt_stdio_output@@V?$positional_parameter_base@DV?$stream_output_adapter@D@__crt_stdio_output@@@2@@__crt_stdio_output@@CAPEA_WXZ 000000018004325c f i libucrt:output.obj
 0001:00042264       ?wide_null_string@?$output_processor@DV?$stream_output_adapter@D@__crt_stdio_output@@V?$standard_base@DV?$stream_output_adapter@D@__crt_stdio_output@@@2@@__crt_stdio_output@@CAPEA_WXZ 0000000180043264 f i libucrt:output.obj
 0001:0004226c       ?wide_null_string@?$output_processor@DV?$string_output_adapter@D@__crt_stdio_output@@V?$format_validation_base@DV?$string_output_adapter@D@__crt_stdio_output@@@2@@__crt_stdio_output@@CAPEA_WXZ 000000018004326c f i libucrt:output.obj
 0001:00042274       ?wide_null_string@?$output_processor@DV?$string_output_adapter@D@__crt_stdio_output@@V?$positional_parameter_base@DV?$string_output_adapter@D@__crt_stdio_output@@@2@@__crt_stdio_output@@CAPEA_WXZ 0000000180043274 f i libucrt:output.obj
 0001:0004227c       ?wide_null_string@?$output_processor@DV?$string_output_adapter@D@__crt_stdio_output@@V?$standard_base@DV?$string_output_adapter@D@__crt_stdio_output@@@2@@__crt_stdio_output@@CAPEA_WXZ 000000018004327c f i libucrt:output.obj
 0001:00042284       ?wide_null_string@?$output_processor@_WV?$stream_output_adapter@_W@__crt_stdio_output@@V?$format_validation_base@_WV?$stream_output_adapter@_W@__crt_stdio_output@@@2@@__crt_stdio_output@@CAPEA_WXZ 0000000180043284 f i libucrt:output.obj
 0001:0004228c       ?wide_null_string@?$output_processor@_WV?$stream_output_adapter@_W@__crt_stdio_output@@V?$positional_parameter_base@_WV?$stream_output_adapter@_W@__crt_stdio_output@@@2@@__crt_stdio_output@@CAPEA_WXZ 000000018004328c f i libucrt:output.obj
 0001:00042294       ?wide_null_string@?$output_processor@_WV?$stream_output_adapter@_W@__crt_stdio_output@@V?$standard_base@_WV?$stream_output_adapter@_W@__crt_stdio_output@@@2@@__crt_stdio_output@@CAPEA_WXZ 0000000180043294 f i libucrt:output.obj
 0001:0004229c       ?wide_null_string@?$output_processor@_WV?$string_output_adapter@_W@__crt_stdio_output@@V?$format_validation_base@_WV?$string_output_adapter@_W@__crt_stdio_output@@@2@@__crt_stdio_output@@CAPEA_WXZ 000000018004329c f i libucrt:output.obj
 0001:000422a4       ?wide_null_string@?$output_processor@_WV?$string_output_adapter@_W@__crt_stdio_output@@V?$positional_parameter_base@_WV?$string_output_adapter@_W@__crt_stdio_output@@@2@@__crt_stdio_output@@CAPEA_WXZ 00000001800432a4 f i libucrt:output.obj
 0001:000422ac       ?wide_null_string@?$output_processor@_WV?$string_output_adapter@_W@__crt_stdio_output@@V?$standard_base@_WV?$string_output_adapter@_W@__crt_stdio_output@@@2@@__crt_stdio_output@@CAPEA_WXZ 00000001800432ac f i libucrt:output.obj
 0001:000422b4       ?write_character@?$output_adapter_common@DV?$stream_output_adapter@D@__crt_stdio_output@@@__crt_stdio_output@@QEBAXDQEAHAEAV__crt_cached_ptd_host@@@Z 00000001800432b4 f i libucrt:output.obj
 0001:00042300       ?write_character@?$output_adapter_common@_WV?$stream_output_adapter@_W@__crt_stdio_output@@@__crt_stdio_output@@QEBAX_WQEAHAEAV__crt_cached_ptd_host@@@Z 0000000180043300 f i libucrt:output.obj
 0001:00042350       ?write_character@?$string_output_adapter@D@__crt_stdio_output@@QEBA_NDQEAHAEAV__crt_cached_ptd_host@@@Z 0000000180043350 f i libucrt:output.obj
 0001:00042398       ?write_character@?$string_output_adapter@_W@__crt_stdio_output@@QEBA_N_WQEAHAEAV__crt_cached_ptd_host@@@Z 0000000180043398 f i libucrt:output.obj
 0001:000423e0       ?write_character_without_count_update@?$stream_output_adapter@D@__crt_stdio_output@@QEBA_NDAEAV__crt_cached_ptd_host@@@Z 00000001800433e0 f i libucrt:output.obj
 0001:00042420       ?write_character_without_count_update@?$stream_output_adapter@_W@__crt_stdio_output@@QEBA_N_WAEAV__crt_cached_ptd_host@@@Z 0000000180043420 f i libucrt:output.obj
 0001:00042464       ?write_stored_string_tchar@?$output_processor@DV?$stream_output_adapter@D@__crt_stdio_output@@V?$format_validation_base@DV?$stream_output_adapter@D@__crt_stdio_output@@@2@@__crt_stdio_output@@AEAA_ND@Z 0000000180043464 f i libucrt:output.obj
 0001:00042598       ?write_stored_string_tchar@?$output_processor@DV?$stream_output_adapter@D@__crt_stdio_output@@V?$positional_parameter_base@DV?$stream_output_adapter@D@__crt_stdio_output@@@2@@__crt_stdio_output@@AEAA_ND@Z 0000000180043598 f i libucrt:output.obj
 0001:000426cc       ?write_stored_string_tchar@?$output_processor@DV?$stream_output_adapter@D@__crt_stdio_output@@V?$standard_base@DV?$stream_output_adapter@D@__crt_stdio_output@@@2@@__crt_stdio_output@@AEAA_ND@Z 00000001800436cc f i libucrt:output.obj
 0001:00042800       ?write_stored_string_tchar@?$output_processor@DV?$string_output_adapter@D@__crt_stdio_output@@V?$format_validation_base@DV?$string_output_adapter@D@__crt_stdio_output@@@2@@__crt_stdio_output@@AEAA_ND@Z 0000000180043800 f i libucrt:output.obj
 0001:000428e8       ?write_stored_string_tchar@?$output_processor@DV?$string_output_adapter@D@__crt_stdio_output@@V?$positional_parameter_base@DV?$string_output_adapter@D@__crt_stdio_output@@@2@@__crt_stdio_output@@AEAA_ND@Z 00000001800438e8 f i libucrt:output.obj
 0001:000429d0       ?write_stored_string_tchar@?$output_processor@DV?$string_output_adapter@D@__crt_stdio_output@@V?$standard_base@DV?$string_output_adapter@D@__crt_stdio_output@@@2@@__crt_stdio_output@@AEAA_ND@Z 00000001800439d0 f i libucrt:output.obj
 0001:00042ab8       ?write_stored_string_tchar@?$output_processor@_WV?$stream_output_adapter@_W@__crt_stdio_output@@V?$format_validation_base@_WV?$stream_output_adapter@_W@__crt_stdio_output@@@2@@__crt_stdio_output@@AEAA_N_W@Z 0000000180043ab8 f i libucrt:output.obj
 0001:00042bec       ?write_stored_string_tchar@?$output_processor@_WV?$stream_output_adapter@_W@__crt_stdio_output@@V?$positional_parameter_base@_WV?$stream_output_adapter@_W@__crt_stdio_output@@@2@@__crt_stdio_output@@AEAA_N_W@Z 0000000180043bec f i libucrt:output.obj
 0001:00042d20       ?write_stored_string_tchar@?$output_processor@_WV?$stream_output_adapter@_W@__crt_stdio_output@@V?$standard_base@_WV?$stream_output_adapter@_W@__crt_stdio_output@@@2@@__crt_stdio_output@@AEAA_N_W@Z 0000000180043d20 f i libucrt:output.obj
 0001:00042e54       ?write_stored_string_tchar@?$output_processor@_WV?$string_output_adapter@_W@__crt_stdio_output@@V?$format_validation_base@_WV?$string_output_adapter@_W@__crt_stdio_output@@@2@@__crt_stdio_output@@AEAA_N_W@Z 0000000180043e54 f i libucrt:output.obj
 0001:00042f68       ?write_stored_string_tchar@?$output_processor@_WV?$string_output_adapter@_W@__crt_stdio_output@@V?$positional_parameter_base@_WV?$string_output_adapter@_W@__crt_stdio_output@@@2@@__crt_stdio_output@@AEAA_N_W@Z 0000000180043f68 f i libucrt:output.obj
 0001:0004307c       ?write_stored_string_tchar@?$output_processor@_WV?$string_output_adapter@_W@__crt_stdio_output@@V?$standard_base@_WV?$string_output_adapter@_W@__crt_stdio_output@@@2@@__crt_stdio_output@@AEAA_N_W@Z 000000018004407c f i libucrt:output.obj
 0001:00043190       ?write_string@?$stream_output_adapter@D@__crt_stdio_output@@QEBAXQEBDHQEAHAEAV__crt_cached_ptd_host@@@Z 0000000180044190 f i libucrt:output.obj
 0001:000431b8       ?write_string@?$stream_output_adapter@_W@__crt_stdio_output@@QEBAXQEB_WHQEAHAEAV__crt_cached_ptd_host@@@Z 00000001800441b8 f i libucrt:output.obj
 0001:000431e0       ?write_string@?$string_output_adapter@D@__crt_stdio_output@@QEBAXQEBDHQEAHAEAV__crt_cached_ptd_host@@@Z 00000001800441e0 f i libucrt:output.obj
 0001:00043284       ?write_string@?$string_output_adapter@_W@__crt_stdio_output@@QEBAXQEB_WHQEAHAEAV__crt_cached_ptd_host@@@Z 0000000180044284 f i libucrt:output.obj
 0001:0004332c       ?write_string_impl@?$output_adapter_common@DV?$stream_output_adapter@D@__crt_stdio_output@@@__crt_stdio_output@@IEBAXQEBDHQEAHAEAV__crt_cached_ptd_host@@@Z 000000018004432c f i libucrt:output.obj
 0001:000433f8       ?write_string_impl@?$output_adapter_common@_WV?$stream_output_adapter@_W@__crt_stdio_output@@@__crt_stdio_output@@IEBAXQEB_WHQEAHAEAV__crt_cached_ptd_host@@@Z 00000001800443f8 f i libucrt:output.obj
 0001:000434d8       __acrt_disable_global_locale_sync 00000001800444d8 f i libucrt:output.obj
 0001:000434e0       __acrt_isleadbyte_l_noupdate 00000001800444e0 f i libucrt:output.obj
 0001:00043504       __acrt_locale_get_ctype_array_value 0000000180044504 f i libucrt:output.obj
 0001:0004351c       __ascii_iswalpha           000000018004451c f i libucrt:output.obj
 0001:00043538       __ascii_toupper            0000000180044538 f i libucrt:output.obj
 0001:00043548       __ascii_towupper           0000000180044548 f i libucrt:output.obj
 0001:00043558       __stdio_common_vfprintf    0000000180044558 f   libucrt:output.obj
 0001:0004367c       __stdio_common_vfprintf_p  000000018004467c f   libucrt:output.obj
 0001:000437a0       __stdio_common_vfprintf_s  00000001800447a0 f   libucrt:output.obj
 0001:000438c4       __stdio_common_vfwprintf   00000001800448c4 f   libucrt:output.obj
 0001:000439e8       __stdio_common_vfwprintf_p 00000001800449e8 f   libucrt:output.obj
 0001:00043b0c       __stdio_common_vfwprintf_s 0000000180044b0c f   libucrt:output.obj
 0001:00043c30       __stdio_common_vsnprintf_s 0000000180044c30 f   libucrt:output.obj
 0001:00043e08       __stdio_common_vsnwprintf_s 0000000180044e08 f   libucrt:output.obj
 0001:00043fe4       __stdio_common_vsprintf    0000000180044fe4 f   libucrt:output.obj
 0001:00044238       __stdio_common_vsprintf_p  0000000180045238 f   libucrt:output.obj
 0001:000442f0       __stdio_common_vsprintf_s  00000001800452f0 f   libucrt:output.obj
 0001:00044404       __stdio_common_vswprintf   0000000180045404 f   libucrt:output.obj
 0001:00044660       __stdio_common_vswprintf_p 0000000180045660 f   libucrt:output.obj
 0001:00044718       __stdio_common_vswprintf_s 0000000180045718 f   libucrt:output.obj
 0001:0004482c       _ctype_fast_check_internal 000000018004582c f i libucrt:output.obj
 0001:00044840       _isdigit_fast_internal     0000000180045840 f i libucrt:output.obj
 0001:00044854       _tolower_fast_internal     0000000180045854 f i libucrt:output.obj
 0001:00044868       wmemcpy                    0000000180045868 f i libucrt:wmemcpy_s.obj
 0001:00044870       wmemcpy_s                  0000000180045870 f   libucrt:wmemcpy_s.obj
 0001:000448ec       wmemset                    00000001800458ec f i libucrt:wmemcpy_s.obj
 0001:00044910       ??0?$__crt_scoped_stack_ptr@_W@@QEAA@U?$__crt_scoped_stack_ptr_tag@_W@@@Z 0000000180045910 f i libucrt:wcsupr.obj
 0001:00044918       ??0?$__crt_scoped_stack_ptr_tag@_W@@QEAA@QEA_W@Z 0000000180045918 f i libucrt:wcsupr.obj
 0001:00044920       ??0_LocaleUpdate@@QEAA@QEAU__crt_locale_pointers@@@Z 0000000180045920 f i libucrt:wcsupr.obj
 0001:000449bc       ??1?$__crt_scoped_stack_ptr@_W@@QEAA@XZ 00000001800459bc f i libucrt:wcsupr.obj
 0001:000449e0       ??1_LocaleUpdate@@QEAA@XZ  00000001800459e0 f i libucrt:wcsupr.obj
 0001:000449f4       ?GetLocaleT@_LocaleUpdate@@QEAAPEAU__crt_locale_pointers@@XZ 00000001800459f4 f i libucrt:wcsupr.obj
 0001:00044bf4       ?get@?$__crt_scoped_stack_ptr@_W@@QEBAPEA_WXZ 0000000180045bf4 f i libucrt:wcsupr.obj
 0001:00044bf8       _MallocaComputeSize        0000000180045bf8 f i libucrt:wcsupr.obj
 0001:00044c08       _MarkAllocaS               0000000180045c08 f i libucrt:wcsupr.obj
 0001:00044c18       _freea_crt                 0000000180045c18 f i libucrt:wcsupr.obj
 0001:00044c38       _wcsupr                    0000000180045c38 f   libucrt:wcsupr.obj
 0001:00044ca0       _wcsupr_l                  0000000180045ca0 f   libucrt:wcsupr.obj
 0001:00044cc0       _wcsupr_s                  0000000180045cc0 f   libucrt:wcsupr.obj
 0001:00044cc8       _wcsupr_s_l                0000000180045cc8 f   libucrt:wcsupr.obj
 0001:00044d14       free                       0000000180045d14 f   libucrt:free.obj
 0001:00044d28       malloc                     0000000180045d28 f   libucrt:malloc.obj
 0001:00044d30       realloc                    0000000180045d30 f   libucrt:realloc.obj
 0001:00044d38       ??$?B$$A6AXPEAXK0@Z@__crt_fast_encoded_nullptr_t@@QEBAP6AXPEAXK0@ZXZ 0000000180045d38 f i libucrt:exit.obj
 0001:00044da8       ??$__crt_fast_decode_pointer@P6AXPEAXK0@Z@@YAP6AXPEAXK0@ZQ6AX0K0@Z@Z 0000000180045da8 f i libucrt:exit.obj
 0001:00044dc0       ??$__crt_fast_encode_pointer@P6AXPEAXK0@Z@@YAP6AXPEAXK0@ZQ6AX0K0@Z@Z 0000000180045dc0 f i libucrt:exit.obj
 0001:00044de0       ??$__crt_get_proc_address@P6AXI@Z@@YAP6AXI@ZQEAUHINSTANCE__@@QEBD@Z 0000000180045de0 f i libucrt:exit.obj
 0001:00044e08       ??0?$__crt_unique_handle_t@U__crt_hmodule_traits@@@@QEAA@QEAUHINSTANCE__@@@Z 0000000180045e08 f i libucrt:exit.obj
 0001:00044e10       ??1?$__crt_unique_handle_t@U__crt_hmodule_traits@@@@QEAA@XZ 0000000180045e10 f i libucrt:exit.obj
 0001:00044f10       ?__acrt_select_exit_lock@@YA?AW4__acrt_lock_id@@XZ 0000000180045f10 f i libucrt:exit.obj
 0001:00044f18       ?__crt_fast_encode_pointer@@YA?AU__crt_fast_encoded_nullptr_t@@$$T@Z 0000000180045f18 f i libucrt:exit.obj
 0001:00044f2c       ?close@?$__crt_unique_handle_t@U__crt_hmodule_traits@@@@QEAAXXZ 0000000180045f2c f i libucrt:exit.obj
 0001:00044f50       ?close@__crt_hmodule_traits@@SA_NPEAUHINSTANCE__@@@Z 0000000180045f50 f i libucrt:exit.obj
 0001:00045060       ?get@?$__crt_unique_handle_t@U__crt_hmodule_traits@@@@QEBAPEAUHINSTANCE__@@XZ 0000000180046060 f i libucrt:exit.obj
 0001:00045064       ?get_address_of@?$__crt_unique_handle_t@U__crt_hmodule_traits@@@@QEAAPEAPEAUHINSTANCE__@@XZ 0000000180046064 f i libucrt:exit.obj
 0001:00045068       ?get_invalid_value@__crt_hmodule_traits@@SAPEAUHINSTANCE__@@XZ 0000000180046068 f i libucrt:exit.obj
 0001:00045154       _Exit                      0000000180046154 f   libucrt:exit.obj
 0001:00045160       __acrt_initialize_thread_local_exit_callback 0000000180046160 f   libucrt:exit.obj
 0001:00045168       _c_exit                    0000000180046168 f   libucrt:exit.obj
 0001:00045178       _cexit                     0000000180046178 f   libucrt:exit.obj
 0001:00045188       _exit                      0000000180046188 f   libucrt:exit.obj
 0001:00045194       _is_c_termination_complete 0000000180046194 f   libucrt:exit.obj
 0001:0004519c       _register_thread_local_exe_atexit_callback 000000018004619c f   libucrt:exit.obj
 0001:000451dc       exit                       00000001800461dc f   libucrt:exit.obj
 0001:000451e8       quick_exit                 00000001800461e8 f   libucrt:exit.obj
 0001:000451f4       _set_abort_behavior        00000001800461f4 f   libucrt:abort.obj
 0001:00045210       abort                      0000000180046210 f   libucrt:abort.obj
 0001:00045268       __iswcsym                  0000000180046268 f i libucrt:_wctype.obj
 0001:00045294       __iswcsymf                 0000000180046294 f i libucrt:_wctype.obj
 0001:000452c0       _isleadbyte_l              00000001800462c0 f i libucrt:_wctype.obj
 0001:0004530c       _iswalnum_l                000000018004630c f i libucrt:_wctype.obj
 0001:00045318       _iswalpha_l                0000000180046318 f i libucrt:_wctype.obj
 0001:00045324       _iswblank_l                0000000180046324 f i libucrt:_wctype.obj
 0001:0004533c       _iswcntrl_l                000000018004633c f i libucrt:_wctype.obj
 0001:00045348       _iswcsym_l                 0000000180046348 f i libucrt:_wctype.obj
 0001:00045374       _iswcsymf_l                0000000180046374 f i libucrt:_wctype.obj
 0001:000453a0       _iswdigit_l                00000001800463a0 f i libucrt:_wctype.obj
 0001:000453ac       _iswgraph_l                00000001800463ac f i libucrt:_wctype.obj
 0001:000453b8       _iswlower_l                00000001800463b8 f i libucrt:_wctype.obj
 0001:000453c4       _iswprint_l                00000001800463c4 f i libucrt:_wctype.obj
 0001:000453d0       _iswpunct_l                00000001800463d0 f i libucrt:_wctype.obj
 0001:000453dc       _iswspace_l                00000001800463dc f i libucrt:_wctype.obj
 0001:000453e8       _iswupper_l                00000001800463e8 f i libucrt:_wctype.obj
 0001:000453f4       _iswxdigit_l               00000001800463f4 f i libucrt:_wctype.obj
 0001:00045400       isleadbyte                 0000000180046400 f i libucrt:_wctype.obj
 0001:00045450       iswalnum                   0000000180046450 f i libucrt:_wctype.obj
 0001:0004545c       iswalpha                   000000018004645c f i libucrt:_wctype.obj
 0001:00045468       iswascii                   0000000180046468 f i libucrt:_wctype.obj
 0001:00045478       iswblank                   0000000180046478 f i libucrt:_wctype.obj
 0001:00045490       iswcntrl                   0000000180046490 f i libucrt:_wctype.obj
 0001:0004549c       iswdigit                   000000018004649c f i libucrt:_wctype.obj
 0001:000454a8       iswgraph                   00000001800464a8 f i libucrt:_wctype.obj
 0001:000454b4       iswlower                   00000001800464b4 f i libucrt:_wctype.obj
 0001:000454c0       iswprint                   00000001800464c0 f i libucrt:_wctype.obj
 0001:000454cc       iswpunct                   00000001800464cc f i libucrt:_wctype.obj
 0001:000454d8       iswspace                   00000001800464d8 f i libucrt:_wctype.obj
 0001:000454e4       iswupper                   00000001800464e4 f i libucrt:_wctype.obj
 0001:000454f0       iswxdigit                  00000001800464f0 f i libucrt:_wctype.obj
 0001:000454fc       wcscmp                     00000001800464fc f   libucrt:wcscmp.obj
 0001:00045534       ??B?$__crt_scoped_stack_ptr@_W@@QEBA_NXZ 0000000180046534 f i libucrt:wcslwr.obj
 0001:00045734       _wcslwr                    0000000180046734 f   libucrt:wcslwr.obj
 0001:0004579c       _wcslwr_l                  000000018004679c f   libucrt:wcslwr.obj
 0001:000457bc       _wcslwr_s                  00000001800467bc f   libucrt:wcslwr.obj
 0001:000457c4       _wcslwr_s_l                00000001800467c4 f   libucrt:wcslwr.obj
 0001:00045810       _wremove                   0000000180046810 f   libucrt:wunlink.obj
 0001:00045838       _wunlink                   0000000180046838 f   libucrt:wunlink.obj
 0001:00045840       ??$?RPEAU__crt_stdio_stream_data@@@__crt_internal_free_policy@@QEBAXQEBQEAU__crt_stdio_stream_data@@@Z 0000000180046840 f i libucrt:_file.obj
 0001:00045848       ??0?$__crt_unique_heap_ptr@PEAU__crt_stdio_stream_data@@U__crt_internal_free_policy@@@@QEAA@QEAPEAU__crt_stdio_stream_data@@@Z 0000000180046848 f i libucrt:_file.obj
 0001:00045850       ??1?$__crt_unique_heap_ptr@PEAU__crt_stdio_stream_data@@U__crt_internal_free_policy@@@@QEAA@XZ 0000000180046850 f i libucrt:_file.obj
 0001:0004586c       ?detach@?$__crt_unique_heap_ptr@PEAU__crt_stdio_stream_data@@U__crt_internal_free_policy@@@@QEAAPEAPEAU__crt_stdio_stream_data@@XZ 000000018004686c f i libucrt:_file.obj
 0001:00045874       ?release@?$__crt_unique_heap_ptr@PEAU__crt_stdio_stream_data@@U__crt_internal_free_policy@@@@QEAAXXZ 0000000180046874 f i libucrt:_file.obj
 0001:00045890       __acrt_initialize_stdio    0000000180046890 f   libucrt:_file.obj
 0001:000459b0       __acrt_iob_func            00000001800469b0 f   libucrt:_file.obj
 0001:000459c4       __acrt_uninitialize_stdio  00000001800469c4 f   libucrt:_file.obj
 0001:00045a20       _get_stream_buffer_pointers 0000000180046a20 f   libucrt:_file.obj
 0001:00045a68       _lock_file                 0000000180046a68 f   libucrt:_file.obj
 0001:00045a74       _unlock_file               0000000180046a74 f   libucrt:_file.obj
 0001:00045c30       fputws                     0000000180046c30 f   libucrt:fputws.obj
 0001:00045f60       ??$open_file@AEBQEBDAEBQEBDAEBHPEAU_iobuf@@@?$__crt_char_traits@D@@SAPEAU_iobuf@@AEBQEBD0AEBH$$QEAPEAU1@@Z 0000000180046f60 f i libucrt:fopen.obj
 0001:00045f74       ??$open_file@AEBQEB_WAEBQEB_WAEBHPEAU_iobuf@@@?$__crt_char_traits@_W@@SAPEAU_iobuf@@AEBQEB_W0AEBH$$QEAPEAU1@@Z 0000000180046f74 f i libucrt:fopen.obj
 0001:00045f88       ?unlock@__crt_stdio_stream@@QEBAXXZ 0000000180046f88 f i libucrt:fopen.obj
 0001:00045f90       _fsopen                    0000000180046f90 f   libucrt:fopen.obj
 0001:00045f98       _wfopen                    0000000180046f98 f   libucrt:fopen.obj
 0001:00045fa4       _wfopen_s                  0000000180046fa4 f   libucrt:fopen.obj
 0001:00045ffc       _wfsopen                   0000000180046ffc f   libucrt:fopen.obj
 0001:00046004       fopen                      0000000180047004 f   libucrt:fopen.obj
 0001:00046010       fopen_s                    0000000180047010 f   libucrt:fopen.obj
 0001:00046068       ??$?R_W@__crt_internal_free_policy@@QEBAXQEB_W@Z 0000000180047068 f i libucrt:wcsftime.obj
 0001:00046070       ??$__crt_time_is_leap_year@H@@YA_NH@Z 0000000180047070 f i libucrt:wcsftime.obj
 0001:000460cc       ??0?$__crt_unique_heap_ptr@_WU__crt_internal_free_policy@@@@QEAA@QEA_W@Z 00000001800470cc f i libucrt:wcsftime.obj
 0001:000460d4       ??1?$__crt_unique_heap_ptr@_WU__crt_internal_free_policy@@@@QEAA@XZ 00000001800470d4 f i libucrt:wcsftime.obj
 0001:000460f0       ?__crt_get_2digit_year@@YAHH@Z 00000001800470f0 f i libucrt:wcsftime.obj
 0001:00046114       ?__crt_get_century@@YAHH@Z 0000000180047114 f i libucrt:wcsftime.obj
 0001:000462e8       ?detach@?$__crt_unique_heap_ptr@_WU__crt_internal_free_policy@@@@QEAAPEA_WXZ 00000001800472e8 f i libucrt:wcsftime.obj
 0001:000471dc       ?get@?$__crt_unique_heap_ptr@_WU__crt_internal_free_policy@@@@QEBAPEA_WXZ 00000001800481dc f i libucrt:wcsftime.obj
 0001:000471e0       ?release@?$__crt_unique_heap_ptr@_WU__crt_internal_free_policy@@@@QEAAXXZ 00000001800481e0 f i libucrt:wcsftime.obj
 0001:00047930       _W_Getdays                 0000000180048930 f   libucrt:wcsftime.obj
 0001:00047abc       _W_Getmonths               0000000180048abc f   libucrt:wcsftime.obj
 0001:00047c48       _W_Gettnames               0000000180048c48 f   libucrt:wcsftime.obj
 0001:000482f4       _Wcsftime                  00000001800492f4 f   libucrt:wcsftime.obj
 0001:00048314       _Wcsftime_l                0000000180049314 f   libucrt:wcsftime.obj
 0001:000484a0       _invoke_watson_if_error    00000001800494a0 f i libucrt:wcsftime.obj
 0001:000484d4       _wcsftime_l                00000001800494d4 f   libucrt:wcsftime.obj
 0001:000484f4       wcsftime                   00000001800494f4 f   libucrt:wcsftime.obj
 0001:00048634       ?is_in_use@__crt_stdio_stream@@QEBA_NXZ 0000000180049634 f i libucrt:fclose.obj
 0001:00048644       _fclose_nolock             0000000180049644 f   libucrt:fclose.obj
 0001:000486dc       fclose                     00000001800496dc f   libucrt:fclose.obj
 0001:000489e4       fputs                      00000001800499e4 f   libucrt:fputs.obj
 0001:00048b8c       ??$?RU__acrt_thread_parameter@@@__crt_internal_free_policy@@QEBAXQEBU__acrt_thread_parameter@@@Z 0000000180049b8c f i libucrt:thread.obj
 0001:00048c74       ??0?$__crt_unique_heap_ptr@U__acrt_thread_parameter@@U__crt_internal_free_policy@@@@QEAA@QEAU__acrt_thread_parameter@@@Z 0000000180049c74 f i libucrt:thread.obj
 0001:00048c84       ??1?$__crt_unique_heap_ptr@U__acrt_thread_parameter@@U__crt_internal_free_policy@@@@QEAA@XZ 0000000180049c84 f i libucrt:thread.obj
 0001:00048df8       ?detach@?$__crt_unique_heap_ptr@U__acrt_thread_parameter@@U__crt_internal_free_policy@@@@QEAAPEAU__acrt_thread_parameter@@XZ 0000000180049df8 f i libucrt:thread.obj
 0001:00048e14       ?release@?$__crt_unique_heap_ptr@U__acrt_thread_parameter@@U__crt_internal_free_policy@@@@QEAAXXZ 0000000180049e14 f i libucrt:thread.obj
 0001:00048e7c       _beginthread               0000000180049e7c f   libucrt:thread.obj
 0001:00048f44       _beginthreadex             0000000180049f44 f   libucrt:thread.obj
 0001:00049020       _endthread                 000000018004a020 f   libucrt:thread.obj
 0001:0004902c       _endthreadex               000000018004a02c f   libucrt:thread.obj
 0001:00049038       ??$?B$$A6AXH@Z@__crt_fast_encoded_nullptr_t@@QEBAP6AXH@ZXZ 000000018004a038 f i libucrt:signal.obj
 0001:000490b0       ??$__crt_fast_decode_pointer@P6AXH@Z@@YAP6AXH@ZQ6AXH@Z@Z 000000018004a0b0 f i libucrt:signal.obj
 0001:000490c8       ??$__crt_fast_encode_pointer@P6AXH@Z@@YAP6AXH@ZQ6AXH@Z@Z 000000018004a0c8 f i libucrt:signal.obj
 0001:000491fc       ?initialize@?$dual_state_global@P6AXH@Z@__crt_state_management@@QEAAXQ6AXH@Z@Z 000000018004a1fc f i libucrt:signal.obj
 0001:0004928c       ?value@?$dual_state_global@P6AXH@Z@__crt_state_management@@QEAAAEAP6AXH@ZXZ 000000018004a28c f i libucrt:signal.obj
 0001:00049290       __acrt_get_sigabrt_handler 000000018004a290 f   libucrt:signal.obj
 0001:000492c0       __acrt_initialize_signal_handlers 000000018004a2c0 f   libucrt:signal.obj
 0001:000492e0       __fpecode                  000000018004a2e0 f   libucrt:signal.obj
 0001:000492f4       __pxcptinfoptrs            000000018004a2f4 f   libucrt:signal.obj
 0001:00049308       raise                      000000018004a308 f   libucrt:signal.obj
 0001:00049584       signal                     000000018004a584 f   libucrt:signal.obj
 0001:00049d98       ??$gmtime_s@AEBQEAUtm@@AEBQEBJ@?$__crt_integer_traits@J@@SAHAEBQEAUtm@@AEBQEBJ@Z 000000018004ad98 f i libucrt:localtime.obj
 0001:00049da4       ??$gmtime_s@AEBQEAUtm@@AEBQEB_J@?$__crt_integer_traits@_J@@SAHAEBQEAUtm@@AEBQEB_J@Z 000000018004ada4 f i libucrt:localtime.obj
 0001:00049db0       ??$gmtime_s@AEBQEAUtm@@PEAJ@?$__crt_integer_traits@J@@SAHAEBQEAUtm@@$$QEAPEAJ@Z 000000018004adb0 f i libucrt:localtime.obj
 0001:00049dbc       ??$gmtime_s@AEBQEAUtm@@PEA_J@?$__crt_integer_traits@_J@@SAHAEBQEAUtm@@$$QEAPEA_J@Z 000000018004adbc f i libucrt:localtime.obj
 0001:00049dc8       ??$localtime_s@AEBQEAUtm@@AEBQEBJ@?$__crt_integer_traits@J@@SAHAEBQEAUtm@@AEBQEBJ@Z 000000018004adc8 f i libucrt:localtime.obj
 0001:00049dd4       ??$localtime_s@AEBQEAUtm@@AEBQEB_J@?$__crt_integer_traits@_J@@SAHAEBQEAUtm@@AEBQEB_J@Z 000000018004add4 f i libucrt:localtime.obj
 0001:00049de0       _localtime32               000000018004ade0 f   libucrt:localtime.obj
 0001:00049e28       _localtime32_s             000000018004ae28 f   libucrt:localtime.obj
 0001:00049e30       _localtime64               000000018004ae30 f   libucrt:localtime.obj
 0001:00049e78       _localtime64_s             000000018004ae78 f   libucrt:localtime.obj
 0001:0004a1c0       _time32                    000000018004b1c0 f   libucrt:time.obj
 0001:0004a238       _time64                    000000018004b238 f   libucrt:time.obj
 0001:0004a2ac       _timespec32_get            000000018004b2ac f   libucrt:time.obj
 0001:0004a344       _timespec64_get            000000018004b344 f   libucrt:time.obj
 0001:0004a3f4       _get_terminate             000000018004b3f4 f   libucrt:terminate.obj
 0001:0004a418       set_terminate              000000018004b418 f   libucrt:terminate.obj
 0001:0004a444       terminate                  000000018004b444 f   libucrt:terminate.obj
 0001:0004a470       _recalloc                  000000018004b470 f   libucrt:recalloc.obj
 0001:0004a478       _recalloc_base             000000018004b478 f   libucrt:recalloc.obj
 0001:0004a510       ??$?B$$A6AH_K@Z@__crt_fast_encoded_nullptr_t@@QEBAP6AH_K@ZXZ 000000018004b510 f i libucrt:new_handler.obj
 0001:0004a518       ??$__crt_fast_decode_pointer@P6AH_K@Z@@YAP6AH_K@ZQ6AH0@Z@Z 000000018004b518 f i libucrt:new_handler.obj
 0001:0004a530       ??$__crt_fast_encode_pointer@P6AH_K@Z@@YAP6AH_K@ZQ6AH0@Z@Z 000000018004b530 f i libucrt:new_handler.obj
 0001:0004a550       ?_set_new_handler@@YAP6AH_K@ZH@Z 000000018004b550 f   libucrt:new_handler.obj
 0001:0004a55c       ?initialize@?$dual_state_global@P6AH_K@Z@__crt_state_management@@QEAAXQ6AH_K@Z@Z 000000018004b55c f i libucrt:new_handler.obj
 0001:0004a56c       ?value@?$dual_state_global@P6AH_K@Z@__crt_state_management@@QEAAAEAP6AH_K@ZXZ 000000018004b56c f i libucrt:new_handler.obj
 0001:0004a570       __acrt_initialize_new_handler 000000018004b570 f   libucrt:new_handler.obj
 0001:0004a578       _callnewh                  000000018004b578 f   libucrt:new_handler.obj
 0001:0004a5b8       _query_new_handler         000000018004b5b8 f   libucrt:new_handler.obj
 0001:0004a5f0       _set_new_handler           000000018004b5f0 f   libucrt:new_handler.obj
 0001:0004a66c       _seh_filter_dll            000000018004b66c f   libucrt:exception_filter.obj
 0001:0004a680       _seh_filter_exe            000000018004b680 f   libucrt:exception_filter.obj
 0001:0004a804       ??$?RE@__crt_internal_free_policy@@QEBAXQEBE@Z 000000018004b804 f i libucrt:argv_parsing.obj
 0001:0004a80c       ??$?RPEAD@__crt_internal_free_policy@@QEBAXQEBQEAD@Z 000000018004b80c f i libucrt:argv_parsing.obj
 0001:0004a814       ??$?RPEA_W@__crt_internal_free_policy@@QEBAXQEBQEA_W@Z 000000018004b814 f i libucrt:argv_parsing.obj
 0001:0004ab10       ??$get_module_file_name@$$TAEAY0BAF@DH@?$__crt_char_traits@D@@SAK$$QEA$$TAEAY0BAF@D$$QEAH@Z 000000018004bb10 f i libucrt:argv_parsing.obj
 0001:0004ab1c       ??$get_module_file_name@$$TAEAY0BAF@_WH@?$__crt_char_traits@_W@@SAK$$QEA$$TAEAY0BAF@_W$$QEAH@Z 000000018004bb1c f i libucrt:argv_parsing.obj
 0001:0004ae98       ??$set_program_name@PEAD@?$__crt_char_traits@D@@SAX$$QEAPEAD@Z 000000018004be98 f i libucrt:argv_parsing.obj
 0001:0004aea4       ??$set_program_name@PEA_W@?$__crt_char_traits@_W@@SAX$$QEAPEA_W@Z 000000018004bea4 f i libucrt:argv_parsing.obj
 0001:0004aec0       ??0?$__crt_unique_heap_ptr@EU__crt_internal_free_policy@@@@QEAA@QEAE@Z 000000018004bec0 f i libucrt:argv_parsing.obj
 0001:0004aec8       ??0?$__crt_unique_heap_ptr@PEADU__crt_internal_free_policy@@@@QEAA@QEAPEAD@Z 000000018004bec8 f i libucrt:argv_parsing.obj
 0001:0004aed0       ??0?$__crt_unique_heap_ptr@PEA_WU__crt_internal_free_policy@@@@QEAA@QEAPEA_W@Z 000000018004bed0 f i libucrt:argv_parsing.obj
 0001:0004aed8       ??1?$__crt_unique_heap_ptr@EU__crt_internal_free_policy@@@@QEAA@XZ 000000018004bed8 f i libucrt:argv_parsing.obj
 0001:0004aef4       ??1?$__crt_unique_heap_ptr@PEADU__crt_internal_free_policy@@@@QEAA@XZ 000000018004bef4 f i libucrt:argv_parsing.obj
 0001:0004af10       ??1?$__crt_unique_heap_ptr@PEA_WU__crt_internal_free_policy@@@@QEAA@XZ 000000018004bf10 f i libucrt:argv_parsing.obj
 0001:0004af2c       ??B?$__crt_unique_heap_ptr@EU__crt_internal_free_policy@@@@QEBA_NXZ 000000018004bf2c f i libucrt:argv_parsing.obj
 0001:0004af6c       ?detach@?$__crt_unique_heap_ptr@EU__crt_internal_free_policy@@@@QEAAPEAEXZ 000000018004bf6c f i libucrt:argv_parsing.obj
 0001:0004af74       ?detach@?$__crt_unique_heap_ptr@PEADU__crt_internal_free_policy@@@@QEAAPEAPEADXZ 000000018004bf74 f i libucrt:argv_parsing.obj
 0001:0004af7c       ?detach@?$__crt_unique_heap_ptr@PEA_WU__crt_internal_free_policy@@@@QEAAPEAPEA_WXZ 000000018004bf7c f i libucrt:argv_parsing.obj
 0001:0004afa0       ?get@?$__crt_unique_heap_ptr@EU__crt_internal_free_policy@@@@QEBAPEAEXZ 000000018004bfa0 f i libucrt:argv_parsing.obj
 0001:0004afa4       ?get@?$__crt_unique_heap_ptr@PEADU__crt_internal_free_policy@@@@QEBAPEAPEADXZ 000000018004bfa4 f i libucrt:argv_parsing.obj
 0001:0004afa8       ?get@?$__crt_unique_heap_ptr@PEA_WU__crt_internal_free_policy@@@@QEBAPEAPEA_WXZ 000000018004bfa8 f i libucrt:argv_parsing.obj
 0001:0004afac       ?get_address_of@?$__crt_unique_heap_ptr@PEADU__crt_internal_free_policy@@@@QEAAPEAPEAPEADXZ 000000018004bfac f i libucrt:argv_parsing.obj
 0001:0004afb0       ?get_address_of@?$__crt_unique_heap_ptr@PEA_WU__crt_internal_free_policy@@@@QEAAPEAPEAPEA_WXZ 000000018004bfb0 f i libucrt:argv_parsing.obj
 0001:0004afd4       ?is_valid@?$__crt_unique_heap_ptr@EU__crt_internal_free_policy@@@@QEBA_NXZ 000000018004bfd4 f i libucrt:argv_parsing.obj
 0001:0004afdc       ?release@?$__crt_unique_heap_ptr@EU__crt_internal_free_policy@@@@QEAAXXZ 000000018004bfdc f i libucrt:argv_parsing.obj
 0001:0004aff8       ?release@?$__crt_unique_heap_ptr@PEADU__crt_internal_free_policy@@@@QEAAXXZ 000000018004bff8 f i libucrt:argv_parsing.obj
 0001:0004b014       ?release@?$__crt_unique_heap_ptr@PEA_WU__crt_internal_free_policy@@@@QEAAXXZ 000000018004c014 f i libucrt:argv_parsing.obj
 0001:0004b04c       __acrt_allocate_buffer_for_argv 000000018004c04c f   libucrt:argv_parsing.obj
 0001:0004b0ac       _configure_narrow_argv     000000018004c0ac f   libucrt:argv_parsing.obj
 0001:0004b234       _configure_wide_argv       000000018004c234 f   libucrt:argv_parsing.obj
 0001:0004b3b8       _set_pgmptr                000000018004c3b8 f i libucrt:argv_parsing.obj
 0001:0004b3c0       _set_wpgmptr               000000018004c3c0 f i libucrt:argv_parsing.obj
 0001:0004b8e8       ??$get_environment_from_os@$$V@?$__crt_char_traits@D@@SAPEADXZ 000000018004c8e8 f i libucrt:environment_initialization.obj
 0001:0004b8f0       ??$get_environment_from_os@$$V@?$__crt_char_traits@_W@@SAPEA_WXZ 000000018004c8f0 f i libucrt:environment_initialization.obj
 0001:0004ba94       ??$set_variable_in_environment_nolock@PEADH@?$__crt_char_traits@D@@SAH$$QEAPEAD$$QEAH@Z 000000018004ca94 f i libucrt:environment_initialization.obj
 0001:0004baa0       ??$set_variable_in_environment_nolock@PEA_WH@?$__crt_char_traits@_W@@SAH$$QEAPEA_W$$QEAH@Z 000000018004caa0 f i libucrt:environment_initialization.obj
 0001:0004baac       ??$tcscpy_s@PEADAEB_KAEAPEAD@?$__crt_char_traits@D@@SAH$$QEAPEADAEB_KAEAPEAD@Z 000000018004caac f i libucrt:environment_initialization.obj
 0001:0004babc       ??$tcscpy_s@PEA_WAEB_KAEAPEA_W@?$__crt_char_traits@_W@@SAH$$QEAPEA_WAEB_KAEAPEA_W@Z 000000018004cabc f i libucrt:environment_initialization.obj
 0001:0004bacc       ??$tcslen@AEAPEAD@?$__crt_char_traits@D@@SA_KAEAPEAD@Z 000000018004cacc f i libucrt:environment_initialization.obj
 0001:0004bae0       ??$tcslen@AEAPEA_W@?$__crt_char_traits@_W@@SA_KAEAPEA_W@Z 000000018004cae0 f i libucrt:environment_initialization.obj
 0001:0004baf4       ??$uninitialize@A6AXAEAPEAPEAD@_E@?$dual_state_global@PEAPEAD@__crt_state_management@@QEAAXA6AXAEAPEAPEAD@_E@Z 000000018004caf4 f i libucrt:environment_initialization.obj
 0001:0004bb4c       ??$uninitialize@A6AXAEAPEAPEA_W@_E@?$dual_state_global@PEAPEA_W@__crt_state_management@@QEAAXA6AXAEAPEAPEA_W@_E@Z 000000018004cb4c f i libucrt:environment_initialization.obj
 0001:0004bbdc       ??B?$__crt_unique_heap_ptr@PEADU__crt_internal_free_policy@@@@QEBA_NXZ 000000018004cbdc f i libucrt:environment_initialization.obj
 0001:0004bbe4       ??B?$__crt_unique_heap_ptr@PEA_WU__crt_internal_free_policy@@@@QEBA_NXZ 000000018004cbe4 f i libucrt:environment_initialization.obj
 0001:0004bbec       ??B?$__crt_unique_heap_ptr@_WU__crt_internal_free_policy@@@@QEBA_NXZ 000000018004cbec f i libucrt:environment_initialization.obj
 0001:0004bbf4       ?__crt_compute_required_transform_buffer_count@@YA_KIQEBD@Z 000000018004cbf4 f i libucrt:environment_initialization.obj
 0001:0004bc18       ?__crt_compute_required_transform_buffer_count@@YA_KIQEB_W@Z 000000018004cc18 f i libucrt:environment_initialization.obj
 0001:0004bc48       ?__crt_transform_string@@YA_KIQEBDQEA_W_K@Z 000000018004cc48 f i libucrt:environment_initialization.obj
 0001:0004bc6c       ?__crt_transform_string@@YA_KIQEB_WQEAD_K@Z 000000018004cc6c f i libucrt:environment_initialization.obj
 0001:0004bc9c       ?detach@?$__crt_unique_heap_ptr@DU__crt_internal_free_policy@@@@QEAAPEADXZ 000000018004cc9c f i libucrt:environment_initialization.obj
 0001:0004bcd4       ?initialize@?$dual_state_global@PEAPEAD@__crt_state_management@@QEAAXQEAPEAD@Z 000000018004ccd4 f i libucrt:environment_initialization.obj
 0001:0004bce4       ?initialize@?$dual_state_global@PEAPEA_W@__crt_state_management@@QEAAXQEAPEA_W@Z 000000018004cce4 f i libucrt:environment_initialization.obj
 0001:0004bcf4       ?is_valid@?$__crt_unique_heap_ptr@PEADU__crt_internal_free_policy@@@@QEBA_NXZ 000000018004ccf4 f i libucrt:environment_initialization.obj
 0001:0004bcfc       ?is_valid@?$__crt_unique_heap_ptr@PEA_WU__crt_internal_free_policy@@@@QEBA_NXZ 000000018004ccfc f i libucrt:environment_initialization.obj
 0001:0004bd04       ?is_valid@?$__crt_unique_heap_ptr@_WU__crt_internal_free_policy@@@@QEBA_NXZ 000000018004cd04 f i libucrt:environment_initialization.obj
 0001:0004bd18       ?value@?$dual_state_global@PEAPEAD@__crt_state_management@@QEAAAEAPEAPEADXZ 000000018004cd18 f i libucrt:environment_initialization.obj
 0001:0004bd1c       ?value@?$dual_state_global@PEAPEA_W@__crt_state_management@@QEAAAEAPEAPEA_WXZ 000000018004cd1c f i libucrt:environment_initialization.obj
 0001:0004bd20       __dcrt_get_or_create_narrow_environment_nolock 000000018004cd20 f   libucrt:environment_initialization.obj
 0001:0004bd5c       __dcrt_get_or_create_wide_environment_nolock 000000018004cd5c f   libucrt:environment_initialization.obj
 0001:0004bd98       __dcrt_uninitialize_environments_nolock 000000018004cd98 f   libucrt:environment_initialization.obj
 0001:0004bddc       __p__environ               000000018004cddc f   libucrt:environment_initialization.obj
 0001:0004bde4       __p__wenviron              000000018004cde4 f   libucrt:environment_initialization.obj
 0001:0004bdec       _get_initial_narrow_environment 000000018004cdec f   libucrt:environment_initialization.obj
 0001:0004be3c       _get_initial_wide_environment 000000018004ce3c f   libucrt:environment_initialization.obj
 0001:0004be8c       _initialize_narrow_environment 000000018004ce8c f   libucrt:environment_initialization.obj
 0001:0004be94       _initialize_wide_environment 000000018004ce94 f   libucrt:environment_initialization.obj
 0001:0004be9c       ??$?B$$A6AXXZ@__crt_fast_encoded_nullptr_t@@QEBAP6AXXZXZ 000000018004ce9c f i libucrt:onexit.obj
 0001:0004bea4       ??$?BP6AXXZ@__crt_fast_encoded_nullptr_t@@QEBAPEAP6AXXZXZ 000000018004cea4 f i libucrt:onexit.obj
 0001:0004beac       ??$?RP6AXXZ@__crt_internal_free_policy@@QEBAXQEBQ6AXXZ@Z 000000018004ceac f i libucrt:onexit.obj
 0001:0004bf84       ??$__crt_fast_decode_pointer@P6AXXZ@@YAP6AXXZQ6AXXZ@Z 000000018004cf84 f i libucrt:onexit.obj
 0001:0004bf9c       ??$__crt_fast_decode_pointer@PEAP6AXXZ@@YAPEAP6AXXZQEAP6AXXZ@Z 000000018004cf9c f i libucrt:onexit.obj
 0001:0004bfb4       ??$__crt_fast_encode_pointer@P6AHXZ@@YAP6AHXZQ6AHXZ@Z 000000018004cfb4 f i libucrt:onexit.obj
 0001:0004bfd4       ??$__crt_fast_encode_pointer@P6AXXZ@@YAP6AXXZQ6AXXZ@Z 000000018004cfd4 f i libucrt:onexit.obj
 0001:0004bff4       ??$__crt_fast_encode_pointer@PEAP6AXXZ@@YAPEAP6AXXZQEAP6AXXZ@Z 000000018004cff4 f i libucrt:onexit.obj
 0001:0004c048       ??0?$__crt_unique_heap_ptr@P6AXXZU__crt_internal_free_policy@@@@QEAA@QEAP6AXXZ@Z 000000018004d048 f i libucrt:onexit.obj
 0001:0004c050       ??1?$__crt_unique_heap_ptr@P6AXXZU__crt_internal_free_policy@@@@QEAA@XZ 000000018004d050 f i libucrt:onexit.obj
 0001:0004c06c       ??1scoped_global_state_reset@__crt_state_management@@QEAA@XZ 000000018004d06c f i libucrt:onexit.obj
 0001:0004c360       ?detach@?$__crt_unique_heap_ptr@P6AXXZU__crt_internal_free_policy@@@@QEAAPEAP6AXXZXZ 000000018004d360 f i libucrt:onexit.obj
 0001:0004c368       ?release@?$__crt_unique_heap_ptr@P6AXXZU__crt_internal_free_policy@@@@QEAAXXZ 000000018004d368 f i libucrt:onexit.obj
 0001:0004c384       _crt_at_quick_exit         000000018004d384 f   libucrt:onexit.obj
 0001:0004c394       _crt_atexit                000000018004d394 f   libucrt:onexit.obj
 0001:0004c3a4       _execute_onexit_table      000000018004d3a4 f   libucrt:onexit.obj
 0001:0004c3e8       _initialize_onexit_table   000000018004d3e8 f   libucrt:onexit.obj
 0001:0004c410       _register_onexit_function  000000018004d410 f   libucrt:onexit.obj
 0001:0004c598       ??$?BX@__crt_fast_encoded_nullptr_t@@QEBAPEAXXZ 000000018004d598 f i libucrt:initialization.obj
 0001:0004c5a0       ??$__crt_fast_encode_pointer@PEAX@@YAPEAXQEAX@Z 000000018004d5a0 f i libucrt:initialization.obj
 0001:0004c65c       ?__acrt_stdio_is_initialized@@YA_NXZ 000000018004d65c f i libucrt:initialization.obj
 0001:0004c668       ?initialize@?$dual_state_global@PEAU__crt_locale_data@@@__crt_state_management@@QEAAXQEAU__crt_locale_data@@@Z 000000018004d668 f i libucrt:initialization.obj
 0001:0004c678       __acrt_initialize          000000018004d678 f   libucrt:initialization.obj
 0001:0004c68c       __acrt_thread_attach       000000018004d68c f   libucrt:initialization.obj
 0001:0004c6a0       __acrt_thread_detach       000000018004d6a0 f   libucrt:initialization.obj
 0001:0004c6b0       __acrt_uninitialize        000000018004d6b0 f   libucrt:initialization.obj
 0001:0004c6e8       __acrt_uninitialize_critical 000000018004d6e8 f   libucrt:initialization.obj
 0001:0004c6f8       _initterm                  000000018004d6f8 f   libucrt:initterm.obj
 0001:0004c73c       _initterm_e                000000018004d73c f   libucrt:initterm.obj
 0001:0004c7e8       strcpy_s                   000000018004d7e8 f   libucrt:strcpy_s.obj
 0001:0004c848       calloc                     000000018004d848 f   libucrt:calloc.obj
 0001:0004c850       ??$is_overflow_condition@_K@__crt_strtox@@YA_NI_K@Z 000000018004d850 f i libucrt:atox.obj
 0001:0004c888       ??$make_c_string_character_source@D$$T@__crt_strtox@@YA?AV?$c_string_character_source@D@0@QEBD$$T@Z 000000018004d888 f i libucrt:atox.obj
 0001:0004c89c       ??$make_c_string_character_source@_W$$T@__crt_strtox@@YA?AV?$c_string_character_source@_W@0@QEB_W$$T@Z 000000018004d89c f i libucrt:atox.obj
 0001:0004c8b0       ??$parse_integer@KV?$c_string_character_source@D@__crt_strtox@@$00@__crt_strtox@@YAKAEAV__crt_cached_ptd_host@@V?$c_string_character_source@D@0@H_N@Z 000000018004d8b0 f i libucrt:atox.obj
 0001:0004cba0       ??$parse_integer@KV?$c_string_character_source@_W@__crt_strtox@@$00@__crt_strtox@@YAKAEAV__crt_cached_ptd_host@@V?$c_string_character_source@_W@0@H_N@Z 000000018004dba0 f i libucrt:atox.obj
 0001:0004d33c       ??$parse_integer@_KV?$c_string_character_source@D@__crt_strtox@@$00@__crt_strtox@@YA_KAEAV__crt_cached_ptd_host@@V?$c_string_character_source@D@0@H_N@Z 000000018004e33c f i libucrt:atox.obj
 0001:0004d618       ??$parse_integer@_KV?$c_string_character_source@_W@__crt_strtox@@$00@__crt_strtox@@YA_KAEAV__crt_cached_ptd_host@@V?$c_string_character_source@_W@0@H_N@Z 000000018004e618 f i libucrt:atox.obj
 0001:0004dd9c       ??$parse_integer_from_string@JD$$T@__crt_strtox@@YAJQEBD$$THQEAU__crt_locale_pointers@@@Z 000000018004ed9c f i libucrt:atox.obj
 0001:0004de58       ??$parse_integer_from_string@J_W$$T@__crt_strtox@@YAJQEB_W$$THQEAU__crt_locale_pointers@@@Z 000000018004ee58 f i libucrt:atox.obj
 0001:0004df14       ??$parse_integer_from_string@_JD$$T@__crt_strtox@@YA_JQEBD$$THQEAU__crt_locale_pointers@@@Z 000000018004ef14 f i libucrt:atox.obj
 0001:0004dfd4       ??$parse_integer_from_string@_J_W$$T@__crt_strtox@@YA_JQEB_W$$THQEAU__crt_locale_pointers@@@Z 000000018004efd4 f i libucrt:atox.obj
 0001:0004e094       ?is_space@__crt_strtox@@YA_NDQEAU__crt_locale_pointers@@@Z 000000018004f094 f i libucrt:atox.obj
 0001:0004e0b4       ?is_space@__crt_strtox@@YA_N_WPEAU__crt_locale_pointers@@@Z 000000018004f0b4 f i libucrt:atox.obj
 0001:0004e0cc       ?maximum_signed_value@__crt_strtox@@YA_J_K@Z 000000018004f0cc f i libucrt:atox.obj
 0001:0004e0d8       ?minimum_signed_value@__crt_strtox@@YA_J_K@Z 000000018004f0d8 f i libucrt:atox.obj
 0001:0004e0e4       __acrt_get_locale_data_prefix 000000018004f0e4 f i libucrt:atox.obj
 0001:0004e0e8       _atoi64                    000000018004f0e8 f   libucrt:atox.obj
 0001:0004e19c       _atoi64_l                  000000018004f19c f   libucrt:atox.obj
 0001:0004e258       _atoi_l                    000000018004f258 f   libucrt:atox.obj
 0001:0004e314       _atol_l                    000000018004f314 f   libucrt:atox.obj
 0001:0004e3d0       _atoll_l                   000000018004f3d0 f   libucrt:atox.obj
 0001:0004e48c       _chvalidchk_l              000000018004f48c f i libucrt:atox.obj
 0001:0004e4f0       _ischartype_l              000000018004f4f0 f i libucrt:atox.obj
 0001:0004e568       _wtoi                      000000018004f568 f   libucrt:atox.obj
 0001:0004e618       _wtoi64                    000000018004f618 f   libucrt:atox.obj
 0001:0004e6cc       _wtoi64_l                  000000018004f6cc f   libucrt:atox.obj
 0001:0004e788       _wtoi_l                    000000018004f788 f   libucrt:atox.obj
 0001:0004e844       _wtol                      000000018004f844 f   libucrt:atox.obj
 0001:0004e8f4       _wtol_l                    000000018004f8f4 f   libucrt:atox.obj
 0001:0004e9b0       _wtoll                     000000018004f9b0 f   libucrt:atox.obj
 0001:0004ea64       _wtoll_l                   000000018004fa64 f   libucrt:atox.obj
 0001:0004eb20       atoi                       000000018004fb20 f   libucrt:atox.obj
 0001:0004ebd0       atol                       000000018004fbd0 f   libucrt:atox.obj
 0001:0004ec80       atoll                      000000018004fc80 f   libucrt:atox.obj
 0001:0004ed50       strncmp                    000000018004fd50 f   libucrt:strncmp.obj
 0001:0004edd0       ??$?RU__acrt_ptd@@@__crt_internal_free_policy@@QEBAXQEBU__acrt_ptd@@@Z 000000018004fdd0 f i libucrt:per_thread_data.obj
 0001:0004f004       ??0?$__crt_unique_heap_ptr@U__acrt_ptd@@U__crt_internal_free_policy@@@@QEAA@QEAU__acrt_ptd@@@Z 0000000180050004 f i libucrt:per_thread_data.obj
 0001:0004f00c       ??1?$__crt_unique_heap_ptr@U__acrt_ptd@@U__crt_internal_free_policy@@@@QEAA@XZ 000000018005000c f i libucrt:per_thread_data.obj
 0001:0004f028       ??B?$__crt_unique_heap_ptr@U__acrt_ptd@@U__crt_internal_free_policy@@@@QEBA_NXZ 0000000180050028 f i libucrt:per_thread_data.obj
 0001:0004f27c       ?dangerous_get_state_array@?$dual_state_global@PEAU__crt_locale_data@@@__crt_state_management@@QEAAPEAPEAU__crt_locale_data@@XZ 000000018005027c f i libucrt:per_thread_data.obj
 0001:0004f490       ?detach@?$__crt_unique_heap_ptr@U__acrt_ptd@@U__crt_internal_free_policy@@@@QEAAPEAU__acrt_ptd@@XZ 0000000180050490 f i libucrt:per_thread_data.obj
 0001:0004f498       ?get@?$__crt_unique_heap_ptr@U__acrt_ptd@@U__crt_internal_free_policy@@@@QEBAPEAU__acrt_ptd@@XZ 0000000180050498 f i libucrt:per_thread_data.obj
 0001:0004f6b8       ?is_valid@?$__crt_unique_heap_ptr@U__acrt_ptd@@U__crt_internal_free_policy@@@@QEBA_NXZ 00000001800506b8 f i libucrt:per_thread_data.obj
 0001:0004f6c0       ?release@?$__crt_unique_heap_ptr@U__acrt_ptd@@U__crt_internal_free_policy@@@@QEAAXXZ 00000001800506c0 f i libucrt:per_thread_data.obj
 0001:0004f758       ?value@?$dual_state_global@PEAU__crt_locale_data@@@__crt_state_management@@QEAAAEAPEAU__crt_locale_data@@XZ 0000000180050758 f i libucrt:per_thread_data.obj
 0001:0004f75c       __acrt_freeptd             000000018005075c f   libucrt:per_thread_data.obj
 0001:0004f7a0       __acrt_getptd              00000001800507a0 f   libucrt:per_thread_data.obj
 0001:0004f874       __acrt_getptd_head         0000000180050874 f   libucrt:per_thread_data.obj
 0001:0004f918       __acrt_getptd_noexit       0000000180050918 f   libucrt:per_thread_data.obj
 0001:0004f9e0       __acrt_getptd_noexit_explicit 00000001800509e0 f   libucrt:per_thread_data.obj
 0001:0004faa0       __acrt_initialize_ptd      0000000180050aa0 f   libucrt:per_thread_data.obj
 0001:0004fadc       __acrt_uninitialize_ptd    0000000180050adc f   libucrt:per_thread_data.obj
 0001:0004fb00       __threadhandle             0000000180050b00 f   libucrt:per_thread_data.obj
 0001:0004fb08       __threadid                 0000000180050b08 f   libucrt:per_thread_data.obj
 0001:0004fb14       ??$?RU__crt_locale_data@@@__crt_internal_free_policy@@QEBAXQEBU__crt_locale_data@@@Z 0000000180050b14 f i libucrt:wsetlocale.obj
 0001:0004fb1c       ??$?RU__crt_locale_pointers@@@__crt_internal_free_policy@@QEBAXQEBU__crt_locale_pointers@@@Z 0000000180050b1c f i libucrt:wsetlocale.obj
 0001:0004fb24       ??$?RU__crt_multibyte_data@@@__crt_internal_free_policy@@QEBAXQEBU__crt_multibyte_data@@@Z 0000000180050b24 f i libucrt:wsetlocale.obj
 0001:0004ff28       ??0?$__crt_unique_heap_ptr@U__crt_locale_data@@U__crt_internal_free_policy@@@@QEAA@QEAU__crt_locale_data@@@Z 0000000180050f28 f i libucrt:wsetlocale.obj
 0001:0004ff30       ??0?$__crt_unique_heap_ptr@U__crt_locale_pointers@@U__crt_internal_free_policy@@@@QEAA@QEAU__crt_locale_pointers@@@Z 0000000180050f30 f i libucrt:wsetlocale.obj
 0001:0004ff38       ??0?$__crt_unique_heap_ptr@U__crt_multibyte_data@@U__crt_internal_free_policy@@@@QEAA@QEAU__crt_multibyte_data@@@Z 0000000180050f38 f i libucrt:wsetlocale.obj
 0001:0004ff40       ??0_expandlocale_locale_name_cache@@QEAA@QEA_W_KQEAU__crt_qualified_locale_data@@@Z 0000000180050f40 f i libucrt:wsetlocale.obj
 0001:0004ff9c       ??1?$__crt_unique_heap_ptr@U__crt_locale_data@@U__crt_internal_free_policy@@@@QEAA@XZ 0000000180050f9c f i libucrt:wsetlocale.obj
 0001:0004ffb8       ??1?$__crt_unique_heap_ptr@U__crt_locale_pointers@@U__crt_internal_free_policy@@@@QEAA@XZ 0000000180050fb8 f i libucrt:wsetlocale.obj
 0001:0004ffd4       ??1?$__crt_unique_heap_ptr@U__crt_multibyte_data@@U__crt_internal_free_policy@@@@QEAA@XZ 0000000180050fd4 f i libucrt:wsetlocale.obj
 0001:0004fff0       ??1_expandlocale_locale_name_cache@@QEAA@XZ 0000000180050ff0 f i libucrt:wsetlocale.obj
 0001:00050038       ??B?$__crt_unique_heap_ptr@U__crt_locale_data@@U__crt_internal_free_policy@@@@QEBA_NXZ 0000000180051038 f i libucrt:wsetlocale.obj
 0001:00050040       ??B?$__crt_unique_heap_ptr@U__crt_locale_pointers@@U__crt_internal_free_policy@@@@QEBA_NXZ 0000000180051040 f i libucrt:wsetlocale.obj
 0001:00050048       ??B?$__crt_unique_heap_ptr@U__crt_multibyte_data@@U__crt_internal_free_policy@@@@QEBA_NXZ 0000000180051048 f i libucrt:wsetlocale.obj
 0001:000502c8       ?commit_locale_name@_expandlocale_locale_name_cache@@QEAAXQEB_W_K@Z 00000001800512c8 f i libucrt:wsetlocale.obj
 0001:00050340       ?commit_locale_name_cache_already_updated@_expandlocale_locale_name_cache@@QEAAXQEB_W_K@Z 0000000180051340 f i libucrt:wsetlocale.obj
 0001:00050380       ?detach@?$__crt_unique_heap_ptr@U__crt_locale_data@@U__crt_internal_free_policy@@@@QEAAPEAU__crt_locale_data@@XZ 0000000180051380 f i libucrt:wsetlocale.obj
 0001:00050388       ?detach@?$__crt_unique_heap_ptr@U__crt_locale_pointers@@U__crt_internal_free_policy@@@@QEAAPEAU__crt_locale_pointers@@XZ 0000000180051388 f i libucrt:wsetlocale.obj
 0001:00050390       ?detach@?$__crt_unique_heap_ptr@U__crt_multibyte_data@@U__crt_internal_free_policy@@@@QEAAPEAU__crt_multibyte_data@@XZ 0000000180051390 f i libucrt:wsetlocale.obj
 0001:00050398       ?get@?$__crt_unique_heap_ptr@U__crt_locale_data@@U__crt_internal_free_policy@@@@QEBAPEAU__crt_locale_data@@XZ 0000000180051398 f i libucrt:wsetlocale.obj
 0001:0005039c       ?get@?$__crt_unique_heap_ptr@U__crt_locale_pointers@@U__crt_internal_free_policy@@@@QEBAPEAU__crt_locale_pointers@@XZ 000000018005139c f i libucrt:wsetlocale.obj
 0001:000503a0       ?get@?$__crt_unique_heap_ptr@U__crt_multibyte_data@@U__crt_internal_free_policy@@@@QEBAPEAU__crt_multibyte_data@@XZ 00000001800513a0 f i libucrt:wsetlocale.obj
 0001:000503a4       ?is_valid@?$__crt_unique_heap_ptr@U__crt_locale_data@@U__crt_internal_free_policy@@@@QEBA_NXZ 00000001800513a4 f i libucrt:wsetlocale.obj
 0001:000503ac       ?is_valid@?$__crt_unique_heap_ptr@U__crt_locale_pointers@@U__crt_internal_free_policy@@@@QEBA_NXZ 00000001800513ac f i libucrt:wsetlocale.obj
 0001:000503b4       ?is_valid@?$__crt_unique_heap_ptr@U__crt_multibyte_data@@U__crt_internal_free_policy@@@@QEBA_NXZ 00000001800513b4 f i libucrt:wsetlocale.obj
 0001:000503bc       ?release@?$__crt_unique_heap_ptr@U__crt_locale_data@@U__crt_internal_free_policy@@@@QEAAXXZ 00000001800513bc f i libucrt:wsetlocale.obj
 0001:000503d8       ?release@?$__crt_unique_heap_ptr@U__crt_locale_pointers@@U__crt_internal_free_policy@@@@QEAAXXZ 00000001800513d8 f i libucrt:wsetlocale.obj
 0001:000503f4       ?release@?$__crt_unique_heap_ptr@U__crt_multibyte_data@@U__crt_internal_free_policy@@@@QEAAXXZ 00000001800513f4 f i libucrt:wsetlocale.obj
 0001:00050410       __acrt_copy_locale_name    0000000180051410 f   libucrt:wsetlocale.obj
 0001:00050494       __acrt_set_locale_changed  0000000180051494 f   libucrt:wsetlocale.obj
 0001:000504a0       __acrt_uninitialize_locale 00000001800514a0 f   libucrt:wsetlocale.obj
 0001:000504d0       __ascii_tolower            00000001800514d0 f i libucrt:wsetlocale.obj
 0001:000504e0       __ascii_towlower           00000001800514e0 f i libucrt:wsetlocale.obj
 0001:000504f0       __lc_lctowcs               00000001800514f0 f   libucrt:wsetlocale.obj
 0001:00050594       __lc_wcstolc               0000000180051594 f   libucrt:wsetlocale.obj
 0001:000506fc       _configthreadlocale        00000001800516fc f   libucrt:wsetlocale.obj
 0001:00050828       _create_locale             0000000180051828 f   libucrt:wsetlocale.obj
 0001:00050d20       _free_locale               0000000180051d20 f   libucrt:wsetlocale.obj
 0001:00050dc4       _get_current_locale        0000000180051dc4 f   libucrt:wsetlocale.obj
 0001:00050e80       _wcreate_locale            0000000180051e80 f   libucrt:wsetlocale.obj
 0001:00050fc8       _wcscats                   0000000180051fc8 f   libucrt:wsetlocale.obj
 0001:00051030       _wsetlocale                0000000180052030 f   libucrt:wsetlocale.obj
 0001:00051e4c       __p___mb_cur_max           0000000180052e4c f   libucrt:nlsdata.obj
 0001:00051e84       _free_base                 0000000180052e84 f   libucrt:free_base.obj
 0001:00051ec0       _malloc_base               0000000180052ec0 f   libucrt:malloc_base.obj
 0001:00051f20       ?value@?$dual_state_global@PEAU__crt_multibyte_data@@@__crt_state_management@@QEAAAEAPEAU__crt_multibyte_data@@XZ 0000000180052f20 f i libucrt:locale_update.obj
 0001:00051f24       ?value_explicit@?$dual_state_global@PEAU__crt_locale_data@@@__crt_state_management@@QEAAAEAPEAU__crt_locale_data@@_K@Z 0000000180052f24 f i libucrt:locale_update.obj
 0001:00051f2c       ?value_explicit@?$dual_state_global@PEAU__crt_multibyte_data@@@__crt_state_management@@QEAAAEAPEAU__crt_multibyte_data@@_K@Z 0000000180052f2c f i libucrt:locale_update.obj
 0001:00051f34       __acrt_should_sync_with_global_locale 0000000180052f34 f i libucrt:locale_update.obj
 0001:00051f44       __acrt_update_locale_info  0000000180052f44 f   libucrt:locale_update.obj
 0001:00051f78       __acrt_update_locale_info_explicit 0000000180052f78 f   libucrt:locale_update.obj
 0001:00051fb0       __acrt_update_multibyte_info 0000000180052fb0 f   libucrt:locale_update.obj
 0001:00051fe4       __acrt_update_multibyte_info_explicit 0000000180052fe4 f   libucrt:locale_update.obj
 0001:0005201c       ?__acrt_fp_classify@@YA?AW4__acrt_fp_class@@AEBN@Z 000000018005301c f i libucrt:cvt.obj
 0001:00052078       ?__acrt_fp_is_negative@@YA_NAEBN@Z 0000000180053078 f i libucrt:cvt.obj
 0001:00052ce4       ?strrchr@@YAPEADQEADH@Z    0000000180053ce4 f i libucrt:cvt.obj
 0001:00052cec       __acrt_fp_format           0000000180053cec f   libucrt:cvt.obj
 0001:00052fd4       ?value_or@?$cached@H@__crt_cached_ptd_host@@QEBAHH@Z 0000000180053fd4 f i libucrt:wctomb.obj
 0001:00052fe0       _wctomb_internal           0000000180053fe0 f   libucrt:wctomb.obj
 0001:00053190       _wctomb_l                  0000000180054190 f   libucrt:wctomb.obj
 0001:0005327c       _wctomb_s_l                000000018005427c f   libucrt:wctomb.obj
 0001:0005332c       wctomb                     000000018005432c f   libucrt:wctomb.obj
 0001:000533f4       wctomb_s                   00000001800543f4 f   libucrt:wctomb.obj
 0001:00053494       _isleadbyte_fast_internal  0000000180054494 f i libucrt:mbtowc.obj
 0001:000534ac       _mbtowc_internal           00000001800544ac f   libucrt:mbtowc.obj
 0001:00053624       _mbtowc_l                  0000000180054624 f   libucrt:mbtowc.obj
 0001:000536c8       mbtowc                     00000001800546c8 f   libucrt:mbtowc.obj
 0001:00053760       ?lowio_handle@__crt_stdio_stream@@QEBAHXZ 0000000180054760 f i libucrt:fileno.obj
 0001:00053768       _fileno                    0000000180054768 f   libucrt:fileno.obj
 0001:00053790       _get_printf_count_output   0000000180054790 f   libucrt:printf_count_output.obj
 0001:000537a8       _set_printf_count_output   00000001800547a8 f   libucrt:printf_count_output.obj
 0001:0005386c       _fputwc_nolock             000000018005486c f   libucrt:fputwc.obj
 0001:00053908       _fputwc_nolock_internal    0000000180054908 f   libucrt:fputwc.obj
 0001:00053a94       _fputwchar                 0000000180054a94 f   libucrt:fputwc.obj
 0001:00053ab8       _putwc_nolock              0000000180054ab8 f   libucrt:fputwc.obj
 0001:00053ac0       fputwc                     0000000180054ac0 f   libucrt:fputwc.obj
 0001:00053b5c       putwc                      0000000180054b5c f   libucrt:fputwc.obj
 0001:00053b64       putwchar                   0000000180054b64 f   libucrt:fputwc.obj
 0001:00053cd4       _fputc_nolock              0000000180054cd4 f   libucrt:fputc.obj
 0001:00053d80       _fputc_nolock_internal     0000000180054d80 f   libucrt:fputc.obj
 0001:00053d98       _fputchar                  0000000180054d98 f   libucrt:fputc.obj
 0001:00053dbc       _putc_nolock               0000000180054dbc f   libucrt:fputc.obj
 0001:00053dc4       fputc                      0000000180054dc4 f   libucrt:fputc.obj
 0001:00053e5c       putc                       0000000180054e5c f   libucrt:fputc.obj
 0001:00053e64       putchar                    0000000180054e64 f   libucrt:fputc.obj
 0001:00053e6c       ?has_any_buffer@__crt_stdio_stream@@QEBA_NXZ 0000000180054e6c f i libucrt:_sftbuf.obj
 0001:00053e80       ?has_any_of@__crt_stdio_stream@@QEBA_NJ@Z 0000000180054e80 f i libucrt:_sftbuf.obj
 0001:00053e90       ?has_temporary_buffer@__crt_stdio_stream@@QEBA_NXZ 0000000180054e90 f i libucrt:_sftbuf.obj
 0001:00053ea0       ?set_flags@__crt_stdio_stream@@QEBA_NJ@Z 0000000180054ea0 f i libucrt:_sftbuf.obj
 0001:00053ec0       ?unset_flags@__crt_stdio_stream@@QEBA_NJ@Z 0000000180054ec0 f i libucrt:_sftbuf.obj
 0001:00053ee8       __acrt_should_use_temporary_buffer 0000000180054ee8 f   libucrt:_sftbuf.obj
 0001:00053f34       __acrt_stdio_begin_temporary_buffering_nolock 0000000180054f34 f   libucrt:_sftbuf.obj
 0001:00053ffc       __acrt_stdio_end_temporary_buffering_nolock 0000000180054ffc f   libucrt:_sftbuf.obj
 0001:00054250       __acrt_initialize_lowio    0000000180055250 f   libucrt:ioinit.obj
 0001:0005428c       __acrt_uninitialize_lowio  000000018005528c f   libucrt:ioinit.obj
 0001:000542cc       __acrt_LCMapStringW        00000001800552cc f   libucrt:lcmapstringw.obj
 0001:00054354       _realloc_base              0000000180055354 f   libucrt:realloc_base.obj
 0001:000543d0       __acrt_initialize_locks    00000001800553d0 f   libucrt:locks.obj
 0001:00054418       __acrt_lock                0000000180055418 f   libucrt:locks.obj
 0001:00054434       __acrt_uninitialize_locks  0000000180055434 f   libucrt:locks.obj
 0001:0005446c       __acrt_unlock              000000018005546c f   libucrt:locks.obj
 0001:00054488       _lock_locales              0000000180055488 f   libucrt:locks.obj
 0001:000544a4       _unlock_locales            00000001800554a4 f   libucrt:locks.obj
 0001:000544b4       __acrt_app_verifier_enabled 00000001800554b4 f   libucrt:peb_access.obj
 0001:000544d0       __acrt_is_secure_process   00000001800554d0 f   libucrt:peb_access.obj
 0001:00054674       __acrt_get_begin_thread_init_policy 0000000180055674 f   libucrt:win_policies.obj
 0001:000546b4       __acrt_get_developer_information_policy 00000001800556b4 f   libucrt:win_policies.obj
 0001:000546f8       __acrt_get_process_end_policy 00000001800556f8 f   libucrt:win_policies.obj
 0001:00054728       __acrt_get_windowing_model_policy 0000000180055728 f   libucrt:win_policies.obj
 0001:00054790       _iswctype_l                0000000180055790 f   libucrt:iswctype.obj
 0001:00054798       iswctype                   0000000180055798 f   libucrt:iswctype.obj
 0001:00054804       _calloc_base               0000000180055804 f   libucrt:calloc_base.obj
 0001:000548b4       ??$?B$$A6AHPEA_WK_J@Z@__crt_fast_encoded_nullptr_t@@QEBAP6AHPEA_WK_J@ZXZ 00000001800558b4 f i libucrt:winapi_thunks.obj
 0001:00054960       ??$__crt_fast_decode_pointer@P6AHPEA_WK_J@Z@@YAP6AHPEA_WK_J@ZQ6AH0K1@Z@Z 0000000180055960 f i libucrt:winapi_thunks.obj
 0001:00054978       ??$__crt_fast_decode_pointer@PEAX@@YAPEAXQEAX@Z 0000000180055978 f i libucrt:winapi_thunks.obj
 0001:00054990       ??$__crt_fast_encode_pointer@P6AHPEA_WK_J@Z@@YAP6AHPEA_WK_J@ZQ6AH0K1@Z@Z 0000000180055990 f i libucrt:winapi_thunks.obj
 0001:0005540c       GetCurrentThreadEffectiveToken 000000018005640c f i libucrt:winapi_thunks.obj
 0001:00055414       __acrt_AppPolicyGetProcessTerminationMethodInternal 0000000180056414 f   libucrt:winapi_thunks.obj
 0001:0005546c       __acrt_AppPolicyGetShowDeveloperDiagnosticInternal 000000018005646c f   libucrt:winapi_thunks.obj
 0001:000554c4       __acrt_AppPolicyGetThreadInitializationTypeInternal 00000001800564c4 f   libucrt:winapi_thunks.obj
 0001:0005551c       __acrt_AppPolicyGetWindowingModelInternal 000000018005651c f   libucrt:winapi_thunks.obj
 0001:00055574       __acrt_AreFileApisANSI     0000000180056574 f   libucrt:winapi_thunks.obj
 0001:000555b8       __acrt_CompareStringEx     00000001800565b8 f   libucrt:winapi_thunks.obj
 0001:000556a4       __acrt_EnumSystemLocalesEx 00000001800566a4 f   libucrt:winapi_thunks.obj
 0001:00055744       __acrt_FlsAlloc            0000000180056744 f   libucrt:winapi_thunks.obj
 0001:0005574c       __acrt_FlsFree             000000018005674c f   libucrt:winapi_thunks.obj
 0001:00055754       __acrt_FlsGetValue         0000000180056754 f   libucrt:winapi_thunks.obj
 0001:0005575c       __acrt_FlsSetValue         000000018005675c f   libucrt:winapi_thunks.obj
 0001:00055764       __acrt_GetDateFormatEx     0000000180056764 f   libucrt:winapi_thunks.obj
 0001:00055824       __acrt_GetEnabledXStateFeatures 0000000180056824 f   libucrt:winapi_thunks.obj
 0001:00055868       __acrt_GetLocaleInfoEx     0000000180056868 f   libucrt:winapi_thunks.obj
 0001:000558f8       __acrt_GetSystemTimePreciseAsFileTime 00000001800568f8 f   libucrt:winapi_thunks.obj
 0001:00055950       __acrt_GetTempPath2W       0000000180056950 f   libucrt:winapi_thunks.obj
 0001:000559b0       __acrt_GetTimeFormatEx     00000001800569b0 f   libucrt:winapi_thunks.obj
 0001:00055a64       __acrt_GetUserDefaultLocaleName 0000000180056a64 f   libucrt:winapi_thunks.obj
 0001:00055ad0       __acrt_GetXStateFeaturesMask 0000000180056ad0 f   libucrt:winapi_thunks.obj
 0001:00055b2c       __acrt_InitializeCriticalSectionEx 0000000180056b2c f   libucrt:winapi_thunks.obj
 0001:00055b9c       __acrt_IsValidLocaleName   0000000180056b9c f   libucrt:winapi_thunks.obj
 0001:00055c00       __acrt_LCIDToLocaleName    0000000180056c00 f   libucrt:winapi_thunks.obj
 0001:00055c84       __acrt_LCMapStringEx       0000000180056c84 f   libucrt:winapi_thunks.obj
 0001:00055d70       __acrt_LocaleNameToLCID    0000000180056d70 f   libucrt:winapi_thunks.obj
 0001:00055dd0       __acrt_LocateXStateFeature 0000000180056dd0 f   libucrt:winapi_thunks.obj
 0001:00055e3c       __acrt_MessageBoxA         0000000180056e3c f   libucrt:winapi_thunks.obj
 0001:00055eb8       __acrt_MessageBoxW         0000000180056eb8 f   libucrt:winapi_thunks.obj
 0001:00055f34       __acrt_RoInitialize        0000000180056f34 f   libucrt:winapi_thunks.obj
 0001:00055f80       __acrt_RoUninitialize      0000000180056f80 f   libucrt:winapi_thunks.obj
 0001:00055fc0       __acrt_RtlGenRandom        0000000180056fc0 f   libucrt:winapi_thunks.obj
 0001:0005601c       __acrt_SetThreadStackGuarantee 000000018005701c f   libucrt:winapi_thunks.obj
 0001:00056068       __acrt_can_show_message_box 0000000180057068 f   libucrt:winapi_thunks.obj
 0001:000560d8       __acrt_can_use_vista_locale_apis 00000001800570d8 f   libucrt:winapi_thunks.obj
 0001:00056108       __acrt_can_use_xstate_apis 0000000180057108 f   libucrt:winapi_thunks.obj
 0001:00056138       __acrt_eagerly_load_locale_apis 0000000180057138 f   libucrt:winapi_thunks.obj
 0001:00056294       __acrt_get_parent_window   0000000180057294 f   libucrt:winapi_thunks.obj
 0001:00056320       __acrt_initialize_winapi_thunks 0000000180057320 f   libucrt:winapi_thunks.obj
 0001:00056344       __acrt_is_interactive      0000000180057344 f   libucrt:winapi_thunks.obj
 0001:00056424       __acrt_uninitialize_winapi_thunks 0000000180057424 f   libucrt:winapi_thunks.obj
 0001:00056468       ??0__crt_stdio_stream@@QEAA@QEAU__crt_stdio_stream_data@@@Z 0000000180057468 f i libucrt:closeall.obj
 0001:00056470       _fcloseall                 0000000180057470 f   libucrt:closeall.obj
 0001:00056934       ?__acrt_stdio_reset_buffer@@YAXV__crt_stdio_stream@@@Z 0000000180057934 f i libucrt:fflush.obj
 0001:00056a24       ?has_all_of@__crt_stdio_stream@@QEBA_NJ@Z 0000000180057a24 f i libucrt:fflush.obj
 0001:00056a70       __acrt_stdio_flush_nolock  0000000180057a70 f   libucrt:fflush.obj
 0001:00056afc       _fflush_nolock             0000000180057afc f   libucrt:fflush.obj
 0001:00056bd0       _flushall                  0000000180057bd0 f   libucrt:fflush.obj
 0001:00056bd8       fflush                     0000000180057bd8 f   libucrt:fflush.obj
 0001:00056c40       ?has_crt_buffer@__crt_stdio_stream@@QEBA_NXZ 0000000180057c40 f i libucrt:_freebuf.obj
 0001:00056c50       __acrt_stdio_free_buffer_nolock 0000000180057c50 f   libucrt:_freebuf.obj
 0001:00056c94       ??$?RU__crt_stdio_stream_data@@@__crt_internal_free_policy@@QEBAXQEBU__crt_stdio_stream_data@@@Z 0000000180057c94 f i libucrt:stream.obj
 0001:00056c9c       ??0?$__crt_unique_heap_ptr@U__crt_stdio_stream_data@@U__crt_internal_free_policy@@@@QEAA@QEAU__crt_stdio_stream_data@@@Z 0000000180057c9c f i libucrt:stream.obj
 0001:00056ca4       ??0__crt_stdio_stream@@QEAA@XZ 0000000180057ca4 f i libucrt:stream.obj
 0001:00056cac       ??1?$__crt_unique_heap_ptr@U__crt_stdio_stream_data@@U__crt_internal_free_policy@@@@QEAA@XZ 0000000180057cac f i libucrt:stream.obj
 0001:00056cc8       ?__acrt_stdio_allocate_stream@@YA?AV__crt_stdio_stream@@XZ 0000000180057cc8 f   libucrt:stream.obj
 0001:00056d20       ?__acrt_stdio_free_stream@@YAXV__crt_stdio_stream@@@Z 0000000180057d20 f   libucrt:stream.obj
 0001:00056d3c       ?deallocate@__crt_stdio_stream@@QEAAXXZ 0000000180057d3c f i libucrt:stream.obj
 0001:00056d48       ?detach@?$__crt_unique_heap_ptr@U__crt_stdio_stream_data@@U__crt_internal_free_policy@@@@QEAAPEAU__crt_stdio_stream_data@@XZ 0000000180057d48 f i libucrt:stream.obj
 0001:00056e3c       ?lock@__crt_stdio_stream@@QEBAXXZ 0000000180057e3c f i libucrt:stream.obj
 0001:00056e44       ?release@?$__crt_unique_heap_ptr@U__crt_stdio_stream_data@@U__crt_internal_free_policy@@@@QEAAXXZ 0000000180057e44 f i libucrt:stream.obj
 0001:00056e60       ?try_allocate@__crt_stdio_stream@@QEAA_NXZ 0000000180057e60 f i libucrt:stream.obj
 0001:00056e80       ??$__acrt_stdio_parse_mode@D@@YA?AU__acrt_stdio_stream_mode@@QEBD@Z 0000000180057e80 f i libucrt:openfile.obj
 0001:00057144       ??$__acrt_stdio_parse_mode@_W@@YA?AU__acrt_stdio_stream_mode@@QEB_W@Z 0000000180058144 f i libucrt:openfile.obj
 0001:00057578       ??$tcsncmp@AEAPEBDAEAY02$$CBD_K@?$__crt_char_traits@D@@SAHAEAPEBDAEAY02$$CBD$$QEA_K@Z 0000000180058578 f i libucrt:openfile.obj
 0001:00057584       ??$tcsncmp@AEAPEB_WAEAY02$$CB_W_K@?$__crt_char_traits@_W@@SAHAEAPEB_WAEAY02$$CB_W$$QEA_K@Z 0000000180058584 f i libucrt:openfile.obj
 0001:00057590       ??$tcsnicmp@AEAPEBDAEAY04$$CBD_K@?$__crt_char_traits@D@@SAHAEAPEBDAEAY04$$CBD$$QEA_K@Z 0000000180058590 f i libucrt:openfile.obj
 0001:0005759c       ??$tcsnicmp@AEAPEBDAEAY06$$CBD_K@?$__crt_char_traits@D@@SAHAEAPEBDAEAY06$$CBD$$QEA_K@Z 000000018005859c f i libucrt:openfile.obj
 0001:000575a8       ??$tcsnicmp@AEAPEBDAEAY07$$CBD_K@?$__crt_char_traits@D@@SAHAEAPEBDAEAY07$$CBD$$QEA_K@Z 00000001800585a8 f i libucrt:openfile.obj
 0001:000575b4       ??$tcsnicmp@AEAPEB_WAEAY04$$CB_W_K@?$__crt_char_traits@_W@@SAHAEAPEB_WAEAY04$$CB_W$$QEA_K@Z 00000001800585b4 f i libucrt:openfile.obj
 0001:000575c0       ??$tcsnicmp@AEAPEB_WAEAY06$$CB_W_K@?$__crt_char_traits@_W@@SAHAEAPEB_WAEAY06$$CB_W$$QEA_K@Z 00000001800585c0 f i libucrt:openfile.obj
 0001:000575cc       ??$tcsnicmp@AEAPEB_WAEAY07$$CB_W_K@?$__crt_char_traits@_W@@SAHAEAPEB_WAEAY07$$CB_W$$QEA_K@Z 00000001800585cc f i libucrt:openfile.obj
 0001:000575d8       ??$tsopen_s@PEAHAEBQEBDAEBHAEBHH@?$__crt_char_traits@D@@SAH$$QEAPEAHAEBQEBDAEBH2$$QEAH@Z 00000001800585d8 f i libucrt:openfile.obj
 0001:000575f8       ??$tsopen_s@PEAHAEBQEB_WAEBHAEBHH@?$__crt_char_traits@_W@@SAH$$QEAPEAHAEBQEB_WAEBH2$$QEAH@Z 00000001800585f8 f i libucrt:openfile.obj
 0001:00057618       ?__acrt_stdio_parse_mode_D@@YA_NAEAU__acrt_stdio_stream_mode@@@Z 0000000180058618 f i libucrt:openfile.obj
 0001:0005762c       ?__acrt_stdio_parse_mode_N@@YA_NAEAU__acrt_stdio_stream_mode@@@Z 000000018005862c f i libucrt:openfile.obj
 0001:00057634       ?__acrt_stdio_parse_mode_R@@YA_NAEAU__acrt_stdio_stream_mode@@AEA_N@Z 0000000180058634 f i libucrt:openfile.obj
 0001:00057648       ?__acrt_stdio_parse_mode_S@@YA_NAEAU__acrt_stdio_stream_mode@@AEA_N@Z 0000000180058648 f i libucrt:openfile.obj
 0001:0005765c       ?__acrt_stdio_parse_mode_T@@YA_NAEAU__acrt_stdio_stream_mode@@@Z 000000018005865c f i libucrt:openfile.obj
 0001:00057674       ?__acrt_stdio_parse_mode_b@@YA_NAEAU__acrt_stdio_stream_mode@@@Z 0000000180058674 f i libucrt:openfile.obj
 0001:0005768c       ?__acrt_stdio_parse_mode_c@@YA_NAEAU__acrt_stdio_stream_mode@@AEA_N@Z 000000018005868c f i libucrt:openfile.obj
 0001:000576a0       ?__acrt_stdio_parse_mode_n@@YA_NAEAU__acrt_stdio_stream_mode@@AEA_N@Z 00000001800586a0 f i libucrt:openfile.obj
 0001:000576b4       ?__acrt_stdio_parse_mode_plus@@YA_NAEAU__acrt_stdio_stream_mode@@AEA_N@Z 00000001800586b4 f i libucrt:openfile.obj
 0001:000576e4       ?__acrt_stdio_parse_mode_t@@YA_NAEAU__acrt_stdio_stream_mode@@@Z 00000001800586e4 f i libucrt:openfile.obj
 0001:000576fc       ?__acrt_stdio_parse_mode_x@@YA_NAEAU__acrt_stdio_stream_mode@@@Z 00000001800586fc f i libucrt:openfile.obj
 0001:00057710       _openfile                  0000000180058710 f   libucrt:openfile.obj
 0001:000577ac       _wopenfile                 00000001800587ac f   libucrt:openfile.obj
 0001:00057848       __ascii_wcsicmp            0000000180058848 f   libucrt:wcsicmp.obj
 0001:00057888       _towlower_fast_internal    0000000180058888 f i libucrt:wcsicmp.obj
 0001:000578b0       _towlower_internal         00000001800588b0 f i libucrt:wcsicmp.obj
 0001:000578e4       _wcsicmp                   00000001800588e4 f   libucrt:wcsicmp.obj
 0001:0005792c       _wcsicmp_l                 000000018005892c f   libucrt:wcsicmp.obj
 0001:00057a60       ?dangerous_get_state_array@?$dual_state_global@PEAPEAD@__crt_state_management@@QEAAPEAPEAPEADXZ 0000000180058a60 f i libucrt:timeset.obj
 0001:00057a64       ?dangerous_get_state_array@?$dual_state_global@PEAPEA_W@__crt_state_management@@QEAAPEAPEAPEA_WXZ 0000000180058a64 f i libucrt:timeset.obj
 0001:00057a68       ?initialize@?$dual_state_global@H@__crt_state_management@@QEAAXH@Z 0000000180058a68 f i libucrt:timeset.obj
 0001:00057a74       ?initialize@?$dual_state_global@J@__crt_state_management@@QEAAXJ@Z 0000000180058a74 f i libucrt:timeset.obj
 0001:00057a80       ?value@?$dual_state_global@H@__crt_state_management@@QEAAAEAHXZ 0000000180058a80 f i libucrt:timeset.obj
 0001:00057a84       ?value@?$dual_state_global@J@__crt_state_management@@QEAAAEAJXZ 0000000180058a84 f i libucrt:timeset.obj
 0001:00057a88       __acrt_initialize_timeset  0000000180058a88 f   libucrt:timeset.obj
 0001:00057ad8       __daylight                 0000000180058ad8 f   libucrt:timeset.obj
 0001:00057ae0       __dstbias                  0000000180058ae0 f   libucrt:timeset.obj
 0001:00057ae8       __timezone                 0000000180058ae8 f   libucrt:timeset.obj
 0001:00057af0       __tzname                   0000000180058af0 f   libucrt:timeset.obj
 0001:00057af8       __wide_tzname              0000000180058af8 f   libucrt:timeset.obj
 0001:00057b00       _get_daylight              0000000180058b00 f   libucrt:timeset.obj
 0001:00057b30       _get_dstbias               0000000180058b30 f   libucrt:timeset.obj
 0001:00057b60       _get_timezone              0000000180058b60 f   libucrt:timeset.obj
 0001:00057b90       _get_tzname                0000000180058b90 f   libucrt:timeset.obj
 0001:00057c28       ??$__crt_time_elapsed_leap_years@H@@YAHH@Z 0000000180058c28 f i libucrt:tzset.obj
 0001:00057c74       ?__acrt_get_utf8_acp_compatibility_codepage@@YAIXZ 0000000180058c74 f i libucrt:tzset.obj
 0001:00057fbc       ?_set_daylight@@YAXH@Z     0000000180058fbc f i libucrt:tzset.obj
 0001:00057fd4       ?_set_dstbias@@YAXJ@Z      0000000180058fd4 f i libucrt:tzset.obj
 0001:00057fec       ?_set_timezone@@YAXJ@Z     0000000180058fec f i libucrt:tzset.obj
 0001:000581fc       ?dangerous_get_state_array@?$dual_state_global@J@__crt_state_management@@QEAAPEAJXZ 00000001800591fc f i libucrt:tzset.obj
 0001:000588f8       __tzset                    00000001800598f8 f   libucrt:tzset.obj
 0001:0005893c       _isindst                   000000018005993c f   libucrt:tzset.obj
 0001:0005896c       _tzset                     000000018005996c f   libucrt:tzset.obj
 0001:00058b28       _close                     0000000180059b28 f   libucrt:close.obj
 0001:00058bc0       _close_internal            0000000180059bc0 f   libucrt:close.obj
 0001:00058c84       _close_nolock              0000000180059c84 f   libucrt:close.obj
 0001:00058d1c       _close_nolock_internal     0000000180059d1c f   libucrt:close.obj
 0001:00058f20       ?has_big_buffer@__crt_stdio_stream@@QEBA_NXZ 0000000180059f20 f i libucrt:fwrite.obj
 0001:00058f30       _fwrite_internal           0000000180059f30 f   libucrt:fwrite.obj
 0001:00058fcc       _fwrite_nolock             0000000180059fcc f   libucrt:fwrite.obj
 0001:00059070       _fwrite_nolock_internal    000000018005a070 f   libucrt:fwrite.obj
 0001:00059284       fwrite                     000000018005a284 f   libucrt:fwrite.obj
 0001:00059328       ??$?RUtm@@@__crt_internal_free_policy@@QEBAXQEBUtm@@@Z 000000018005a328 f i libucrt:gmtime.obj
 0001:000596f0       ??0?$__crt_unique_heap_ptr@Utm@@U__crt_internal_free_policy@@@@QEAA@QEAUtm@@@Z 000000018005a6f0 f i libucrt:gmtime.obj
 0001:000596f8       ??1?$__crt_unique_heap_ptr@Utm@@U__crt_internal_free_policy@@@@QEAA@XZ 000000018005a6f8 f i libucrt:gmtime.obj
 0001:0005986c       ?detach@?$__crt_unique_heap_ptr@Utm@@U__crt_internal_free_policy@@@@QEAAPEAUtm@@XZ 000000018005a86c f i libucrt:gmtime.obj
 0001:00059874       ?release@?$__crt_unique_heap_ptr@Utm@@U__crt_internal_free_policy@@@@QEAAXXZ 000000018005a874 f i libucrt:gmtime.obj
 0001:00059890       __getgmtimebuf             000000018005a890 f   libucrt:gmtime.obj
 0001:000598dc       _gmtime32                  000000018005a8dc f   libucrt:gmtime.obj
 0001:00059924       _gmtime32_s                000000018005a924 f   libucrt:gmtime.obj
 0001:0005992c       _gmtime64                  000000018005a92c f   libucrt:gmtime.obj
 0001:00059974       _gmtime64_s                000000018005a974 f   libucrt:gmtime.obj
 0001:0005997c       _msize                     000000018005a97c f   libucrt:msize.obj
 0001:00059984       _msize_base                000000018005a984 f   libucrt:msize.obj
 0001:000599e8       ??$__acrt_convert_wcs_mbs_cp@D_WV<lambda_7c9dea7b4ca7285d2cdb541a38da6275>@@U__crt_win32_buffer_internal_dynamic_resizing@@@@YAHQEBDAEAV?$__crt_win32_buffer@_WU__crt_win32_buffer_internal_dynamic_resizing@@@@AEBV<lambda_7c9dea7b4ca7285d2cdb541a38da6275>@@I@Z 000000018005a9e8 f i libucrt:argv_wildcards.obj
 0001:00059b64       ??$__acrt_convert_wcs_mbs_cp@_WDV<lambda_d8593a27d1aa8c02be35c86a17d324c4>@@U__crt_win32_buffer_internal_dynamic_resizing@@@@YAHQEB_WAEAV?$__crt_win32_buffer@DU__crt_win32_buffer_internal_dynamic_resizing@@@@AEBV<lambda_d8593a27d1aa8c02be35c86a17d324c4>@@I@Z 000000018005ab64 f i libucrt:argv_wildcards.obj
 0001:00059cf0       ??$__acrt_mbs_to_wcs_cp@U__crt_win32_buffer_internal_dynamic_resizing@@@@YAHQEBDAEAV?$__crt_win32_buffer@_WU__crt_win32_buffer_internal_dynamic_resizing@@@@I@Z 000000018005acf0 f i libucrt:argv_wildcards.obj
 0001:00059d00       ??$__acrt_wcs_to_mbs_cp@U__crt_win32_buffer_internal_dynamic_resizing@@@@YAHQEB_WAEAV?$__crt_win32_buffer@DU__crt_win32_buffer_internal_dynamic_resizing@@@@I@Z 000000018005ad00 f i libucrt:argv_wildcards.obj
 0001:0005ab30       ??$tcslen@AEBQEBD@?$__crt_char_traits@D@@SA_KAEBQEBD@Z 000000018005bb30 f i libucrt:argv_wildcards.obj
 0001:0005ab44       ??$tcslen@AEBQEB_W@?$__crt_char_traits@_W@@SA_KAEBQEB_W@Z 000000018005bb44 f i libucrt:argv_wildcards.obj
 0001:0005ab58       ??$tcsncpy_s@AEAPEAD_KAEAPEADAEB_K@?$__crt_char_traits@D@@SAHAEAPEAD$$QEA_K0AEB_K@Z 000000018005bb58 f i libucrt:argv_wildcards.obj
 0001:0005ab6c       ??$tcsncpy_s@AEAPEA_W_KAEAPEA_WAEB_K@?$__crt_char_traits@_W@@SAHAEAPEA_W$$QEA_K0AEB_K@Z 000000018005bb6c f i libucrt:argv_wildcards.obj
 0001:0005ab80       ??$tcsncpy_s@PEADAEB_KAEBQEBDAEB_K@?$__crt_char_traits@D@@SAH$$QEAPEADAEB_KAEBQEBD1@Z 000000018005bb80 f i libucrt:argv_wildcards.obj
 0001:0005ab94       ??$tcsncpy_s@PEAD_KAEBQEBDAEB_K@?$__crt_char_traits@D@@SAH$$QEAPEAD$$QEA_KAEBQEBDAEB_K@Z 000000018005bb94 f i libucrt:argv_wildcards.obj
 0001:0005aba8       ??$tcsncpy_s@PEA_WAEB_KAEBQEB_WAEB_K@?$__crt_char_traits@_W@@SAH$$QEAPEA_WAEB_KAEBQEB_W1@Z 000000018005bba8 f i libucrt:argv_wildcards.obj
 0001:0005abbc       ??$tcsncpy_s@PEA_W_KAEBQEB_WAEB_K@?$__crt_char_traits@_W@@SAH$$QEAPEA_W$$QEA_KAEBQEB_WAEB_K@Z 000000018005bbbc f i libucrt:argv_wildcards.obj
 0001:0005abd0       ??$tcspbrk@AEAPEADAEAY02$$CBD@?$__crt_char_traits@D@@SAPEADAEAPEADAEAY02$$CBD@Z 000000018005bbd0 f i libucrt:argv_wildcards.obj
 0001:0005abd8       ??$tcspbrk@AEAPEA_WAEAY02$$CB_W@?$__crt_char_traits@_W@@SAPEA_WAEAPEA_WAEAY02$$CB_W@Z 000000018005bbd8 f i libucrt:argv_wildcards.obj
 0001:0005abe0       ??0?$__crt_unique_handle_t@U__crt_findfile_traits@@@@QEAA@QEAX@Z 000000018005bbe0 f i libucrt:argv_wildcards.obj
 0001:0005abe8       ??0?$__crt_win32_buffer@DU__crt_win32_buffer_internal_dynamic_resizing@@@@QEAA@XZ 000000018005bbe8 f i libucrt:argv_wildcards.obj
 0001:0005ac04       ??0?$__crt_win32_buffer@_WU__crt_win32_buffer_internal_dynamic_resizing@@@@QEAA@XZ 000000018005bc04 f i libucrt:argv_wildcards.obj
 0001:0005ac48       ??1?$__crt_unique_handle_t@U__crt_findfile_traits@@@@QEAA@XZ 000000018005bc48 f i libucrt:argv_wildcards.obj
 0001:0005ac6c       ??1?$__crt_win32_buffer@DU__crt_win32_buffer_internal_dynamic_resizing@@@@QEAA@XZ 000000018005bc6c f i libucrt:argv_wildcards.obj
 0001:0005ac90       ??1?$__crt_win32_buffer@_WU__crt_win32_buffer_internal_dynamic_resizing@@@@QEAA@XZ 000000018005bc90 f i libucrt:argv_wildcards.obj
 0001:0005ad3c       ??R<lambda_7c9dea7b4ca7285d2cdb541a38da6275>@@QEBA@IQEBDQEA_W_K@Z 000000018005bd3c f i libucrt:argv_wildcards.obj
 0001:0005adcc       ??R<lambda_d8593a27d1aa8c02be35c86a17d324c4>@@QEBA@IQEB_WQEAD_K@Z 000000018005bdcc f i libucrt:argv_wildcards.obj
 0001:0005adfc       ?_deallocate@?$__crt_win32_buffer@DU__crt_win32_buffer_internal_dynamic_resizing@@@@AEAAXXZ 000000018005bdfc f i libucrt:argv_wildcards.obj
 0001:0005ae20       ?_deallocate@?$__crt_win32_buffer@_WU__crt_win32_buffer_internal_dynamic_resizing@@@@AEAAXXZ 000000018005be20 f i libucrt:argv_wildcards.obj
 0001:0005ae44       ?allocate@?$__crt_win32_buffer@DU__crt_win32_buffer_internal_dynamic_resizing@@@@QEAAH_K@Z 000000018005be44 f i libucrt:argv_wildcards.obj
 0001:0005aea8       ?allocate@?$__crt_win32_buffer@_WU__crt_win32_buffer_internal_dynamic_resizing@@@@QEAAH_K@Z 000000018005bea8 f i libucrt:argv_wildcards.obj
 0001:0005af0c       ?allocate@__crt_win32_buffer_internal_dynamic_resizing@@SAHQEAPEAX_KAEBV__crt_win32_buffer_empty_debug_info@@@Z 000000018005bf0c f i libucrt:argv_wildcards.obj
 0001:0005b0f8       ?capacity@?$__crt_win32_buffer@DU__crt_win32_buffer_internal_dynamic_resizing@@@@QEBA_KXZ 000000018005c0f8 f i libucrt:argv_wildcards.obj
 0001:0005b100       ?capacity@?$__crt_win32_buffer@_WU__crt_win32_buffer_internal_dynamic_resizing@@@@QEBA_KXZ 000000018005c100 f i libucrt:argv_wildcards.obj
 0001:0005b108       ?close@?$__crt_unique_handle_t@U__crt_findfile_traits@@@@QEAAXXZ 000000018005c108 f i libucrt:argv_wildcards.obj
 0001:0005b12c       ?close@__crt_findfile_traits@@SA_NPEAX@Z 000000018005c12c f i libucrt:argv_wildcards.obj
 0001:0005b140       ?data@?$__crt_win32_buffer@DU__crt_win32_buffer_internal_dynamic_resizing@@@@QEAAPEADXZ 000000018005c140 f i libucrt:argv_wildcards.obj
 0001:0005b148       ?data@?$__crt_win32_buffer@_WU__crt_win32_buffer_internal_dynamic_resizing@@@@QEAAPEA_WXZ 000000018005c148 f i libucrt:argv_wildcards.obj
 0001:0005b150       ?deallocate@__crt_win32_buffer_internal_dynamic_resizing@@SAXQEAXAEBV__crt_win32_buffer_empty_debug_info@@@Z 000000018005c150 f i libucrt:argv_wildcards.obj
 0001:0005b158       ?debug_info@?$__crt_win32_buffer@DU__crt_win32_buffer_internal_dynamic_resizing@@@@QEBAAEBV__crt_win32_buffer_empty_debug_info@@XZ 000000018005c158 f i libucrt:argv_wildcards.obj
 0001:0005b15c       ?debug_info@?$__crt_win32_buffer@_WU__crt_win32_buffer_internal_dynamic_resizing@@@@QEBAAEBV__crt_win32_buffer_empty_debug_info@@XZ 000000018005c15c f i libucrt:argv_wildcards.obj
 0001:0005b300       ?get@?$__crt_unique_handle_t@U__crt_findfile_traits@@@@QEBAPEAXXZ 000000018005c300 f i libucrt:argv_wildcards.obj
 0001:0005b3ac       ?get_invalid_value@__crt_findfile_traits@@SAPEAXXZ 000000018005c3ac f i libucrt:argv_wildcards.obj
 0001:0005b46c       ?set_to_nullptr@?$__crt_win32_buffer@DU__crt_win32_buffer_internal_dynamic_resizing@@@@QEAAXXZ 000000018005c46c f i libucrt:argv_wildcards.obj
 0001:0005b4a8       ?set_to_nullptr@?$__crt_win32_buffer@_WU__crt_win32_buffer_internal_dynamic_resizing@@@@QEAAXXZ 000000018005c4a8 f i libucrt:argv_wildcards.obj
 0001:0005b4e4       ?size@?$__crt_win32_buffer@DU__crt_win32_buffer_internal_dynamic_resizing@@@@QEAAX_K@Z 000000018005c4e4 f i libucrt:argv_wildcards.obj
 0001:0005b4ec       ?size@?$__crt_win32_buffer@_WU__crt_win32_buffer_internal_dynamic_resizing@@@@QEAAX_K@Z 000000018005c4ec f i libucrt:argv_wildcards.obj
 0001:0005b50c       ?strpbrk@@YAPEADQEADQEBD@Z 000000018005c50c f i libucrt:argv_wildcards.obj
 0001:0005b514       ?wcspbrk@@YAPEA_WPEA_WPEB_W@Z 000000018005c514 f i libucrt:argv_wildcards.obj
 0001:0005b51c       __acrt_expand_narrow_argv_wildcards 000000018005c51c f   libucrt:argv_wildcards.obj
 0001:0005b524       __acrt_expand_wide_argv_wildcards 000000018005c524 f   libucrt:argv_wildcards.obj
 0001:0005b52c       ??$__acrt_convert_wcs_mbs_cp@_WDV<lambda_f788ae46380686e8b737efdd8c720d07>@@U__crt_win32_buffer_no_resizing@@@@YAHQEB_WAEAV?$__crt_win32_buffer@DU__crt_win32_buffer_no_resizing@@@@AEBV<lambda_f788ae46380686e8b737efdd8c720d07>@@I@Z 000000018005c52c f i libucrt:getmodulefilenamea.obj
 0001:0005b648       ??$__acrt_wcs_to_mbs_cp@U__crt_win32_buffer_no_resizing@@@@YAHQEB_WAEAV?$__crt_win32_buffer@DU__crt_win32_buffer_no_resizing@@@@I@Z 000000018005c648 f i libucrt:getmodulefilenamea.obj
 0001:0005b658       ??0?$__crt_win32_buffer@DU__crt_win32_buffer_no_resizing@@@@QEAA@QEAD_K@Z 000000018005c658 f i libucrt:getmodulefilenamea.obj
 0001:0005b674       ??1?$__crt_win32_buffer@DU__crt_win32_buffer_no_resizing@@@@QEAA@XZ 000000018005c674 f i libucrt:getmodulefilenamea.obj
 0001:0005b680       ??R<lambda_f788ae46380686e8b737efdd8c720d07>@@QEBA@IQEB_WQEAD_K@Z 000000018005c680 f i libucrt:getmodulefilenamea.obj
 0001:0005b6b0       ?_deallocate@?$__crt_win32_buffer@DU__crt_win32_buffer_no_resizing@@@@AEAAXXZ 000000018005c6b0 f i libucrt:getmodulefilenamea.obj
 0001:0005b6bc       ?allocate@?$__crt_win32_buffer@DU__crt_win32_buffer_no_resizing@@@@QEAAH_K@Z 000000018005c6bc f i libucrt:getmodulefilenamea.obj
 0001:0005b6ec       ?allocate@__crt_win32_buffer_no_resizing@@SAHQEAPEAX_KAEBV__crt_win32_buffer_empty_debug_info@@@Z 000000018005c6ec f i libucrt:getmodulefilenamea.obj
 0001:0005b704       ?capacity@?$__crt_win32_buffer@DU__crt_win32_buffer_no_resizing@@@@QEBA_KXZ 000000018005c704 f i libucrt:getmodulefilenamea.obj
 0001:0005b70c       ?data@?$__crt_win32_buffer@DU__crt_win32_buffer_no_resizing@@@@QEAAPEADXZ 000000018005c70c f i libucrt:getmodulefilenamea.obj
 0001:0005b714       ?deallocate@__crt_win32_buffer_no_resizing@@SAXQEAXAEBV__crt_win32_buffer_empty_debug_info@@@Z 000000018005c714 f i libucrt:getmodulefilenamea.obj
 0001:0005b718       ?debug_info@?$__crt_win32_buffer@DU__crt_win32_buffer_no_resizing@@@@QEBAAEBV__crt_win32_buffer_empty_debug_info@@XZ 000000018005c718 f i libucrt:getmodulefilenamea.obj
 0001:0005b71c       ?set_to_nullptr@?$__crt_win32_buffer@DU__crt_win32_buffer_no_resizing@@@@QEAAXXZ 000000018005c71c f i libucrt:getmodulefilenamea.obj
 0001:0005b734       ?size@?$__crt_win32_buffer@DU__crt_win32_buffer_no_resizing@@@@QEAAX_K@Z 000000018005c734 f i libucrt:getmodulefilenamea.obj
 0001:0005b73c       ?size@?$__crt_win32_buffer@DU__crt_win32_buffer_no_resizing@@@@QEBA_KXZ 000000018005c73c f i libucrt:getmodulefilenamea.obj
 0001:0005b744       __acrt_GetModuleFileNameA  000000018005c744 f   libucrt:getmodulefilenamea.obj
 0001:0005ba60       ??$initialize_from_array@$$BY10BAA@E@?$dual_state_global@PEAE@__crt_state_management@@QEAAXAEAY10BAA@E@Z 000000018005ca60 f i libucrt:mbctype.obj
 0001:0005ba64       ??$initialize_from_array@$$BY10BAB@E@?$dual_state_global@PEAE@__crt_state_management@@QEAAXAEAY10BAB@E@Z 000000018005ca64 f i libucrt:mbctype.obj
 0001:0005bc70       ?dangerous_get_state_array@?$dual_state_global@PEAE@__crt_state_management@@QEAAPEAPEAEXZ 000000018005cc70 f i libucrt:mbctype.obj
 0001:0005bc74       ?dangerous_get_state_array@?$dual_state_global@PEAU__crt_multibyte_data@@@__crt_state_management@@QEAAPEAPEAU__crt_multibyte_data@@XZ 000000018005cc74 f i libucrt:mbctype.obj
 0001:0005bcf8       ?initialize@?$dual_state_global@PEAU__crt_multibyte_data@@@__crt_state_management@@QEAAXQEAU__crt_multibyte_data@@@Z 000000018005ccf8 f i libucrt:mbctype.obj
 0001:0005c2b0       ?value@?$dual_state_global@PEAE@__crt_state_management@@QEAAAEAPEAEXZ 000000018005d2b0 f i libucrt:mbctype.obj
 0001:0005c2b4       __acrt_initialize_multibyte 000000018005d2b4 f   libucrt:mbctype.obj
 0001:0005c314       __acrt_update_thread_multibyte_data 000000018005d314 f   libucrt:mbctype.obj
 0001:0005c330       __p__mbcasemap             000000018005d330 f   libucrt:mbctype.obj
 0001:0005c338       __p__mbctype               000000018005d338 f   libucrt:mbctype.obj
 0001:0005c340       _getmbcp                   000000018005d340 f   libucrt:mbctype.obj
 0001:0005c37c       _setmbcp                   000000018005d37c f   libucrt:mbctype.obj
 0001:0005c3a4       _setmbcp_nolock            000000018005d3a4 f   libucrt:mbctype.obj
 0001:0005c760       _ismbbalnum                000000018005d760 f   libucrt:ismbbyte.obj
 0001:0005c778       _ismbbalnum_l              000000018005d778 f   libucrt:ismbbyte.obj
 0001:0005c794       _ismbbalpha                000000018005d794 f   libucrt:ismbbyte.obj
 0001:0005c7ac       _ismbbalpha_l              000000018005d7ac f   libucrt:ismbbyte.obj
 0001:0005c7c8       _ismbbblank                000000018005d7c8 f   libucrt:ismbbyte.obj
 0001:0005c7e4       _ismbbblank_l              000000018005d7e4 f   libucrt:ismbbyte.obj
 0001:0005c804       _ismbbgraph                000000018005d804 f   libucrt:ismbbyte.obj
 0001:0005c81c       _ismbbgraph_l              000000018005d81c f   libucrt:ismbbyte.obj
 0001:0005c838       _ismbbkalnum               000000018005d838 f   libucrt:ismbbyte.obj
 0001:0005c84c       _ismbbkalnum_l             000000018005d84c f   libucrt:ismbbyte.obj
 0001:0005c864       _ismbbkana                 000000018005d864 f   libucrt:ismbbyte.obj
 0001:0005c86c       _ismbbkana_l               000000018005d86c f   libucrt:ismbbyte.obj
 0001:0005c8d4       _ismbbkprint               000000018005d8d4 f   libucrt:ismbbyte.obj
 0001:0005c8e8       _ismbbkprint_l             000000018005d8e8 f   libucrt:ismbbyte.obj
 0001:0005c900       _ismbbkpunct               000000018005d900 f   libucrt:ismbbyte.obj
 0001:0005c914       _ismbbkpunct_l             000000018005d914 f   libucrt:ismbbyte.obj
 0001:0005c92c       _ismbblead                 000000018005d92c f   libucrt:ismbbyte.obj
 0001:0005c940       _ismbblead_l               000000018005d940 f   libucrt:ismbbyte.obj
 0001:0005c958       _ismbbprint                000000018005d958 f   libucrt:ismbbyte.obj
 0001:0005c970       _ismbbprint_l              000000018005d970 f   libucrt:ismbbyte.obj
 0001:0005c98c       _ismbbpunct                000000018005d98c f   libucrt:ismbbyte.obj
 0001:0005c9a0       _ismbbpunct_l              000000018005d9a0 f   libucrt:ismbbyte.obj
 0001:0005c9b8       _ismbbtrail                000000018005d9b8 f   libucrt:ismbbyte.obj
 0001:0005c9cc       _ismbbtrail_l              000000018005d9cc f   libucrt:ismbbyte.obj
 0001:0005c9e4       __acrt_initialize_command_line 000000018005d9e4 f   libucrt:argv_data.obj
 0001:0005ca0c       __acrt_uninitialize_command_line 000000018005da0c f   libucrt:argv_data.obj
 0001:0005ca10       __p___argc                 000000018005da10 f   libucrt:argv_data.obj
 0001:0005ca18       __p___argv                 000000018005da18 f   libucrt:argv_data.obj
 0001:0005ca20       __p___wargv                000000018005da20 f   libucrt:argv_data.obj
 0001:0005ca28       __p__acmdln                000000018005da28 f   libucrt:argv_data.obj
 0001:0005ca30       __p__pgmptr                000000018005da30 f   libucrt:argv_data.obj
 0001:0005ca38       __p__wcmdln                000000018005da38 f   libucrt:argv_data.obj
 0001:0005ca40       __p__wpgmptr               000000018005da40 f   libucrt:argv_data.obj
 0001:0005ca48       _get_pgmptr                000000018005da48 f   libucrt:argv_data.obj
 0001:0005ca80       _get_wpgmptr               000000018005da80 f   libucrt:argv_data.obj
 0001:0005cb44       __acrt_MultiByteToWideChar 000000018005db44 f   libucrt:multibytetowidechar.obj
 0001:0005cc5c       __acrt_WideCharToMultiByte 000000018005dc5c f   libucrt:widechartomultibyte.obj
 0001:0005cddc       __dcrt_get_narrow_environment_from_os 000000018005dddc f   libucrt:get_environment_from_os.obj
 0001:0005ceec       __dcrt_get_wide_environment_from_os 000000018005deec f   libucrt:get_environment_from_os.obj
 0001:0005d984       ??$get_or_create_environment_nolock@$$V@?$__crt_char_traits@D@@SAPEAPEADXZ 000000018005e984 f i libucrt:setenv.obj
 0001:0005d98c       ??$get_or_create_environment_nolock@$$V@?$__crt_char_traits@_W@@SAPEAPEA_WXZ 000000018005e98c f i libucrt:setenv.obj
 0001:0005d994       ??$set_environment_variable@AEBQEADQEAD@?$__crt_char_traits@D@@SAHAEBQEAD$$QEBQEAD@Z 000000018005e994 f i libucrt:setenv.obj
 0001:0005d9a0       ??$set_environment_variable@AEBQEA_WQEA_W@?$__crt_char_traits@_W@@SAHAEBQEA_W$$QEBQEA_W@Z 000000018005e9a0 f i libucrt:setenv.obj
 0001:0005d9b0       ??$tcschr@AEBQEADD@?$__crt_char_traits@D@@SAPEADAEBQEAD$$QEAD@Z 000000018005e9b0 f i libucrt:setenv.obj
 0001:0005d9bc       ??$tcschr@AEBQEA_WD@?$__crt_char_traits@_W@@SAPEA_WAEBQEA_W$$QEAD@Z 000000018005e9bc f i libucrt:setenv.obj
 0001:0005d9c8       ??$tcscpy_s@AEAPEADAEB_KAEAPEAD@?$__crt_char_traits@D@@SAHAEAPEADAEB_K0@Z 000000018005e9c8 f i libucrt:setenv.obj
 0001:0005d9d8       ??$tcscpy_s@AEAPEA_WAEB_KAEAPEA_W@?$__crt_char_traits@_W@@SAHAEAPEA_WAEB_K0@Z 000000018005e9d8 f i libucrt:setenv.obj
 0001:0005d9e8       ??$tcscpy_s@AEBQEADAEB_KAEBQEAD@?$__crt_char_traits@D@@SAHAEBQEADAEB_K0@Z 000000018005e9e8 f i libucrt:setenv.obj
 0001:0005d9f8       ??$tcscpy_s@AEBQEA_WAEB_KAEBQEA_W@?$__crt_char_traits@_W@@SAHAEBQEA_WAEB_K0@Z 000000018005e9f8 f i libucrt:setenv.obj
 0001:0005da08       ??$tcslen@AEBQEAD@?$__crt_char_traits@D@@SA_KAEBQEAD@Z 000000018005ea08 f i libucrt:setenv.obj
 0001:0005da1c       ??$tcslen@AEBQEA_W@?$__crt_char_traits@_W@@SA_KAEBQEA_W@Z 000000018005ea1c f i libucrt:setenv.obj
 0001:0005da30       ??$tcsnicoll@AEBQEBDAEAPEADAEB_K@?$__crt_char_traits@D@@SAHAEBQEBDAEAPEADAEB_K@Z 000000018005ea30 f i libucrt:setenv.obj
 0001:0005da40       ??$tcsnicoll@AEBQEB_WAEAPEA_WAEB_K@?$__crt_char_traits@_W@@SAHAEBQEB_WAEAPEA_WAEB_K@Z 000000018005ea40 f i libucrt:setenv.obj
 0001:0005da80       ?strchr@@YAPEADQEADH@Z     000000018005ea80 f i libucrt:setenv.obj
 0001:0005da88       ?wcschr@@YAPEA_WPEA_W_W@Z  000000018005ea88 f i libucrt:setenv.obj
 0001:0005da90       __dcrt_set_variable_in_narrow_environment_nolock 000000018005ea90 f   libucrt:setenv.obj
 0001:0005da98       __dcrt_set_variable_in_wide_environment_nolock 000000018005ea98 f   libucrt:setenv.obj
 0001:0005daa0       __acrt_getheap             000000018005eaa0 f   libucrt:heap_handle.obj
 0001:0005daa8       __acrt_initialize_heap     000000018005eaa8 f   libucrt:heap_handle.obj
 0001:0005dac4       __acrt_uninitialize_heap   000000018005eac4 f   libucrt:heap_handle.obj
 0001:0005dad0       _get_heap_handle           000000018005ead0 f   libucrt:heap_handle.obj
 0001:0005dad8       __acrt_execute_initializers 000000018005ead8 f   libucrt:shared_initialization.obj
 0001:0005db6c       __acrt_execute_uninitializers 000000018005eb6c f   libucrt:shared_initialization.obj
 0001:0005dbb4       ??$__crt_fast_decode_pointer@P6AHPEAU_exception@@@Z@@YAP6AHPEAU_exception@@@ZQ6AH0@Z@Z 000000018005ebb4 f i libucrt:matherr.obj
 0001:0005dbcc       ??$__crt_fast_encode_pointer@P6AHPEAU_exception@@@Z@@YAP6AHPEAU_exception@@@ZQ6AH0@Z@Z 000000018005ebcc f i libucrt:matherr.obj
 0001:0005dbec       ?initialize@?$dual_state_global@P6AHPEAU_exception@@@Z@__crt_state_management@@QEAAXQ6AHPEAU_exception@@@Z@Z 000000018005ebec f i libucrt:matherr.obj
 0001:0005dbfc       ?value@?$dual_state_global@P6AHPEAU_exception@@@Z@__crt_state_management@@QEAAAEAP6AHPEAU_exception@@@ZXZ 000000018005ebfc f i libucrt:matherr.obj
 0001:0005dc00       __acrt_has_user_matherr    000000018005ec00 f   libucrt:matherr.obj
 0001:0005dc20       __acrt_initialize_user_matherr 000000018005ec20 f   libucrt:matherr.obj
 0001:0005dc28       __acrt_invoke_user_matherr 000000018005ec28 f   libucrt:matherr.obj
 0001:0005dc64       __setusermatherr           000000018005ec64 f   libucrt:matherr.obj
 0001:0005dc8c       __pctype_func              000000018005ec8c f   libucrt:ctype.obj
 0001:0005dcbc       __pwctype_func             000000018005ecbc f   libucrt:ctype.obj
 0001:0005dcc4       _isctype                   000000018005ecc4 f   libucrt:isctype.obj
 0001:0005dcf4       _isctype_l                 000000018005ecf4 f   libucrt:isctype.obj
 0001:0005ddfc       __acrt_add_locale_ref      000000018005edfc f   libucrt:locale_refcounting.obj
 0001:0005de88       __acrt_free_locale         000000018005ee88 f   libucrt:locale_refcounting.obj
 0001:0005e000       __acrt_locale_add_lc_time_reference 000000018005f000 f   libucrt:locale_refcounting.obj
 0001:0005e028       __acrt_locale_free_lc_time_if_unreferenced 000000018005f028 f   libucrt:locale_refcounting.obj
 0001:0005e060       __acrt_locale_release_lc_time_reference 000000018005f060 f   libucrt:locale_refcounting.obj
 0001:0005e088       __acrt_release_locale_ref  000000018005f088 f   libucrt:locale_refcounting.obj
 0001:0005e130       __acrt_update_thread_locale_data 000000018005f130 f   libucrt:locale_refcounting.obj
 0001:0005e1a0       _updatetlocinfoEx_nolock   000000018005f1a0 f   libucrt:locale_refcounting.obj
 0001:0005e208       ??$?RG@__crt_internal_free_policy@@QEBAXQEBG@Z 000000018005f208 f i libucrt:initctype.obj
 0001:0005e210       ??$?RJ@__crt_internal_free_policy@@QEBAXQEBJ@Z 000000018005f210 f i libucrt:initctype.obj
 0001:0005e218       ??0?$__crt_unique_heap_ptr@GU__crt_internal_free_policy@@@@QEAA@QEAG@Z 000000018005f218 f i libucrt:initctype.obj
 0001:0005e220       ??0?$__crt_unique_heap_ptr@JU__crt_internal_free_policy@@@@QEAA@QEAJ@Z 000000018005f220 f i libucrt:initctype.obj
 0001:0005e228       ??1?$__crt_unique_heap_ptr@GU__crt_internal_free_policy@@@@QEAA@XZ 000000018005f228 f i libucrt:initctype.obj
 0001:0005e244       ??1?$__crt_unique_heap_ptr@JU__crt_internal_free_policy@@@@QEAA@XZ 000000018005f244 f i libucrt:initctype.obj
 0001:0005e260       ?detach@?$__crt_unique_heap_ptr@GU__crt_internal_free_policy@@@@QEAAPEAGXZ 000000018005f260 f i libucrt:initctype.obj
 0001:0005e268       ?detach@?$__crt_unique_heap_ptr@JU__crt_internal_free_policy@@@@QEAAPEAJXZ 000000018005f268 f i libucrt:initctype.obj
 0001:0005e270       ?release@?$__crt_unique_heap_ptr@GU__crt_internal_free_policy@@@@QEAAXXZ 000000018005f270 f i libucrt:initctype.obj
 0001:0005e28c       ?release@?$__crt_unique_heap_ptr@JU__crt_internal_free_policy@@@@QEAAXXZ 000000018005f28c f i libucrt:initctype.obj
 0001:0005e2a8       ___lc_codepage_func        000000018005f2a8 f   libucrt:initctype.obj
 0001:0005e2d8       ___lc_collate_cp_func      000000018005f2d8 f   libucrt:initctype.obj
 0001:0005e308       ___lc_locale_name_func     000000018005f308 f   libucrt:initctype.obj
 0001:0005e33c       ___mb_cur_max_func         000000018005f33c f   libucrt:initctype.obj
 0001:0005e36c       ___mb_cur_max_l_func       000000018005f36c f   libucrt:initctype.obj
 0001:0005e37c       __acrt_locale_initialize_ctype 000000018005f37c f   libucrt:initctype.obj
 0001:0005e9e0       ??$?RUlconv@@@__crt_internal_free_policy@@QEBAXQEBUlconv@@@Z 000000018005f9e0 f i libucrt:initmon.obj
 0001:0005e9e8       ??0?$__crt_unique_heap_ptr@Ulconv@@U__crt_internal_free_policy@@@@QEAA@QEAUlconv@@@Z 000000018005f9e8 f i libucrt:initmon.obj
 0001:0005e9f0       ??1?$__crt_unique_heap_ptr@Ulconv@@U__crt_internal_free_policy@@@@QEAA@XZ 000000018005f9f0 f i libucrt:initmon.obj
 0001:0005ea0c       ?detach@?$__crt_unique_heap_ptr@Ulconv@@U__crt_internal_free_policy@@@@QEAAPEAUlconv@@XZ 000000018005fa0c f i libucrt:initmon.obj
 0001:0005ea14       ?release@?$__crt_unique_heap_ptr@Ulconv@@U__crt_internal_free_policy@@@@QEAAXXZ 000000018005fa14 f i libucrt:initmon.obj
 0001:0005ea30       __acrt_locale_free_monetary 000000018005fa30 f   libucrt:initmon.obj
 0001:0005eb3c       __acrt_locale_initialize_monetary 000000018005fb3c f   libucrt:initmon.obj
 0001:0005f08c       __acrt_locale_free_numeric 000000018006008c f   libucrt:initnum.obj
 0001:0005f0f8       __acrt_locale_initialize_numeric 00000001800600f8 f   libucrt:initnum.obj
 0001:0005f414       ??$?RU__crt_lc_time_data@@@__crt_internal_free_policy@@QEBAXQEBU__crt_lc_time_data@@@Z 0000000180060414 f i libucrt:inittime.obj
 0001:0005f464       ??0?$__crt_unique_heap_ptr@U__crt_lc_time_data@@U__crt_internal_free_policy@@@@QEAA@QEAU__crt_lc_time_data@@@Z 0000000180060464 f i libucrt:inittime.obj
 0001:0005f46c       ??1?$__crt_unique_heap_ptr@U__crt_lc_time_data@@U__crt_internal_free_policy@@@@QEAA@XZ 000000018006046c f i libucrt:inittime.obj
 0001:0005f488       ??B?$__crt_unique_heap_ptr@U__crt_lc_time_data@@U__crt_internal_free_policy@@@@QEBA_NXZ 0000000180060488 f i libucrt:inittime.obj
 0001:0005f490       ?detach@?$__crt_unique_heap_ptr@U__crt_lc_time_data@@U__crt_internal_free_policy@@@@QEAAPEAU__crt_lc_time_data@@XZ 0000000180060490 f i libucrt:inittime.obj
 0001:0005f4cc       ?get@?$__crt_unique_heap_ptr@U__crt_lc_time_data@@U__crt_internal_free_policy@@@@QEBAPEAU__crt_lc_time_data@@XZ 00000001800604cc f i libucrt:inittime.obj
 0001:0005f890       ?is_valid@?$__crt_unique_heap_ptr@U__crt_lc_time_data@@U__crt_internal_free_policy@@@@QEBA_NXZ 0000000180060890 f i libucrt:inittime.obj
 0001:0005f898       ?release@?$__crt_unique_heap_ptr@U__crt_lc_time_data@@U__crt_internal_free_policy@@@@QEAAXXZ 0000000180060898 f i libucrt:inittime.obj
 0001:0005f8b4       __acrt_locale_free_time    00000001800608b4 f   libucrt:inittime.obj
 0001:0005f9bc       __acrt_locale_initialize_time 00000001800609bc f   libucrt:inittime.obj
 0001:0005fad4       wcscat_s                   0000000180060ad4 f   libucrt:wcscat_s.obj
 0001:0005fc44       wcsncat_s                  0000000180060c44 f   libucrt:wcsncat_s.obj
 0001:0005fd3c       wcscspn                    0000000180060d3c f   libucrt:wcscspn.obj
 0001:0005fd7c       wcspbrk                    0000000180060d7c f   libucrt:wcspbrk.obj
 0001:0005fdb0       __acrt_GetStringTypeA      0000000180060db0 f   libucrt:getstringtypea.obj
 0001:0006078c       __acrt_get_qualified_locale 000000018006178c f   libucrt:get_qualified_locale.obj
 0001:000612a4       __acrt_get_qualified_locale_downlevel 00000001800622a4 f   libucrt:getqloc_downlevel.obj
 0001:00061524       localeconv                 0000000180062524 f   libucrt:localeconv.obj
 0001:00061558       _query_new_mode            0000000180062558 f   libucrt:new_mode.obj
 0001:00061560       _set_new_mode              0000000180062560 f   libucrt:new_mode.obj
 0001:00061674       __acrt_fp_strflt_to_string 0000000180062674 f   libucrt:_fptostr.obj
 0001:000628c0       ??0big_integer@__crt_strtox@@QEAA@AEBU01@@Z 00000001800638c0 f i libucrt:cfout.obj
 0001:000628f0       ??0big_integer@__crt_strtox@@QEAA@XZ 00000001800638f0 f i libucrt:cfout.obj
 0001:000629a0       ??4big_integer@__crt_strtox@@QEAAAEAU01@AEBU01@@Z 00000001800639a0 f i libucrt:cfout.obj
 0001:000629d0       ??8__crt_strtox@@YA_NAEBUbig_integer@0@0@Z 00000001800639d0 f i libucrt:cfout.obj
 0001:00062a00       ??9__crt_strtox@@YA_NAEBUbig_integer@0@0@Z 0000000180063a00 f i libucrt:cfout.obj
 0001:00062a40       ?add_carry@__crt_strtox@@YAIAEAIII@Z 0000000180063a40 f i libucrt:cfout.obj
 0001:00062a60       ?add_multiply_carry@__crt_strtox@@YAIAEAIIII@Z 0000000180063a60 f i libucrt:cfout.obj
 0001:00062a80       ?bit_scan_reverse@__crt_strtox@@YAII@Z 0000000180063a80 f i libucrt:cfout.obj
 0001:00062aa0       ?count_sequential_high_zeroes@__crt_strtox@@YAII@Z 0000000180063aa0 f i libucrt:cfout.obj
 0001:00062ac0       ?divide@__crt_strtox@@YA_KAEAUbig_integer@1@AEBU21@@Z 0000000180063ac0 f i libucrt:cfout.obj
 0001:00062f60       ?is_zero@__crt_strtox@@YA_NAEBUbig_integer@1@@Z 0000000180063f60 f i libucrt:cfout.obj
 0001:00062f70       ?make_big_integer@__crt_strtox@@YA?AUbig_integer@1@_K@Z 0000000180063f70 f i libucrt:cfout.obj
 0001:00062f90       ?make_big_integer_power_of_two@__crt_strtox@@YA?AUbig_integer@1@I@Z 0000000180063f90 f i libucrt:cfout.obj
 0001:00063000       ?multiply@__crt_strtox@@YA_NAEAUbig_integer@1@AEBU21@@Z 0000000180064000 f i libucrt:cfout.obj
 0001:000633a0       ?multiply@__crt_strtox@@YA_NAEAUbig_integer@1@I@Z 00000001800643a0 f i libucrt:cfout.obj
 0001:00063490       ?multiply_64_32@__crt_strtox@@YA_K_KI@Z 0000000180064490 f i libucrt:cfout.obj
 0001:000634a0       ?multiply_by_power_of_ten@__crt_strtox@@YA_NAEAUbig_integer@1@I@Z 00000001800644a0 f i libucrt:cfout.obj
 0001:00063a10       ?multiply_core@__crt_strtox@@YAIQEAIII@Z 0000000180064a10 f i libucrt:cfout.obj
 0001:00063a60       ?shift_left@__crt_strtox@@YA_NAEAUbig_integer@1@I@Z 0000000180064a60 f i libucrt:cfout.obj
 0001:00063bdc       __acrt_fltout              0000000180064bdc f   libucrt:cfout.obj
 0001:00064ef4       __fpe_flt_rounds           0000000180065ef4 f   libucrt:fegetround.obj
 0001:00064f3c       fegetround                 0000000180065f3c f   libucrt:fegetround.obj
 0001:00064f50       ?__c32rtomb_utf8@__crt_mbstring@@YA_KPEAD_UPEAU_Mbstatet@@AEAV__crt_cached_ptd_host@@@Z 0000000180065f50 f   libucrt:c32rtomb.obj
 0001:00064ff4       c32rtomb                   0000000180065ff4 f   libucrt:c32rtomb.obj
 0001:000650b8       ?__mbrtowc_utf8@__crt_mbstring@@YA_KPEA_WPEBD_KPEAU_Mbstatet@@AEAV__crt_cached_ptd_host@@@Z 00000001800660b8 f   libucrt:mbrtowc.obj
 0001:000650fc       ?__mbsrtowcs_utf8@__crt_mbstring@@YA_KPEA_WPEAPEBD_KPEAU_Mbstatet@@AEAV__crt_cached_ptd_host@@@Z 00000001800660fc f   libucrt:mbrtowc.obj
 0001:0006572c       btowc                      000000018006672c f   libucrt:mbrtowc.obj
 0001:00065804       mbrlen                     0000000180066804 f   libucrt:mbrtowc.obj
 0001:000658cc       mbrtowc                    00000001800668cc f   libucrt:mbrtowc.obj
 0001:000659b4       mbsrtowcs                  00000001800669b4 f   libucrt:mbrtowc.obj
 0001:00065a58       mbsrtowcs_s                0000000180066a58 f   libucrt:mbrtowc.obj
 0001:00065fc0       __acrt_stdio_flush_and_write_narrow_nolock 0000000180066fc0 f   libucrt:_flsbuf.obj
 0001:0006608c       __acrt_stdio_flush_and_write_wide_nolock 000000018006708c f   libucrt:_flsbuf.obj
 0001:00066158       _isatty                    0000000180067158 f   libucrt:isatty.obj
 0001:000661b8       ??$?RU__crt_lowio_handle_data@@@__crt_internal_free_policy@@QEBAXQEBU__crt_lowio_handle_data@@@Z 00000001800671b8 f i libucrt:osfinfo.obj
 0001:000661c0       ??0?$__crt_unique_heap_ptr@U__crt_lowio_handle_data@@U__crt_internal_free_policy@@@@QEAA@QEAU__crt_lowio_handle_data@@@Z 00000001800671c0 f i libucrt:osfinfo.obj
 0001:000661c8       ??1?$__crt_unique_heap_ptr@U__crt_lowio_handle_data@@U__crt_internal_free_policy@@@@QEAA@XZ 00000001800671c8 f i libucrt:osfinfo.obj
 0001:000661e4       ??B?$__crt_unique_heap_ptr@U__crt_lowio_handle_data@@U__crt_internal_free_policy@@@@QEBA_NXZ 00000001800671e4 f i libucrt:osfinfo.obj
 0001:000661ec       ?detach@?$__crt_unique_heap_ptr@U__crt_lowio_handle_data@@U__crt_internal_free_policy@@@@QEAAPEAU__crt_lowio_handle_data@@XZ 00000001800671ec f i libucrt:osfinfo.obj
 0001:000661f4       ?get@?$__crt_unique_heap_ptr@U__crt_lowio_handle_data@@U__crt_internal_free_policy@@@@QEBAPEAU__crt_lowio_handle_data@@XZ 00000001800671f4 f i libucrt:osfinfo.obj
 0001:000661f8       ?is_valid@?$__crt_unique_heap_ptr@U__crt_lowio_handle_data@@U__crt_internal_free_policy@@@@QEBA_NXZ 00000001800671f8 f i libucrt:osfinfo.obj
 0001:00066200       ?release@?$__crt_unique_heap_ptr@U__crt_lowio_handle_data@@U__crt_internal_free_policy@@@@QEAAXXZ 0000000180067200 f i libucrt:osfinfo.obj
 0001:0006621c       __acrt_lowio_create_handle_array 000000018006721c f   libucrt:osfinfo.obj
 0001:000662c4       __acrt_lowio_destroy_handle_array 00000001800672c4 f   libucrt:osfinfo.obj
 0001:00066314       __acrt_lowio_ensure_fh_exists 0000000180067314 f   libucrt:osfinfo.obj
 0001:000663bc       __acrt_lowio_lock_fh       00000001800673bc f   libucrt:osfinfo.obj
 0001:000663e4       __acrt_lowio_set_os_handle 00000001800673e4 f   libucrt:osfinfo.obj
 0001:000664a4       __acrt_lowio_unlock_fh     00000001800674a4 f   libucrt:osfinfo.obj
 0001:000664cc       _alloc_osfhnd              00000001800674cc f   libucrt:osfinfo.obj
 0001:0006660c       _free_osfhnd               000000018006760c f   libucrt:osfinfo.obj
 0001:000666c8       _get_osfhandle             00000001800676c8 f   libucrt:osfinfo.obj
 0001:00066740       _open_osfhandle            0000000180067740 f   libucrt:osfinfo.obj
 0001:00066840       __acrt_GetStringTypeW      0000000180067840 f   libucrt:getstringtypew.obj
 0001:00066918       __acrt_DownlevelLCIDToLocaleName 0000000180067918 f   libucrt:lcidtoname_downlevel.obj
 0001:00066a00       __acrt_DownlevelLocaleNameToLCID 0000000180067a00 f   libucrt:lcidtoname_downlevel.obj
 0001:00066be8       _commit                    0000000180067be8 f   libucrt:commit.obj
 0001:00067628       _utf8_no_of_trailbytes     0000000180068628 f i libucrt:write.obj
 0001:00067638       _write                     0000000180068638 f   libucrt:write.obj
 0001:000676d0       _write_internal            00000001800686d0 f   libucrt:write.obj
 0001:000677f0       _write_nolock              00000001800687f0 f   libucrt:write.obj
 0001:00067af8       __ascii_wcsnicmp           0000000180068af8 f   libucrt:wcsnicmp.obj
 0001:00067b44       _wcsnicmp                  0000000180068b44 f   libucrt:wcsnicmp.obj
 0001:00067b8c       _wcsnicmp_l                0000000180068b8c f   libucrt:wcsnicmp.obj
 0001:00067ce0       __ascii_strnicmp           0000000180068ce0 f   libucrt:strnicmp.obj
 0001:00067d2c       _strnicmp                  0000000180068d2c f   libucrt:strnicmp.obj
 0001:00067d7c       _strnicmp_l                0000000180068d7c f   libucrt:strnicmp.obj
 0001:00068114       ??$tsopen_nolock@PEAHAEBQEAHAEBQEBDAEBHAEBHAEBHAEBH@?$__crt_char_traits@D@@SAH$$QEAPEAHAEBQEAHAEBQEBDAEBH333@Z 0000000180069114 f i libucrt:open.obj
 0001:0006814c       ??$tsopen_nolock@PEAHAEBQEAHAEBQEB_WAEBHAEBHAEBHAEBH@?$__crt_char_traits@_W@@SAH$$QEAPEAHAEBQEAHAEBQEB_WAEBH333@Z 000000018006914c f i libucrt:open.obj
 0001:00068184       ??$tsopen_nolock@PEAHPEAHAEBQEBDAEBHHAEBHH@?$__crt_char_traits@D@@SAH$$QEAPEAH0AEBQEBDAEBH$$QEAH23@Z 0000000180069184 f i libucrt:open.obj
 0001:000681bc       ??$tsopen_nolock@PEAHPEAHAEBQEB_WAEBHHAEBHH@?$__crt_char_traits@_W@@SAH$$QEAPEAH0AEBQEB_WAEBH$$QEAH23@Z 00000001800691bc f i libucrt:open.obj
 0001:00068900       _open                      0000000180069900 f   libucrt:open.obj
 0001:00068924       _sopen                     0000000180069924 f   libucrt:open.obj
 0001:00068964       _sopen_dispatch            0000000180069964 f   libucrt:open.obj
 0001:0006896c       _sopen_nolock              000000018006996c f   libucrt:open.obj
 0001:00068a88       _sopen_s                   0000000180069a88 f   libucrt:open.obj
 0001:00068abc       _wopen                     0000000180069abc f   libucrt:open.obj
 0001:00068ae0       _wsopen                    0000000180069ae0 f   libucrt:open.obj
 0001:00068b20       _wsopen_dispatch           0000000180069b20 f   libucrt:open.obj
 0001:00068b28       _wsopen_nolock             0000000180069b28 f   libucrt:open.obj
 0001:00068f18       _wsopen_s                  0000000180069f18 f   libucrt:open.obj
 0001:00068f4c       __p__commode               0000000180069f4c f   libucrt:ncommode.obj
 0001:00068f54       _towlower_l                0000000180069f54 f   libucrt:towlower.obj
 0001:00069048       towlower                   000000018006a048 f   libucrt:towlower.obj
 0001:00069050       ??$parse_integer_from_string@JDPEAPEAD@__crt_strtox@@YAJQEBDQEAPEADHQEAU__crt_locale_pointers@@@Z 000000018006a050 f i libucrt:strtox.obj
 0001:0006910c       ??$parse_integer_from_string@J_WPEAPEA_W@__crt_strtox@@YAJQEB_WQEAPEA_WHQEAU__crt_locale_pointers@@@Z 000000018006a10c f i libucrt:strtox.obj
 0001:000691c8       ??$parse_integer_from_string@KDPEAPEAD@__crt_strtox@@YAKQEBDQEAPEADHQEAU__crt_locale_pointers@@@Z 000000018006a1c8 f i libucrt:strtox.obj
 0001:00069284       ??$parse_integer_from_string@K_WPEAPEA_W@__crt_strtox@@YAKQEB_WQEAPEA_WHQEAU__crt_locale_pointers@@@Z 000000018006a284 f i libucrt:strtox.obj
 0001:00069340       ??$parse_integer_from_string@_JDPEAPEAD@__crt_strtox@@YA_JQEBDQEAPEADHQEAU__crt_locale_pointers@@@Z 000000018006a340 f i libucrt:strtox.obj
 0001:00069400       ??$parse_integer_from_string@_J_WPEAPEA_W@__crt_strtox@@YA_JQEB_WQEAPEA_WHQEAU__crt_locale_pointers@@@Z 000000018006a400 f i libucrt:strtox.obj
 0001:000694c0       ??$parse_integer_from_string@_KDPEAPEAD@__crt_strtox@@YA_KQEBDQEAPEADHQEAU__crt_locale_pointers@@@Z 000000018006a4c0 f i libucrt:strtox.obj
 0001:00069580       ??$parse_integer_from_string@_K_WPEAPEA_W@__crt_strtox@@YA_KQEB_WQEAPEA_WHQEAU__crt_locale_pointers@@@Z 000000018006a580 f i libucrt:strtox.obj
 0001:00069640       _strtoi64                  000000018006a640 f   libucrt:strtox.obj
 0001:000696f4       _strtoi64_l                000000018006a6f4 f   libucrt:strtox.obj
 0001:000697b4       _strtoimax_l               000000018006a7b4 f   libucrt:strtox.obj
 0001:00069874       _strtol_l                  000000018006a874 f   libucrt:strtox.obj
 0001:00069930       _strtoll_l                 000000018006a930 f   libucrt:strtox.obj
 0001:000699f0       _strtoui64                 000000018006a9f0 f   libucrt:strtox.obj
 0001:00069aa4       _strtoui64_l               000000018006aaa4 f   libucrt:strtox.obj
 0001:00069b64       _strtoul_l                 000000018006ab64 f   libucrt:strtox.obj
 0001:00069c20       _strtoull_l                000000018006ac20 f   libucrt:strtox.obj
 0001:00069ce0       _strtoumax_l               000000018006ace0 f   libucrt:strtox.obj
 0001:00069da0       _wcstoi64                  000000018006ada0 f   libucrt:strtox.obj
 0001:00069e54       _wcstoi64_l                000000018006ae54 f   libucrt:strtox.obj
 0001:00069f14       _wcstoimax_l               000000018006af14 f   libucrt:strtox.obj
 0001:00069fd4       _wcstol_l                  000000018006afd4 f   libucrt:strtox.obj
 0001:0006a090       _wcstoll_l                 000000018006b090 f   libucrt:strtox.obj
 0001:0006a150       _wcstoui64                 000000018006b150 f   libucrt:strtox.obj
 0001:0006a204       _wcstoui64_l               000000018006b204 f   libucrt:strtox.obj
 0001:0006a2c4       _wcstoul_l                 000000018006b2c4 f   libucrt:strtox.obj
 0001:0006a380       _wcstoull_l                000000018006b380 f   libucrt:strtox.obj
 0001:0006a440       _wcstoumax_l               000000018006b440 f   libucrt:strtox.obj
 0001:0006a500       strtoimax                  000000018006b500 f   libucrt:strtox.obj
 0001:0006a5b4       strtol                     000000018006b5b4 f   libucrt:strtox.obj
 0001:0006a668       strtoll                    000000018006b668 f   libucrt:strtox.obj
 0001:0006a71c       strtoul                    000000018006b71c f   libucrt:strtox.obj
 0001:0006a7d0       strtoull                   000000018006b7d0 f   libucrt:strtox.obj
 0001:0006a884       strtoumax                  000000018006b884 f   libucrt:strtox.obj
 0001:0006a938       wcstoimax                  000000018006b938 f   libucrt:strtox.obj
 0001:0006a9ec       wcstol                     000000018006b9ec f   libucrt:strtox.obj
 0001:0006aaa0       wcstoll                    000000018006baa0 f   libucrt:strtox.obj
 0001:0006ab54       wcstoul                    000000018006bb54 f   libucrt:strtox.obj
 0001:0006ac08       wcstoull                   000000018006bc08 f   libucrt:strtox.obj
 0001:0006acbc       wcstoumax                  000000018006bcbc f   libucrt:strtox.obj
 0001:0006b660       ??$tcscpy_s@AEAPEADAEB_KAEBQEBD@?$__crt_char_traits@D@@SAHAEAPEADAEB_KAEBQEBD@Z 000000018006c660 f i libucrt:getenv.obj
 0001:0006b670       ??$tcscpy_s@AEAPEA_WAEB_KAEBQEB_W@?$__crt_char_traits@_W@@SAHAEAPEA_WAEB_KAEBQEB_W@Z 000000018006c670 f i libucrt:getenv.obj
 0001:0006b680       ??$tcscpy_s@AEBQEADAEB_KAEBQEBD@?$__crt_char_traits@D@@SAHAEBQEADAEB_KAEBQEBD@Z 000000018006c680 f i libucrt:getenv.obj
 0001:0006b690       ??$tcscpy_s@AEBQEA_WAEB_KAEBQEB_W@?$__crt_char_traits@_W@@SAHAEBQEA_WAEB_KAEBQEB_W@Z 000000018006c690 f i libucrt:getenv.obj
 0001:0006b6a0       ??$tcsnicoll@AEAPEADAEBQEBDAEB_K@?$__crt_char_traits@D@@SAHAEAPEADAEBQEBDAEB_K@Z 000000018006c6a0 f i libucrt:getenv.obj
 0001:0006b6b0       ??$tcsnicoll@AEAPEA_WAEBQEB_WAEB_K@?$__crt_char_traits@_W@@SAHAEAPEA_WAEBQEB_WAEB_K@Z 000000018006c6b0 f i libucrt:getenv.obj
 0001:0006b6c0       ??$tcsnlen@AEBQEBDH@?$__crt_char_traits@D@@SA_KAEBQEBD$$QEAH@Z 000000018006c6c0 f i libucrt:getenv.obj
 0001:0006b6cc       ??$tcsnlen@AEBQEB_WH@?$__crt_char_traits@_W@@SA_KAEBQEB_W$$QEAH@Z 000000018006c6cc f i libucrt:getenv.obj
 0001:0006b6d8       _dupenv_s                  000000018006c6d8 f   libucrt:getenv.obj
 0001:0006b6f8       _wdupenv_s                 000000018006c6f8 f   libucrt:getenv.obj
 0001:0006b718       _wgetenv                   000000018006c718 f   libucrt:getenv.obj
 0001:0006b720       _wgetenv_s                 000000018006c720 f   libucrt:getenv.obj
 0001:0006b728       getenv                     000000018006c728 f   libucrt:getenv.obj
 0001:0006b730       getenv_s                   000000018006c730 f   libucrt:getenv.obj
 0001:0006b840       qsort                      000000018006c840 f   libucrt:qsort.obj
 0001:0006bd30       strncpy_s                  000000018006cd30 f   libucrt:strncpy_s.obj
 0001:0006bec0       strpbrk                    000000018006cec0 f   libucrt:strpbrk.obj
 0001:0006c288       _mbsdec                    000000018006d288 f   libucrt:mbsdec.obj
 0001:0006c290       _mbsdec_l                  000000018006d290 f   libucrt:mbsdec.obj
 0001:0006c658       __acrt_LCMapStringA        000000018006d658 f   libucrt:lcmapstringa.obj
 0001:0006c708       _wcsnicoll                 000000018006d708 f   libucrt:wcsnicol.obj
 0001:0006c758       _wcsnicoll_l               000000018006d758 f   libucrt:wcsnicol.obj
 0001:0006c848       _strnicoll                 000000018006d848 f   libucrt:strnicol.obj
 0001:0006c860       _strnicoll_l               000000018006d860 f   libucrt:strnicol.obj
 0001:0006c960       __acrt_SetEnvironmentVariableA 000000018006d960 f   libucrt:setenvironmentvariablea.obj
 0001:0006cc7c       __acrt_GetLocaleInfoA      000000018006dc7c f   libucrt:getlocaleinfoa.obj
 0001:0006d36c       _i64toa                    000000018006e36c f   libucrt:xtoa.obj
 0001:0006d3a0       _i64toa_s                  000000018006e3a0 f   libucrt:xtoa.obj
 0001:0006d3c4       _i64tow                    000000018006e3c4 f   libucrt:xtoa.obj
 0001:0006d3f8       _i64tow_s                  000000018006e3f8 f   libucrt:xtoa.obj
 0001:0006d41c       _itoa                      000000018006e41c f   libucrt:xtoa.obj
 0001:0006d44c       _itoa_s                    000000018006e44c f   libucrt:xtoa.obj
 0001:0006d46c       _itow                      000000018006e46c f   libucrt:xtoa.obj
 0001:0006d49c       _itow_s                    000000018006e49c f   libucrt:xtoa.obj
 0001:0006d4bc       _ltoa                      000000018006e4bc f   libucrt:xtoa.obj
 0001:0006d4ec       _ltoa_s                    000000018006e4ec f   libucrt:xtoa.obj
 0001:0006d50c       _ltow                      000000018006e50c f   libucrt:xtoa.obj
 0001:0006d53c       _ltow_s                    000000018006e53c f   libucrt:xtoa.obj
 0001:0006d55c       _ui64toa                   000000018006e55c f   libucrt:xtoa.obj
 0001:0006d580       _ui64toa_s                 000000018006e580 f   libucrt:xtoa.obj
 0001:0006d594       _ui64tow                   000000018006e594 f   libucrt:xtoa.obj
 0001:0006d5b8       _ui64tow_s                 000000018006e5b8 f   libucrt:xtoa.obj
 0001:0006d5cc       _ultoa                     000000018006e5cc f   libucrt:xtoa.obj
 0001:0006d5f0       _ultoa_s                   000000018006e5f0 f   libucrt:xtoa.obj
 0001:0006d604       _ultow                     000000018006e604 f   libucrt:xtoa.obj
 0001:0006d628       _ultow_s                   000000018006e628 f   libucrt:xtoa.obj
 0001:0006d63c       _controlfp_s               000000018006e63c f   libucrt:contrlfp.obj
 0001:0006d6a0       fegetenv                   000000018006e6a0 f   libucrt:fegetenv.obj
 0001:0006d6c0       fesetenv                   000000018006e6c0 f   libucrt:fesetenv.obj
 0001:0006d718       feholdexcept               000000018006e718 f   libucrt:feholdexcept.obj
 0001:0006d768       ceil                       000000018006e768 f   libucrt:ceil.obj
 0001:0006d830       log10                      000000018006e830 f   libucrt:log10.obj
 0001:0006dddc       ??$__acrt_fenv_shift_bits@W4__acrt_fenv_abstract_control@@@@YA?AW4__acrt_fenv_abstract_control@@W40@0I@Z 000000018006eddc f i libucrt:_fenvutils.obj
 0001:0006dde8       ??$__acrt_fenv_shift_bits@W4__acrt_fenv_abstract_status@@@@YA?AW4__acrt_fenv_abstract_status@@W40@0I@Z 000000018006ede8 f i libucrt:_fenvutils.obj
 0001:0006ddf4       ??$__acrt_fenv_translate_bit@W4__acrt_fenv_abstract_control@@W4__acrt_fenv_machine_sse_control@@@@YA?AW4__acrt_fenv_abstract_control@@W4__acrt_fenv_machine_sse_control@@0W40@1@Z 000000018006edf4 f i libucrt:_fenvutils.obj
 0001:0006de00       ??$__acrt_fenv_translate_bit@W4__acrt_fenv_abstract_status@@W4__acrt_fenv_machine_sse_status@@@@YA?AW4__acrt_fenv_abstract_status@@W4__acrt_fenv_machine_sse_status@@0W40@1@Z 000000018006ee00 f i libucrt:_fenvutils.obj
 0001:0006de0c       ??$__acrt_fenv_translate_bit@W4__acrt_fenv_machine_sse_control@@W4__acrt_fenv_abstract_control@@@@YA?AW4__acrt_fenv_machine_sse_control@@W4__acrt_fenv_abstract_control@@0W40@1@Z 000000018006ee0c f i libucrt:_fenvutils.obj
 0001:0006de18       ??$__acrt_fenv_translate_bit@W4__acrt_fenv_machine_sse_status@@W4__acrt_fenv_abstract_status@@@@YA?AW4__acrt_fenv_machine_sse_status@@W4__acrt_fenv_abstract_status@@0W40@1@Z 000000018006ee18 f i libucrt:_fenvutils.obj
 0001:0006de24       ??$__acrt_fenv_unshift_bits@W4__acrt_fenv_abstract_control@@@@YA?AW4__acrt_fenv_abstract_control@@W40@0I@Z 000000018006ee24 f i libucrt:_fenvutils.obj
 0001:0006de30       ??$__acrt_fenv_unshift_bits@W4__acrt_fenv_abstract_status@@@@YA?AW4__acrt_fenv_abstract_status@@W40@0I@Z 000000018006ee30 f i libucrt:_fenvutils.obj
 0001:0006dff4       ??I@YA?AW4__acrt_fenv_abstract_control@@W40@0@Z 000000018006eff4 f i libucrt:_fenvutils.obj
 0001:0006dffc       ??I@YA?AW4__acrt_fenv_abstract_status@@W40@0@Z 000000018006effc f i libucrt:_fenvutils.obj
 0001:0006e004       ??I@YA?AW4__acrt_fenv_machine_sse_control@@W40@0@Z 000000018006f004 f i libucrt:_fenvutils.obj
 0001:0006e00c       ??I@YA?AW4__acrt_fenv_machine_sse_status@@W40@0@Z 000000018006f00c f i libucrt:_fenvutils.obj
 0001:0006e014       ??U@YA?AW4__acrt_fenv_abstract_control@@W40@0@Z 000000018006f014 f i libucrt:_fenvutils.obj
 0001:0006e01c       ??U@YA?AW4__acrt_fenv_abstract_status@@W40@0@Z 000000018006f01c f i libucrt:_fenvutils.obj
 0001:0006e024       ??U@YA?AW4__acrt_fenv_machine_sse_control@@W40@0@Z 000000018006f024 f i libucrt:_fenvutils.obj
 0001:0006e02c       ??_5@YAAEAW4__acrt_fenv_abstract_control@@AEAW40@W40@@Z 000000018006f02c f i libucrt:_fenvutils.obj
 0001:0006e034       ??_5@YAAEAW4__acrt_fenv_abstract_status@@AEAW40@W40@@Z 000000018006f034 f i libucrt:_fenvutils.obj
 0001:0006e03c       ??_5@YAAEAW4__acrt_fenv_machine_sse_control@@AEAW40@W40@@Z 000000018006f03c f i libucrt:_fenvutils.obj
 0001:0006e044       ??_5@YAAEAW4__acrt_fenv_machine_sse_status@@AEAW40@W40@@Z 000000018006f044 f i libucrt:_fenvutils.obj
 0001:0006e04c       ?__acrt_fenv_shift_abstract_sse_control@@YA?AW4__acrt_fenv_abstract_control@@W41@@Z 000000018006f04c f i libucrt:_fenvutils.obj
 0001:0006e060       ?__acrt_fenv_shift_abstract_sse_status@@YA?AW4__acrt_fenv_abstract_status@@W41@@Z 000000018006f060 f i libucrt:_fenvutils.obj
 0001:0006e06c       ?__acrt_fenv_unshift_abstract_sse_control@@YA?AW4__acrt_fenv_abstract_control@@W41@@Z 000000018006f06c f i libucrt:_fenvutils.obj
 0001:0006e084       ?__acrt_fenv_unshift_abstract_sse_status@@YA?AW4__acrt_fenv_abstract_status@@W41@@Z 000000018006f084 f i libucrt:_fenvutils.obj
 0001:0006e344       __acrt_fenv_expand_round_control 000000018006f344 f   libucrt:_fenvutils.obj
 0001:0006e35c       __acrt_fenv_get_common_round_control 000000018006f35c f   libucrt:_fenvutils.obj
 0001:0006e368       __acrt_fenv_get_control    000000018006f368 f   libucrt:_fenvutils.obj
 0001:0006e44c       __acrt_fenv_get_fp_status_word_from_exception_mask 000000018006f44c f   libucrt:_fenvutils.obj
 0001:0006e458       __acrt_fenv_get_status     000000018006f458 f   libucrt:_fenvutils.obj
 0001:0006e4b0       __acrt_fenv_set_control    000000018006f4b0 f   libucrt:_fenvutils.obj
 0001:0006e5e8       __acrt_fenv_set_status     000000018006f5e8 f   libucrt:_fenvutils.obj
 0001:0006e65c       ?reset_and_return@__crt_mbstring@@YA_K_KPEAU_Mbstatet@@@Z 000000018006f65c f   libucrt:common_utf8.obj
 0001:0006e664       ?return_illegal_sequence@__crt_mbstring@@YA_KPEAU_Mbstatet@@AEAV__crt_cached_ptd_host@@@Z 000000018006f664 f   libucrt:common_utf8.obj
 0001:0006e678       ?__mbrtoc32_utf8@__crt_mbstring@@YA_KPEA_UPEBD_KPEAU_Mbstatet@@AEAV__crt_cached_ptd_host@@@Z 000000018006f678 f   libucrt:mbrtoc32.obj
 0001:0006e854       mbrtoc32                   000000018006f854 f   libucrt:mbrtoc32.obj
 0001:0006edc8       _lseek                     000000018006fdc8 f   libucrt:lseek.obj
 0001:0006ee60       _lseek_internal            000000018006fe60 f   libucrt:lseek.obj
 0001:0006ee68       _lseek_nolock              000000018006fe68 f   libucrt:lseek.obj
 0001:0006ef00       _lseek_nolock_internal     000000018006ff00 f   libucrt:lseek.obj
 0001:0006ef08       _lseeki64                  000000018006ff08 f   libucrt:lseek.obj
 0001:0006efa4       _lseeki64_internal         000000018006ffa4 f   libucrt:lseek.obj
 0001:0006efac       _lseeki64_nolock           000000018006ffac f   libucrt:lseek.obj
 0001:0006f048       _lseeki64_nolock_internal  0000000180070048 f   libucrt:lseek.obj
 0001:0006f050       __acrt_stdio_allocate_buffer_nolock 0000000180070050 f   libucrt:_getbuf.obj
 0001:0006f198       __acrt_report_runtime_error 0000000180070198 f   libucrt:report_runtime_error.obj
 0001:0006f2f8       _query_app_type            00000001800702f8 f   libucrt:report_runtime_error.obj
 0001:0006f300       _set_app_type              0000000180070300 f   libucrt:report_runtime_error.obj
 0001:0006f3a4       _putwch                    00000001800703a4 f   libucrt:putwch.obj
 0001:0006f3e0       _putwch_nolock             00000001800703e0 f   libucrt:putwch.obj
 0001:0006f41c       _putwch_nolock_internal    000000018007041c f   libucrt:putwch.obj
 0001:0006fb2c       _read                      0000000180070b2c f   libucrt:read.obj
 0001:0006fc4c       _read_nolock               0000000180070c4c f   libucrt:read.obj
 0001:0007009c       ??$__crt_interlocked_read@H@@YAHPEDH@Z 000000018007109c f i libucrt:setmode.obj
 0001:000700a0       _get_fmode                 00000001800710a0 f   libucrt:setmode.obj
 0001:000700d0       _set_fmode                 00000001800710d0 f   libucrt:setmode.obj
 0001:00070110       _setmode                   0000000180071110 f   libucrt:setmode.obj
 0001:0007022c       _setmode_nolock            000000018007122c f   libucrt:setmode.obj
 0001:000703d4       ??0__crt_seek_guard@@QEAA@H_J@Z 00000001800713d4 f i libucrt:chsize.obj
 0001:0007042c       ??1__crt_seek_guard@@QEAA@XZ 000000018007142c f i libucrt:chsize.obj
 0001:00070578       ?check@?$cached@K@__crt_cached_ptd_host@@QEBA_NK@Z 0000000180071578 f i libucrt:chsize.obj
 0001:00070588       _chsize                    0000000180071588 f   libucrt:chsize.obj
 0001:000705a0       _chsize_nolock             00000001800715a0 f   libucrt:chsize.obj
 0001:00070638       _chsize_nolock_internal    0000000180071638 f   libucrt:chsize.obj
 0001:000707cc       _chsize_s                  00000001800717cc f   libucrt:chsize.obj
 0001:0007091c       _umask                     000000018007191c f   libucrt:umask.obj
 0001:00070930       _umask_s                   0000000180071930 f   libucrt:umask.obj
 0001:00070970       __strncnt                  0000000180071970 f   libucrt:strncnt.obj
 0001:00070988       __acrt_CompareStringW      0000000180071988 f   libucrt:comparestringw.obj
 0001:00070dcc       __acrt_CompareStringA      0000000180071dcc f   libucrt:comparestringa.obj
 0001:00070f6c       _clearfp                   0000000180071f6c f   libucrt:ieee.obj
 0001:00070fd8       _control87                 0000000180071fd8 f   libucrt:ieee.obj
 0001:00070fe0       _controlfp                 0000000180071fe0 f   libucrt:ieee.obj
 0001:00070fec       _fpreset                   0000000180071fec f   libucrt:ieee.obj
 0001:000710b4       _set_controlfp             00000001800720b4 f   libucrt:ieee.obj
 0001:000710e8       _statusfp                  00000001800720e8 f   libucrt:ieee.obj
 0001:00071508       _handle_error              0000000180072508 f   libucrt:libm_error.obj
 0001:00071630       _handle_errorf             0000000180072630 f   libucrt:libm_error.obj
 0001:00071764       _handle_nan                0000000180072764 f   libucrt:libm_error.obj
 0001:00071780       _handle_nanf               0000000180072780 f   libucrt:libm_error.obj
 0001:00071790       __acrt_initialize_fma3     0000000180072790 f   libucrt:fma3_available.obj
 0001:00071800       _get_FMA3_enable           0000000180072800 f   libucrt:fma3_available.obj
 0001:00071808       _set_FMA3_enable           0000000180072808 f   libucrt:fma3_available.obj
 0001:00071820       _log10_special             0000000180072820 f   libucrt:log_special.obj
 0001:00071840       _log10f_special            0000000180072840 f   libucrt:log_special.obj
 0001:00071860       _log_special               0000000180072860 f   libucrt:log_special.obj
 0001:00071918       _logf_special              0000000180072918 f   libucrt:log_special.obj
 0001:000719d4       _set_error_mode            00000001800729d4 f   libucrt:set_error_mode.obj
 0001:00071b64       ??$message_box@$$TAEBQEBDAEBQEBDK@?$__crt_char_traits@D@@SAH$$QEA$$TAEBQEBD1$$QEAK@Z 0000000180072b64 f i libucrt:crtmbox.obj
 0001:00071b78       ??$message_box@$$TAEBQEB_WAEBQEB_WK@?$__crt_char_traits@_W@@SAH$$QEA$$TAEBQEB_W1$$QEAK@Z 0000000180072b78 f i libucrt:crtmbox.obj
